 memoryjs

 Timestamp is 5e932d72 (Sun Apr 12 17:02:10 2020)

 Preferred load address is 10000000

 Start         Length     Name                   Class
 0001:00000000 00000030H .text$di                CODE
 0001:00000030 00012ec0H .text$mn                CODE
 0001:00012ef0 00000021H .text$yd                CODE
 0002:00000000 0000015cH .idata$5                DATA
 0002:0000015c 00000004H .00cfg                  DATA
 0002:00000160 00000004H .CRT$XCA                DATA
 0002:00000164 00000010H .CRT$XCU                DATA
 0002:00000174 00000004H .CRT$XCZ                DATA
 0002:00000178 00000004H .CRT$XIA                DATA
 0002:0000017c 0000000cH .CRT$XIC                DATA
 0002:00000188 00000004H .CRT$XIZ                DATA
 0002:0000018c 00000004H .CRT$XPA                DATA
 0002:00000190 00000008H .CRT$XPX                DATA
 0002:00000198 00000004H .CRT$XPXA               DATA
 0002:0000019c 00000004H .CRT$XPZ                DATA
 0002:000001a0 00000004H .CRT$XTA                DATA
 0002:000001a4 0000000cH .CRT$XTZ                DATA
 0002:000001b0 00005360H .rdata                  DATA
 0002:00005510 00000220H .rdata$r                DATA
 0002:00005730 0000000cH .rdata$sxdata           DATA
 0002:0000573c 000003fcH .rdata$zzzdbg           DATA
 0002:00005b38 00000004H .rtc$IAA                DATA
 0002:00005b3c 00000004H .rtc$IZZ                DATA
 0002:00005b40 00000004H .rtc$TAA                DATA
 0002:00005b44 00000004H .rtc$TZZ                DATA
 0002:00005b48 000004ecH .xdata$x                DATA
 0002:00006034 00000020H .didat$2                DATA
 0002:00006054 00000020H .didat$3                DATA
 0002:00006074 0000009cH .didat$4                DATA
 0002:00006110 0000085cH .didat$6                DATA
 0002:0000696c 000000a4H .didat$7                DATA
 0002:00006a10 00000054H .edata                  DATA
 0002:00006a64 00000014H .idata$2                DATA
 0002:00006a78 00000014H .idata$3                DATA
 0002:00006a8c 0000015cH .idata$4                DATA
 0002:00006be8 0000063eH .idata$6                DATA
 0003:00000000 000008c0H .data                   DATA
 0003:000008c0 000000e8H .data$r                 DATA
 0003:000009a8 000000a0H .didat$5                DATA
 0003:00000a48 00000a48H .bss                    DATA
 0004:00000000 0000008cH .gfids$x                DATA
 0004:0000008c 00000070H .gfids$y                DATA
 0005:00000000 00000060H .rsrc$01                DATA
 0005:00000060 00000180H .rsrc$02                DATA

  Address         Publics by Value              Rva+Base       Lib:Object

 0000:00000000       ___guard_fids_count        00000000     <absolute>
 0000:00000000       ___guard_longjmp_count     00000000     <absolute>
 0000:00000000       ___guard_longjmp_table     00000000     <absolute>
 0000:00000000       ___guard_iat_table         00000000     <absolute>
 0000:00000000       __except_list              00000000     <absolute>
 0000:00000000       ___guard_iat_count         00000000     <absolute>
 0000:00000000       ___guard_fids_table        00000000     <absolute>
 0000:00000000       ___dynamic_value_reloc_table 00000000     <absolute>
 0000:00000003       ___safe_se_handler_count   00000003     <absolute>
 0000:00000100       ___guard_flags             00000100     <absolute>
 0000:00000000       ___ImageBase               10000000     <linker-defined>
 0001:00000030       ?NODE_SET_METHOD@node@@YAXV?$Local@VObject@v8@@@v8@@PBDP6AXABV?$FunctionCallbackInfo@VValue@v8@@@3@@Z@Z 10001030 f i memoryjs.obj
 0001:00000100       ?throwError@memoryjs@@SAXPADPAVIsolate@v8@@@Z 10001100 f   memoryjs.obj
 0001:00000140       ?openProcess@@YAXABV?$FunctionCallbackInfo@VValue@v8@@@v8@@@Z 10001140 f   memoryjs.obj
 0001:000007b0       ?closeProcess@@YAXABV?$FunctionCallbackInfo@VValue@v8@@@v8@@@Z 100017b0 f   memoryjs.obj
 0001:00000880       ?getProcesses@@YAXABV?$FunctionCallbackInfo@VValue@v8@@@v8@@@Z 10001880 f   memoryjs.obj
 0001:00000c60       ?getModules@@YAXABV?$FunctionCallbackInfo@VValue@v8@@@v8@@@Z 10001c60 f   memoryjs.obj
 0001:00001040       ?findModule@@YAXABV?$FunctionCallbackInfo@VValue@v8@@@v8@@@Z 10002040 f   memoryjs.obj
 0001:000015a0       ?readMemory@@YAXABV?$FunctionCallbackInfo@VValue@v8@@@v8@@@Z 100025a0 f   memoryjs.obj
 0001:00002470       ?readBuffer@@YAXABV?$FunctionCallbackInfo@VValue@v8@@@v8@@@Z 10003470 f   memoryjs.obj
 0001:00002690       ?writeMemory@@YAXABV?$FunctionCallbackInfo@VValue@v8@@@v8@@@Z 10003690 f   memoryjs.obj
 0001:000030e0       ?writeBuffer@@YAXABV?$FunctionCallbackInfo@VValue@v8@@@v8@@@Z 100040e0 f   memoryjs.obj
 0001:00003250       ?findPattern@@YAXABV?$FunctionCallbackInfo@VValue@v8@@@v8@@@Z 10004250 f   memoryjs.obj
 0001:00003770       ?setProtection@@YAXABV?$FunctionCallbackInfo@VValue@v8@@@v8@@@Z 10004770 f   memoryjs.obj
 0001:00003900       ?callFunction@@YAXABV?$FunctionCallbackInfo@VValue@v8@@@v8@@@Z 10004900 f   memoryjs.obj
 0001:00004130       ?virtualAllocEx@@YAXABV?$FunctionCallbackInfo@VValue@v8@@@v8@@@Z 10005130 f   memoryjs.obj
 0001:00004440       ?init@@YAXV?$Local@VObject@v8@@@v8@@@Z 10005440 f   memoryjs.obj
 0001:00004550       ?push_back@?$vector@PAXV?$allocator@PAX@std@@@std@@QAEXABQAX@Z 10005550 f i memoryjs.obj
 0001:00004650       ?push_back@?$vector@DV?$allocator@D@std@@@std@@QAEXABD@Z 10005650 f i memoryjs.obj
 0001:000046b0       ??1?$vector@DV?$allocator@D@std@@@std@@QAE@XZ 100056b0 f i memoryjs.obj
 0001:00004720       ?push_back@?$vector@UArg@@V?$allocator@UArg@@@std@@@std@@QAEX$$QAUArg@@@Z 10005720 f i memoryjs.obj
 0001:00004830       ??1?$basic_string@DU?$char_traits@D@std@@V?$allocator@D@2@@std@@QAE@XZ 10005830 f i memoryjs.obj
 0001:000048a0       ??0?$basic_string@DU?$char_traits@D@std@@V?$allocator@D@2@@std@@QAE@$$QAV01@@Z 100058a0 f i memoryjs.obj
 0001:00004920       ?_Tidy@?$vector@PAXV?$allocator@PAX@std@@@std@@IAEXXZ 10005920 f i memoryjs.obj
 0001:000049a0       ?_Reserve@?$vector@EV?$allocator@E@std@@@std@@IAEXI@Z 100059a0 f i memoryjs.obj
 0001:000049a0       ?_Reserve@?$vector@DV?$allocator@D@std@@@std@@IAEXI@Z 100059a0 f i memoryjs.obj
 0001:00004a00       ?_Tidy@?$vector@UArg@@V?$allocator@UArg@@@std@@@std@@IAEXXZ 10005a00 f i memoryjs.obj
 0001:00004a80       ?_Tidy@?$vector@UtagPROCESSENTRY32@@V?$allocator@UtagPROCESSENTRY32@@@std@@@std@@IAEXXZ 10005a80 f i memoryjs.obj
 0001:00004b10       ?_Tidy@?$vector@UtagMODULEENTRY32@@V?$allocator@UtagMODULEENTRY32@@@std@@@std@@IAEXXZ 10005b10 f i memoryjs.obj
 0001:00004ba0       ?assign@?$basic_string@DU?$char_traits@D@std@@V?$allocator@D@2@@std@@QAEAAV12@PBDI@Z 10005ba0 f i memoryjs.obj
 0001:00004ca0       ?assign@?$basic_string@DU?$char_traits@D@std@@V?$allocator@D@2@@std@@QAEAAV12@ABV12@II@Z 10005ca0 f i memoryjs.obj
 0001:00004db0       ?allocate@?$_Wrap_alloc@V?$allocator@UArg@@@std@@@std@@QAEPAUArg@@I@Z 10005db0 f i memoryjs.obj
 0001:00004e10       ?_Reallocate@?$vector@PAXV?$allocator@PAX@std@@@std@@IAEXI@Z 10005e10 f i memoryjs.obj
 0001:00004f00       ?_Reallocate@?$vector@DV?$allocator@D@std@@@std@@IAEXI@Z 10005f00 f i memoryjs.obj
 0001:00004f00       ?_Reallocate@?$vector@EV?$allocator@E@std@@@std@@IAEXI@Z 10005f00 f i memoryjs.obj
 0001:00004fc0       ?_Reallocate@?$vector@UArg@@V?$allocator@UArg@@@std@@@std@@IAEXI@Z 10005fc0 f i memoryjs.obj
 0001:000050b0       ?erase@?$basic_string@DU?$char_traits@D@std@@V?$allocator@D@2@@std@@QAEAAV12@II@Z 100060b0 f i memoryjs.obj
 0001:00005130       ?_Copy@?$basic_string@DU?$char_traits@D@std@@V?$allocator@D@2@@std@@QAEXII@Z 10006130 f i memoryjs.obj
 0001:00005260       ??$Set@VNumber@v8@@@?$ReturnValue@VValue@v8@@@v8@@QAEXV?$Local@VNumber@v8@@@1@@Z 10006260 f i memoryjs.obj
 0001:00005280       ??$readMemory@H@memory@@QAEHPAX_K@Z 10006280 f i memoryjs.obj
 0001:000052a0       ??$?0V?$_Vector_iterator@V?$_Vector_val@U?$_Simple_types@D@std@@@std@@@std@@X@?$basic_string@DU?$char_traits@D@std@@V?$allocator@D@2@@std@@QAE@V?$_Vector_iterator@V?$_Vector_val@U?$_Simple_types@D@std@@@std@@@1@0ABV?$allocator@D@1@@Z 100062a0 f i memoryjs.obj
 0001:000052d0       ??$writeMemory@UVector3@@@memory@@QAEXPAX_KUVector3@@@Z 100062d0 f i memoryjs.obj
 0001:00005330       ??$call@H@functions@@YA?AUCall@@PAXV?$vector@UArg@@V?$allocator@UArg@@@std@@@std@@W4Type@@_KPAPAD@Z 10006330 f i memoryjs.obj
 0001:00006280       ?deallocate@?$_Wrap_alloc@V?$allocator@E@std@@@std@@QAEXPAEI@Z 10007280 f i memoryjs.obj
 0001:000062d0       ?allocate@?$_Wrap_alloc@V?$allocator@E@std@@@std@@QAEPAEI@Z 100072d0 f i memoryjs.obj
 0001:00006320       ??$_Insert@V?$_Vector_iterator@V?$_Vector_val@U?$_Simple_types@E@std@@@std@@@std@@@?$vector@EV?$allocator@E@std@@@std@@QAEXV?$_Vector_const_iterator@V?$_Vector_val@U?$_Simple_types@E@std@@@std@@@1@V?$_Vector_iterator@V?$_Vector_val@U?$_Simple_types@E@std@@@std@@@1@1Uforward_iterator_tag@1@@Z 10007320 f i memoryjs.obj
 0001:00006440       ?_Buy@?$vector@EV?$allocator@E@std@@@std@@IAE_NI@Z 10007440 f i memoryjs.obj
 0001:000064c0       ??$_Rotate_unchecked1@PAE@std@@YAPAEPAE00Urandom_access_iterator_tag@0@@Z 100074c0 f i memoryjs.obj
 0001:00006530       ?openProcess@process@@QAE?AUPair@1@PBDPAPAD@Z 10007530 f   process.obj
 0001:00006620       ?openProcess@process@@QAE?AUPair@1@KPAPAD@Z 10007620 f   process.obj
 0001:000066e0       ?getProcesses@process@@QAE?AV?$vector@UtagPROCESSENTRY32@@V?$allocator@UtagPROCESSENTRY32@@@std@@@std@@PAPAD@Z 100076e0 f   process.obj
 0001:00006820       ?_Reserve@?$vector@UtagPROCESSENTRY32@@V?$allocator@UtagPROCESSENTRY32@@@std@@@std@@IAEXI@Z 10007820 f i process.obj
 0001:000068c0       ?_Reallocate@?$vector@UtagPROCESSENTRY32@@V?$allocator@UtagPROCESSENTRY32@@@std@@@std@@IAEXI@Z 100078c0 f i process.obj
 0001:000069e0       ?findModule@module@@QAE?AUtagMODULEENTRY32@@PBDKPAPAD@Z 100079e0 f   module.obj
 0001:00006ab0       ?getModules@module@@QAE?AV?$vector@UtagMODULEENTRY32@@V?$allocator@UtagMODULEENTRY32@@@std@@@std@@KPAPAD@Z 10007ab0 f   module.obj
 0001:00006b70       ?push_back@?$vector@UtagMODULEENTRY32@@V?$allocator@UtagMODULEENTRY32@@@std@@@std@@QAEXABUtagMODULEENTRY32@@@Z 10007b70 f i module.obj
 0001:00006cf0       ?_Reallocate@?$vector@UtagMODULEENTRY32@@V?$allocator@UtagMODULEENTRY32@@@std@@@std@@IAEXI@Z 10007cf0 f i module.obj
 0001:00006e10       ?findPattern@pattern@@QAEIPAXUtagMODULEENTRY32@@PBDFII@Z 10007e10 f   pattern.obj
 0001:00006f70       ?compareBytes@pattern@@QAE_NPBEPBD@Z 10007f70 f   pattern.obj
 0001:0000703b       __imp_load_?ThrowException@Isolate@v8@@QAE?AV?$Local@VValue@v8@@@2@V32@@Z 1000803b f   node:node.exe
 0001:00007045       __tailMerge_node_exe       10008045 f i node:node.exe
 0001:00007056       __imp_load_?GetCurrentContext@Isolate@v8@@QAE?AV?$Local@VContext@v8@@@2@XZ 10008056 f   node:node.exe
 0001:00007060       __imp_load_?GetCurrent@Isolate@v8@@SAPAV12@XZ 10008060 f   node:node.exe
 0001:0000706a       __imp_load_??1HandleScope@v8@@QAE@XZ 1000806a f   node:node.exe
 0001:00007074       __imp_load_??0HandleScope@v8@@QAE@PAVIsolate@1@@Z 10008074 f   node:node.exe
 0001:0000707e       __imp_load_?TypeError@Exception@v8@@SA?AV?$Local@VValue@v8@@@2@V?$Local@VString@v8@@@2@@Z 1000807e f   node:node.exe
 0001:00007088       __imp_load_?New@Array@v8@@SA?AV?$Local@VArray@v8@@@2@PAVIsolate@2@H@Z 10008088 f   node:node.exe
 0001:00007092       __imp_load_?Length@Array@v8@@QBEIXZ 10008092 f   node:node.exe
 0001:0000709c       __imp_load_?GetFunction@FunctionTemplate@v8@@QAE?AV?$MaybeLocal@VFunction@v8@@@2@V?$Local@VContext@v8@@@2@@Z 1000809c f   node:node.exe
 0001:000070a6       __imp_load_?New@FunctionTemplate@v8@@SA?AV?$Local@VFunctionTemplate@v8@@@2@PAVIsolate@2@P6AXABV?$FunctionCallbackInfo@VValue@v8@@@2@@ZV?$Local@VValue@v8@@@2@V?$Local@VSignature@v8@@@2@HW4ConstructorBehavior@2@W4SideEffectType@2@@Z 100080a6 f   node:node.exe
 0001:000070b0       __imp_load_?ToLocalEmpty@V8@v8@@CAXXZ 100080b0 f   node:node.exe
 0001:000070ba       __imp_load_?FromJustIsNothing@V8@v8@@CAXXZ 100080ba f   node:node.exe
 0001:000070c4       __imp_load_?Int32Value@Value@v8@@QBEHXZ 100080c4 f   node:node.exe
 0001:000070ce       __imp_load_?Uint32Value@Value@v8@@QBEIXZ 100080ce f   node:node.exe
 0001:000070d8       __imp_load_?IntegerValue@Value@v8@@QBE_JXZ 100080d8 f   node:node.exe
 0001:000070e2       __imp_load_?NumberValue@Value@v8@@QBENXZ 100080e2 f   node:node.exe
 0001:000070ec       __imp_load_?BooleanValue@Value@v8@@QBE_NXZ 100080ec f   node:node.exe
 0001:000070f6       __imp_load_?IsNumber@Value@v8@@QBE_NXZ 100080f6 f   node:node.exe
 0001:00007100       __imp_load_?IsObject@Value@v8@@QBE_NXZ 10008100 f   node:node.exe
 0001:0000710a       __imp_load_?IsFunction@Value@v8@@QBE_NXZ 1000810a f   node:node.exe
 0001:00007114       __imp_load_??1Utf8Value@String@v8@@QAE@XZ 10008114 f   node:node.exe
 0001:0000711e       __imp_load_??0Utf8Value@String@v8@@QAE@V?$Local@VValue@v8@@@2@@Z 1000811e f   node:node.exe
 0001:00007128       __imp_load_?NewFromUtf8@String@v8@@SA?AV?$Local@VString@v8@@@2@PAVIsolate@2@PBDW4NewStringType@12@H@Z 10008128 f   node:node.exe
 0001:00007132       __imp_load_?NewFromUtf8@String@v8@@SA?AV?$MaybeLocal@VString@v8@@@2@PAVIsolate@2@PBDW4NewStringType@2@H@Z 10008132 f   node:node.exe
 0001:0000713c       __imp_load_?New@Number@v8@@SA?AV?$Local@VNumber@v8@@@2@PAVIsolate@2@N@Z 1000813c f   node:node.exe
 0001:00007146       __imp_load_?New@Object@v8@@SA?AV?$Local@VObject@v8@@@2@PAVIsolate@2@@Z 10008146 f   node:node.exe
 0001:00007150       __imp_load_?Get@Object@v8@@QAE?AV?$Local@VValue@v8@@@2@V32@@Z 10008150 f   node:node.exe
 0001:0000715a       __imp_load_?Get@Object@v8@@QAE?AV?$Local@VValue@v8@@@2@I@Z 1000815a f   node:node.exe
 0001:00007164       __imp_load_?Set@Object@v8@@QAE_NV?$Local@VValue@v8@@@2@0@Z 10008164 f   node:node.exe
 0001:0000716e       __imp_load_?Set@Object@v8@@QAE?AV?$Maybe@_N@2@V?$Local@VContext@v8@@@2@V?$Local@VValue@v8@@@2@1@Z 1000816e f   node:node.exe
 0001:00007178       __imp_load_?Set@Object@v8@@QAE_NIV?$Local@VValue@v8@@@2@@Z 10008178 f   node:node.exe
 0001:00007182       __imp_load_?SetName@Function@v8@@QAEXV?$Local@VString@v8@@@2@@Z 10008182 f   node:node.exe
 0001:0000718c       __imp_load_?Call@Function@v8@@QAE?AV?$Local@VValue@v8@@@2@V32@HQAV32@@Z 1000818c f   node:node.exe
 0001:00007196       __imp_load__node_module_register 10008196 f   node:node.exe
 0001:000071a0       __imp_load_?New@Buffer@node@@YA?AV?$MaybeLocal@VObject@v8@@@v8@@PAVIsolate@4@PADI@Z 100081a0 f   node:node.exe
 0001:000071aa       __imp_load_?Data@Buffer@node@@YAPADV?$Local@VValue@v8@@@v8@@@Z 100081aa f   node:node.exe
 0001:000071b4       __imp_load_?Length@Buffer@node@@YAIV?$Local@VValue@v8@@@v8@@@Z 100081b4 f   node:node.exe
 0001:000071be       __imp_load_?ToString@Value@v8@@QBE?AV?$Local@VString@v8@@@2@XZ 100081be f   node:node.exe
 0001:000071c8       ??0bad_alloc@std@@QAE@ABV01@@Z 100081c8 f i libcpmt:xthrow.obj
 0001:000071e3       ??0bad_alloc@std@@QAE@XZ   100081e3 f i libcpmt:xthrow.obj
 0001:000071fb       ??0exception@std@@QAE@ABV01@@Z 100081fb f i libcpmt:xthrow.obj
 0001:00007227       ??0exception@std@@QAE@QBD@Z 10008227 f i libcpmt:xthrow.obj
 0001:0000725e       ??0length_error@std@@QAE@ABV01@@Z 1000825e f i libcpmt:xthrow.obj
 0001:00007279       ??0length_error@std@@QAE@PBD@Z 10008279 f i libcpmt:xthrow.obj
 0001:0000729a       ??0logic_error@std@@QAE@ABV01@@Z 1000829a f i libcpmt:xthrow.obj
 0001:000072b5       ??0out_of_range@std@@QAE@ABV01@@Z 100082b5 f i libcpmt:xthrow.obj
 0001:000072d0       ??0out_of_range@std@@QAE@PBD@Z 100082d0 f i libcpmt:xthrow.obj
 0001:000072f1       ?_Xlength_error@std@@YAXPBD@Z 100082f1 f   libcpmt:xthrow.obj
 0001:00007311       ?_Xout_of_range@std@@YAXPBD@Z 10008311 f   libcpmt:xthrow.obj
 0001:00007331       ?what@exception@std@@UBEPBDXZ 10008331 f i libcpmt:xthrow.obj
 0001:0000733e       @__security_check_cookie@4 1000833e f   LIBCMT:_secchk_.obj
 0001:0000734f       ??2@YAPAXI@Z               1000834f f   LIBCMT:new_scalar.obj
 0001:00007382       ??$__crt_fast_encode_pointer@PAP6AXXZ@@YAPAP6AXXZQAP6AXXZ@Z 10008382 f i LIBCMT:utility.obj
 0001:00007382       ??$__crt_fast_encode_pointer@PAX@@YAPAXQAX@Z 10008382 f i libvcruntime:winapi_downlevel.obj
 0001:000073e3       ___scrt_acquire_startup_lock 100083e3 f   LIBCMT:utility.obj
 0001:00007418       ___scrt_dllmain_after_initialize_c 10008418 f   LIBCMT:utility.obj
 0001:00007443       ___scrt_dllmain_before_initialize_c 10008443 f   LIBCMT:utility.obj
 0001:00007451       ___scrt_dllmain_crt_thread_attach 10008451 f   LIBCMT:utility.obj
 0001:00007470       ___scrt_dllmain_crt_thread_detach 10008470 f   LIBCMT:utility.obj
 0001:0000747d       ___scrt_dllmain_exception_filter 1000847d f   LIBCMT:utility.obj
 0001:000074b0       ___scrt_dllmain_uninitialize_c 100084b0 f   LIBCMT:utility.obj
 0001:000074d3       ___scrt_dllmain_uninitialize_critical 100084d3 f   LIBCMT:utility.obj
 0001:000074e0       ___scrt_initialize_crt     100084e0 f   LIBCMT:utility.obj
 0001:00007519       ___scrt_initialize_onexit_tables 10008519 f   LIBCMT:utility.obj
 0001:000075b0       ___scrt_is_nonwritable_in_current_image 100085b0 f   LIBCMT:utility.obj
 0001:0000763a       ___scrt_release_startup_lock 1000863a f   LIBCMT:utility.obj
 0001:00007657       ___scrt_uninitialize_crt   10008657 f   LIBCMT:utility.obj
 0001:0000767f       __onexit                   1000867f f   LIBCMT:utility.obj
 0001:000076ba       _atexit                    100086ba f   LIBCMT:utility.obj
 0001:000076cf       ??3@YAXPAX@Z               100086cf f   LIBCMT:delete_scalar.obj
 0001:000076d4       ??_U@YAPAXI@Z              100086d4 f   LIBCMT:new_array.obj
 0001:000076dd       ??_Etype_info@@UAEPAXI@Z   100086dd f i LIBCMT:std_type_info_static.obj
 0001:000076dd       ??_Gtype_info@@UAEPAXI@Z   100086dd f i LIBCMT:std_type_info_static.obj
 0001:00007a08       __DllMainCRTStartup@12     10008a08 f   LIBCMT:dll_dllmain.obj
 0001:00007a2b       ??3@YAXPAXI@Z              10008a2b f   LIBCMT:delete_scalar_size.obj
 0001:00007a39       ___raise_securityfailure   10008a39 f   LIBCMT:gs_report.obj
 0001:00007a61       ___report_gsfailure        10008a61 f   LIBCMT:gs_report.obj
 0001:00007b5c       ??0bad_array_new_length@std@@QAE@ABV01@@Z 10008b5c f i LIBCMT:throw_bad_alloc.obj
 0001:00007b77       ??0bad_array_new_length@std@@QAE@XZ 10008b77 f i LIBCMT:throw_bad_alloc.obj
 0001:00007b8f       ??1bad_alloc@std@@UAE@XZ   10008b8f f i libcpmt:xthrow.obj
 0001:00007b8f       ??1length_error@std@@UAE@XZ 10008b8f f i libcpmt:xthrow.obj
 0001:00007b8f       ??1bad_array_new_length@std@@UAE@XZ 10008b8f f i LIBCMT:throw_bad_alloc.obj
 0001:00007b8f       ??1out_of_range@std@@UAE@XZ 10008b8f f i libcpmt:xthrow.obj
 0001:00007ba0       ??_Elength_error@std@@UAEPAXI@Z 10008ba0 f i libcpmt:xthrow.obj
 0001:00007ba0       ??_Glogic_error@std@@UAEPAXI@Z 10008ba0 f i libcpmt:xthrow.obj
 0001:00007ba0       ??_Glength_error@std@@UAEPAXI@Z 10008ba0 f i libcpmt:xthrow.obj
 0001:00007ba0       ??_Gbad_array_new_length@std@@UAEPAXI@Z 10008ba0 f i LIBCMT:throw_bad_alloc.obj
 0001:00007ba0       ??_Gout_of_range@std@@UAEPAXI@Z 10008ba0 f i libcpmt:xthrow.obj
 0001:00007ba0       ??_Ebad_array_new_length@std@@UAEPAXI@Z 10008ba0 f i LIBCMT:throw_bad_alloc.obj
 0001:00007ba0       ??_Gexception@std@@UAEPAXI@Z 10008ba0 f i libcpmt:xthrow.obj
 0001:00007ba0       ??_Gbad_alloc@std@@UAEPAXI@Z 10008ba0 f i libcpmt:xthrow.obj
 0001:00007ba0       ??_Eout_of_range@std@@UAEPAXI@Z 10008ba0 f i libcpmt:xthrow.obj
 0001:00007ba0       ??_Ebad_alloc@std@@UAEPAXI@Z 10008ba0 f i libcpmt:xthrow.obj
 0001:00007ba0       ??_Elogic_error@std@@UAEPAXI@Z 10008ba0 f i libcpmt:xthrow.obj
 0001:00007ba0       ??_Eexception@std@@UAEPAXI@Z 10008ba0 f i libcpmt:xthrow.obj
 0001:00007bcd       ?__scrt_throw_std_bad_alloc@@YAXXZ 10008bcd f   LIBCMT:throw_bad_alloc.obj
 0001:00007bcd       ?_Xbad_alloc@std@@YAXXZ    10008bcd f   libcpmt:xthrow.obj
 0001:00007bea       ?__scrt_throw_std_bad_array_new_length@@YAXXZ 10008bea f   LIBCMT:throw_bad_alloc.obj
 0001:00007c07       ___isa_available_init      10008c07 f   LIBCMT:_cpu_disp_.obj
 0001:00007da1       __get_startup_argv_mode    10008da1 f   LIBCMT:argv_mode.obj
 0001:00007da5       ___scrt_is_ucrt_dll_in_use 10008da5 f   LIBCMT:ucrt_detection.obj
 0001:00007db1       ___scrt_fastfail           10008db1 f   LIBCMT:utility_desktop.obj
 0001:00007ecc       __crt_debugger_hook        10008ecc f   LIBCMT:utility_desktop.obj
 0001:00007ed4       @_guard_check_icall@4      10008ed4 f i LIBCMT:checkcfg.obj
 0001:00007ee0       __SEH_prolog4              10008ee0 f   LIBCMT:_sehprolg4_.obj
 0001:00007f26       __SEH_epilog4              10008f26 f   LIBCMT:_sehprolg4_.obj
 0001:00007f3b       ___security_init_cookie    10008f3b f   LIBCMT:gs_support.obj
 0001:00007fd7       _DllMain@12                10008fd7 f   LIBCMT:dll_dllmain_stub.obj
 0001:00007fdd       ?__scrt_initialize_type_info@@YAXXZ 10008fdd f   LIBCMT:tncleanup.obj
 0001:00007fe9       ?__scrt_uninitialize_type_info@@YAXXZ 10008fe9 f   LIBCMT:tncleanup.obj
 0001:00007ff5       ___local_stdio_printf_options 10008ff5 f i LIBCMT:default_local_stdio_options.obj
 0001:00007ffb       ___local_stdio_scanf_options 10008ffb f i LIBCMT:default_local_stdio_options.obj
 0001:00008001       ___scrt_initialize_default_local_stdio_options 10009001 f   LIBCMT:default_local_stdio_options.obj
 0001:0000801e       ___scrt_get_dyn_tls_init_callback 1000901e f   LIBCMT:dyn_tls_init.obj
 0001:00008024       __RTC_Initialize           10009024 f   LIBCMT:_initsect_.obj
 0001:0000804f       __RTC_Terminate            1000904f f   LIBCMT:_initsect_.obj
 0001:00008080       _memmove                   10009080 f   libvcruntime:memmove.obj
 0001:000085f4       ___std_type_info_compare   100095f4 f   libvcruntime:std_type_info.obj
 0001:00008630       ___std_type_info_destroy_list 10009630 f   libvcruntime:std_type_info.obj
 0001:00008653       ___std_exception_copy      10009653 f   libvcruntime:std_exception.obj
 0001:000086b6       ___std_exception_destroy   100096b6 f   libvcruntime:std_exception.obj
 0001:000086d5       __CxxThrowException@8      100096d5 f   libvcruntime:throw.obj
 0001:00008743       ___vcrt_initialize         10009743 f   libvcruntime:initialization.obj
 0001:0000876c       ___vcrt_thread_attach      1000976c f   libvcruntime:initialization.obj
 0001:00008777       ___vcrt_thread_detach      10009777 f   libvcruntime:initialization.obj
 0001:00008782       ___vcrt_uninitialize       10009782 f   libvcruntime:initialization.obj
 0001:000087a1       ___vcrt_uninitialize_critical 100097a1 f   libvcruntime:initialization.obj
 0001:000087f0       __except_handler4          100097f0 f   libvcruntime:_chandler4_.obj
 0001:00008960       _memset                    10009960 f   libvcruntime:memset.obj
 0001:00008aba       ___vcrt_freefls@4          10009aba f   libvcruntime:per_thread_data.obj
 0001:00008ad6       ___vcrt_freeptd            10009ad6 f   libvcruntime:per_thread_data.obj
 0001:00008b0c       ___vcrt_getptd_noexit      10009b0c f   libvcruntime:per_thread_data.obj
 0001:00008b9e       ___vcrt_initialize_ptd     10009b9e f   libvcruntime:per_thread_data.obj
 0001:00008bd1       ___vcrt_uninitialize_ptd   10009bd1 f   libvcruntime:per_thread_data.obj
 0001:00008bec       ___vcrt_initialize_locks   10009bec f   libvcruntime:locks.obj
 0001:00008c28       ___vcrt_uninitialize_locks 10009c28 f   libvcruntime:locks.obj
 0001:00008d78       ___vcrt_FlsAlloc           10009d78 f   libvcruntime:winapi_downlevel.obj
 0001:00008db2       ___vcrt_FlsFree            10009db2 f   libvcruntime:winapi_downlevel.obj
 0001:00008dec       ___vcrt_FlsGetValue        10009dec f   libvcruntime:winapi_downlevel.obj
 0001:00008e26       ___vcrt_FlsSetValue        10009e26 f   libvcruntime:winapi_downlevel.obj
 0001:00008e63       ___vcrt_InitializeCriticalSectionEx 10009e63 f   libvcruntime:winapi_downlevel.obj
 0001:00008ea9       ___vcrt_initialize_winapi_thunks 10009ea9 f   libvcruntime:winapi_downlevel.obj
 0001:00008ee3       ___vcrt_uninitialize_winapi_thunks 10009ee3 f   libvcruntime:winapi_downlevel.obj
 0001:00008f15       ___vcrt_initialize_pure_virtual_call_handler 10009f15 f   libvcruntime:purevirt_data.obj
 0001:00008f40       __local_unwind4            10009f40 f   libvcruntime:_exsup4_.obj
 0001:00009016       __seh_longjmp_unwind4@4    1000a016 f   libvcruntime:_exsup4_.obj
 0001:0000903e       @_EH4_CallFilterFunc@8     1000a03e f   libvcruntime:_exsup4_.obj
 0001:00009055       @_EH4_TransferToHandler@8  1000a055 f   libvcruntime:_exsup4_.obj
 0001:0000906e       @_EH4_GlobalUnwind2@8      1000a06e f   libvcruntime:_exsup4_.obj
 0001:00009087       @_EH4_LocalUnwind@16       1000a087 f   libvcruntime:_exsup4_.obj
 0001:0000909e       ___except_validate_context_record 1000a09e f   libvcruntime:jbcxrval.obj
 0001:0000909e       @_guard_check_icall_nop@4  1000a09e f   LIBCMT:guard_support.obj
 0001:0000909e       ___except_validate_jump_buffer 1000a09e f   libvcruntime:jbcxrval.obj
 0001:000090a0       __global_unwind2           1000a0a0 f   libvcruntime:_exsup_.obj
 0001:00009105       __local_unwind2            1000a105 f   libvcruntime:_exsup_.obj
 0001:00009189       __abnormal_termination     1000a189 f   libvcruntime:_exsup_.obj
 0001:000091ac       __NLG_Notify1              1000a1ac f   libvcruntime:_exsup_.obj
 0001:000091b5       __NLG_Notify               1000a1b5 f   libvcruntime:_exsup_.obj
 0001:000091cc       __NLG_Dispatch2            1000a1cc     libvcruntime:_exsup_.obj
 0001:000091cc       __NLG_Dispatch             1000a1cc     libvcruntime:_exsup_.obj
 0001:000091d4       __NLG_Call                 1000a1d4 f   libvcruntime:_exsup_.obj
 0001:000091d6       __NLG_Return2              1000a1d6     libvcruntime:_exsup_.obj
 0001:000091d7       _free                      1000a1d7 f   libucrt:free.obj
 0001:000091dc       __fgetc_nolock             1000a1dc f   libucrt:fgetc.obj
 0001:00009218       __fgetchar                 1000a218 f   libucrt:fgetc.obj
 0001:00009228       _fgetc                     1000a228 f   libucrt:fgetc.obj
 0001:0000932a       _getchar                   1000a32a f   libucrt:fgetc.obj
 0001:0000932f       ___acrt_call_reportfault   1000a32f f   libucrt:invalid_parameter.obj
 0001:0000946a       ___acrt_initialize_invalid_parameter_handler 1000a46a f   libucrt:invalid_parameter.obj
 0001:0000947e       __invalid_parameter        1000a47e f   libucrt:invalid_parameter.obj
 0001:000094f9       __invalid_parameter_noinfo 1000a4f9 f   libucrt:invalid_parameter.obj
 0001:00009509       __invalid_parameter_noinfo_noreturn 1000a509 f   libucrt:invalid_parameter.obj
 0001:00009526       __invoke_watson            1000a526 f   libucrt:invalid_parameter.obj
 0001:00009559       _malloc                    1000a559 f   libucrt:malloc.obj
 0001:00009564       ??0_LocaleUpdate@@QAE@QAU__crt_locale_pointers@@@Z 1000a564 f i libucrt:stricmp.obj
 0001:000095e7       ___ascii_stricmp           1000a5e7 f   libucrt:stricmp.obj
 0001:00009622       __stricmp                  1000a622 f   libucrt:stricmp.obj
 0001:0000966a       __stricmp_l                1000a66a f   libucrt:stricmp.obj
 0001:00009704       ___acrt_initialize_new_handler 1000a704 f   libucrt:new_handler.obj
 0001:00009718       __callnewh                 1000a718 f   libucrt:new_handler.obj
 0001:0000975c       __query_new_handler        1000a75c f   libucrt:new_handler.obj
 0001:000097ae       __seh_filter_dll           1000a7ae f   libucrt:exception_filter.obj
 0001:000097ce       __seh_filter_exe           1000a7ce f   libucrt:exception_filter.obj
 0001:00009b5c       ___acrt_initialize_thread_local_exit_callback 1000ab5c f   libucrt:exit.obj
 0001:00009b6b       __cexit                    1000ab6b f   libucrt:exit.obj
 0001:00009b7a       __exit                     1000ab7a f   libucrt:exit.obj
 0001:00009b90       __is_c_termination_complete 1000ab90 f   libucrt:exit.obj
 0001:00009e2f       ___acrt_allocate_buffer_for_argv 1000ae2f f   libucrt:argv_parsing.obj
 0001:00009e84       __configure_narrow_argv    1000ae84 f   libucrt:argv_parsing.obj
 0001:00009fe8       ??$uninitialize@A6AXAAPAPA_W@Z@?$dual_state_global@PAPA_W@__crt_state_management@@QAEXA6AXAAPAPA_W@Z@Z 1000afe8 f i libucrt:environment_initialization.obj
 0001:00009fe8       ??$uninitialize@A6AXAAPAPAD@Z@?$dual_state_global@PAPAD@__crt_state_management@@QAEXA6AXAAPAPAD@Z@Z 1000afe8 f i libucrt:environment_initialization.obj
 0001:0000a05e       ___dcrt_uninitialize_environments_nolock 1000b05e f   libucrt:environment_initialization.obj
 0001:0000a095       __initialize_narrow_environment 1000b095 f   libucrt:environment_initialization.obj
 0001:0000a09a       ??$?RV<lambda_800076c951b434888f4765a74a194fcc>@@AAV<lambda_4e60a939b0d047cfe11ddc22648dfba9>@@V<lambda_6dbb1268764f43b569ce7b67e331d33a>@@@?$__crt_seh_guarded_call@H@@QAEH$$QAV<lambda_800076c951b434888f4765a74a194fcc>@@AAV<lambda_4e60a939b0d047cfe11ddc22648dfba9>@@$$QAV<lambda_6dbb1268764f43b569ce7b67e331d33a>@@@Z 1000b09a f i libucrt:onexit.obj
 0001:0000a0eb       ??$?RV<lambda_995298e7d72eb4c2aab26c0585b3abe5>@@AAV<lambda_275893d493268fdec8709772e3fcec0e>@@V<lambda_293819299cbf9a7022e18b56a874bb5c>@@@?$__crt_seh_guarded_call@H@@QAEH$$QAV<lambda_995298e7d72eb4c2aab26c0585b3abe5>@@AAV<lambda_275893d493268fdec8709772e3fcec0e>@@$$QAV<lambda_293819299cbf9a7022e18b56a874bb5c>@@@Z 1000b0eb f i libucrt:onexit.obj
 0001:0000a13c       ??$__acrt_lock_and_call@V<lambda_275893d493268fdec8709772e3fcec0e>@@@@YAHW4__acrt_lock_id@@$$QAV<lambda_275893d493268fdec8709772e3fcec0e>@@@Z 1000b13c f i libucrt:onexit.obj
 0001:0000a164       ??$__acrt_lock_and_call@V<lambda_4e60a939b0d047cfe11ddc22648dfba9>@@@@YAHW4__acrt_lock_id@@$$QAV<lambda_4e60a939b0d047cfe11ddc22648dfba9>@@@Z 1000b164 f i libucrt:onexit.obj
 0001:0000a18c       ??$__crt_fast_encode_pointer@P6AHXZ@@YAP6AHXZQ6AHXZ@Z 1000b18c f i libucrt:onexit.obj
 0001:0000a40c       __crt_atexit               1000b40c f   libucrt:onexit.obj
 0001:0000a422       __execute_onexit_table     1000b422 f   libucrt:onexit.obj
 0001:0000a43f       __initialize_onexit_table  1000b43f f   libucrt:onexit.obj
 0001:0000a47c       __register_onexit_function 1000b47c f   libucrt:onexit.obj
 0001:0000a4cc       ___acrt_uninitialize_command_line 1000b4cc f   libucrt:argv_data.obj
 0001:0000a594       ?initialize@?$dual_state_global@PAU__crt_locale_data@@@__crt_state_management@@QAEXQAU__crt_locale_data@@@Z 1000b594 f i libucrt:initialization.obj
 0001:0000a594       ?initialize@?$dual_state_global@P6AXH@Z@__crt_state_management@@QAEXQ6AXH@Z@Z 1000b594 f i libucrt:signal.obj
 0001:0000a594       ?initialize@?$dual_state_global@P6AHPAU_exception@@@Z@__crt_state_management@@QAEXQ6AHPAU_exception@@@Z@Z 1000b594 f i libucrt:matherr.obj
 0001:0000a594       ?initialize@?$dual_state_global@P6AXPB_W00II@Z@__crt_state_management@@QAEXQ6AXPB_W00II@Z@Z 1000b594 f i libucrt:invalid_parameter.obj
 0001:0000a594       ?initialize@?$dual_state_global@PAPAD@__crt_state_management@@QAEXQAPAD@Z 1000b594 f i libucrt:environment_initialization.obj
 0001:0000a594       ?initialize@?$dual_state_global@P6AHI@Z@__crt_state_management@@QAEXQ6AHI@Z@Z 1000b594 f i libucrt:new_handler.obj
 0001:0000a5c5       ___acrt_initialize         1000b5c5 f   libucrt:initialization.obj
 0001:0000a5d7       ___acrt_thread_attach      1000b5d7 f   libucrt:initialization.obj
 0001:0000a5e2       ___acrt_thread_detach      1000b5e2 f   libucrt:initialization.obj
 0001:0000a5ea       ___acrt_uninitialize       1000b5ea f   libucrt:initialization.obj
 0001:0000a5fc       ___acrt_uninitialize_critical 1000b5fc f   libucrt:initialization.obj
 0001:0000a60e       __initterm                 1000b60e f   libucrt:initterm.obj
 0001:0000a66a       __initterm_e               1000b66a f   libucrt:initterm.obj
 0001:0000a6af       _terminate                 1000b6af f   libucrt:terminate.obj
 0001:0000a6eb       __free_base                1000b6eb f   libucrt:free_base.obj
 0001:0000a725       __malloc_base              1000b725 f   libucrt:malloc_base.obj
 0001:0000a773       _strcpy_s                  1000b773 f   libucrt:strcpy_s.obj
 0001:0000a7cd       __chvalidchk_l             1000b7cd f i libucrt:atox.obj
 0001:0000a7f7       __ischartype_l             1000b7f7 f i libucrt:atox.obj
 0001:0000a82a       _abort                     1000b82a f   libucrt:abort.obj
 0001:0000a86d       __calloc_base              1000b86d f   libucrt:calloc_base.obj
 0001:0000a8ca       ___acrt_errno_from_os_error 1000b8ca f   libucrt:errno.obj
 0001:0000a90d       ___acrt_errno_map_os_error 1000b90d f   libucrt:errno.obj
 0001:0000a930       ___doserrno                1000b930 f   libucrt:errno.obj
 0001:0000a943       __errno                    1000b943 f   libucrt:errno.obj
 0001:0000a956       ___acrt_initialize_stdio   1000b956 f   libucrt:_file.obj
 0001:0000aa1e       ___acrt_iob_func           1000ba1e f   libucrt:_file.obj
 0001:0000aa2e       ___acrt_uninitialize_stdio 1000ba2e f   libucrt:_file.obj
 0001:0000aa7a       __lock_file                1000ba7a f   libucrt:_file.obj
 0001:0000aa8e       __unlock_file              1000ba8e f   libucrt:_file.obj
 0001:0000aaa2       __fileno                   1000baa2 f   libucrt:fileno.obj
 0001:0000ac49       ___acrt_stdio_refill_and_read_narrow_nolock 1000bc49 f   libucrt:_filbuf.obj
 0001:0000adc0       ___acrt_initialize_lowio   1000bdc0 f   libucrt:ioinit.obj
 0001:0000ae16       ___acrt_uninitialize_lowio 1000be16 f   libucrt:ioinit.obj
 0001:0000ae42       ??$?RV<lambda_3518db117f0e7cdb002338c5d3c47b6c>@@AAV<lambda_b2ea41f6bbb362cd97d94c6828d90b61>@@V<lambda_abdedf541bb04549bc734292b4a045d4>@@@?$__crt_seh_guarded_call@X@@QAEX$$QAV<lambda_3518db117f0e7cdb002338c5d3c47b6c>@@AAV<lambda_b2ea41f6bbb362cd97d94c6828d90b61>@@$$QAV<lambda_abdedf541bb04549bc734292b4a045d4>@@@Z 1000be42 f i libucrt:per_thread_data.obj
 0001:0000ae92       ??$?RV<lambda_51b6e8b1eb166f2a3faf91f424b38130>@@AAV<lambda_6250bd4b2a391816dd638c3bf72b0bcb>@@V<lambda_0b5a4a3e68152e1d9b943535f5f47bed>@@@?$__crt_seh_guarded_call@X@@QAEX$$QAV<lambda_51b6e8b1eb166f2a3faf91f424b38130>@@AAV<lambda_6250bd4b2a391816dd638c3bf72b0bcb>@@$$QAV<lambda_0b5a4a3e68152e1d9b943535f5f47bed>@@@Z 1000be92 f i libucrt:per_thread_data.obj
 0001:0000aef3       ??$?RV<lambda_5b71d36f03204c0beab531769a5b5694>@@AAV<lambda_be2b3da3f62db62e9dad5dc70221a656>@@V<lambda_8f9ce462984622f9bf76b59e2aaaf805>@@@?$__crt_seh_guarded_call@X@@QAEX$$QAV<lambda_5b71d36f03204c0beab531769a5b5694>@@AAV<lambda_be2b3da3f62db62e9dad5dc70221a656>@@$$QAV<lambda_8f9ce462984622f9bf76b59e2aaaf805>@@@Z 1000bef3 f i libucrt:per_thread_data.obj
 0001:0000af3e       ??$?RV<lambda_9df27f884b057bc3edfc946cb5b7cf47>@@AAV<lambda_e69574bed617af4e071282c136b37893>@@V<lambda_cc0d902bcbbeb830f749456577db4721>@@@?$__crt_seh_guarded_call@X@@QAEX$$QAV<lambda_9df27f884b057bc3edfc946cb5b7cf47>@@AAV<lambda_e69574bed617af4e071282c136b37893>@@$$QAV<lambda_cc0d902bcbbeb830f749456577db4721>@@@Z 1000bf3e f i libucrt:per_thread_data.obj
 0001:0000af86       ??$__acrt_lock_and_call@V<lambda_6250bd4b2a391816dd638c3bf72b0bcb>@@@@YAXW4__acrt_lock_id@@$$QAV<lambda_6250bd4b2a391816dd638c3bf72b0bcb>@@@Z 1000bf86 f i libucrt:per_thread_data.obj
 0001:0000afae       ??$__acrt_lock_and_call@V<lambda_b2ea41f6bbb362cd97d94c6828d90b61>@@@@YAXW4__acrt_lock_id@@$$QAV<lambda_b2ea41f6bbb362cd97d94c6828d90b61>@@@Z 1000bfae f i libucrt:per_thread_data.obj
 0001:0000afd6       ??$__acrt_lock_and_call@V<lambda_be2b3da3f62db62e9dad5dc70221a656>@@@@YAXW4__acrt_lock_id@@$$QAV<lambda_be2b3da3f62db62e9dad5dc70221a656>@@@Z 1000bfd6 f i libucrt:per_thread_data.obj
 0001:0000affe       ??$__acrt_lock_and_call@V<lambda_e69574bed617af4e071282c136b37893>@@@@YAXW4__acrt_lock_id@@$$QAV<lambda_e69574bed617af4e071282c136b37893>@@@Z 1000bffe f i libucrt:per_thread_data.obj
 0001:0000b1b4       ___acrt_freeptd            1000c1b4 f   libucrt:per_thread_data.obj
 0001:0000b1e0       ___acrt_getptd             1000c1e0 f   libucrt:per_thread_data.obj
 0001:0000b264       ___acrt_getptd_noexit      1000c264 f   libucrt:per_thread_data.obj
 0001:0000b2e9       ___acrt_initialize_ptd     1000c2e9 f   libucrt:per_thread_data.obj
 0001:0000b315       ___acrt_uninitialize_ptd   1000c315 f   libucrt:per_thread_data.obj
 0001:0000b496       __tolower_l                1000c496 f   libucrt:tolower_toupper.obj
 0001:0000b4b0       ___acrt_update_locale_info 1000c4b0 f   libucrt:locale_update.obj
 0001:0000b4dd       ___acrt_update_multibyte_info 1000c4dd f   libucrt:locale_update.obj
 0001:0000b50a       ___acrt_set_locale_changed 1000c50a f   libucrt:wsetlocale.obj
 0001:0000b515       ___acrt_uninitialize_locale 1000c515 f   libucrt:wsetlocale.obj
 0001:0000b567       ___acrt_initialize_locks   1000c567 f   libucrt:locks.obj
 0001:0000b5a8       ___acrt_lock               1000c5a8 f   libucrt:locks.obj
 0001:0000b5bf       ___acrt_uninitialize_locks 1000c5bf f   libucrt:locks.obj
 0001:0000b5f0       ___acrt_unlock             1000c5f0 f   libucrt:locks.obj
 0001:0000b71e       ___acrt_FlsAlloc@4         1000c71e f   libucrt:winapi_thunks.obj
 0001:0000b774       ___acrt_FlsFree@4          1000c774 f   libucrt:winapi_thunks.obj
 0001:0000b7ca       ___acrt_FlsGetValue@4      1000c7ca f   libucrt:winapi_thunks.obj
 0001:0000b820       ___acrt_FlsSetValue@8      1000c820 f   libucrt:winapi_thunks.obj
 0001:0000b879       ___acrt_InitializeCriticalSectionEx@12 1000c879 f   libucrt:winapi_thunks.obj
 0001:0000b8db       ___acrt_LCMapStringEx@36   1000c8db f   libucrt:winapi_thunks.obj
 0001:0000b963       ___acrt_LocaleNameToLCID@8 1000c963 f   libucrt:winapi_thunks.obj
 0001:0000b9bf       ___acrt_initialize_winapi_thunks 1000c9bf f   libucrt:winapi_thunks.obj
 0001:0000b9e5       ___acrt_is_packaged_app    1000c9e5 f   libucrt:winapi_thunks.obj
 0001:0000ba6c       ___acrt_uninitialize_winapi_thunks 1000ca6c f   libucrt:winapi_thunks.obj
 0001:0000be64       ??1?$argument_list@D@?A0xb0e4b824@@QAE@XZ 1000ce64 f i libucrt:argv_wildcards.obj
 0001:0000be89       ?append@?$argument_list@D@?A0xb0e4b824@@QAEHQAD@Z 1000ce89 f i libucrt:argv_wildcards.obj
 0001:0000bebe       ?expand_if_necessary@?$argument_list@D@?A0xb0e4b824@@AAEHXZ 1000cebe f i libucrt:argv_wildcards.obj
 0001:0000bf45       ___acrt_expand_narrow_argv_wildcards 1000cf45 f   libucrt:argv_wildcards.obj
 0001:0000bf50       ??$?RV<lambda_978dc153c237d78434369da87b74ff60>@@AAV<lambda_ad1ced32f4ac17aa236e5ef05d6b3b7c>@@V<lambda_4a8533e2866a575feecb8298ce776b0d>@@@?$__crt_seh_guarded_call@X@@QAEX$$QAV<lambda_978dc153c237d78434369da87b74ff60>@@AAV<lambda_ad1ced32f4ac17aa236e5ef05d6b3b7c>@@$$QAV<lambda_4a8533e2866a575feecb8298ce776b0d>@@@Z 1000cf50 f i libucrt:mbctype.obj
 0001:0000bf93       ??$__acrt_lock_and_call@V<lambda_ad1ced32f4ac17aa236e5ef05d6b3b7c>@@@@YAXW4__acrt_lock_id@@$$QAV<lambda_ad1ced32f4ac17aa236e5ef05d6b3b7c>@@@Z 1000cf93 f i libucrt:mbctype.obj
 0001:0000c42a       ___acrt_initialize_multibyte 1000d42a f   libucrt:mbctype.obj
 0001:0000c448       ___acrt_update_thread_multibyte_data 1000d448 f   libucrt:mbctype.obj
 0001:0000c4ea       __setmbcp_nolock           1000d4ea f   libucrt:mbctype.obj
 0001:0000c7b5       __ismbblead                1000d7b5 f   libucrt:ismbbyte.obj
 0001:0000c7cd       ___acrt_initialize_command_line 1000d7cd f   libucrt:argv_data.obj
 0001:0000c81d       ___dcrt_get_narrow_environment_from_os 1000d81d f   libucrt:get_environment_from_os.obj
 0001:0000c8a0       __recalloc                 1000d8a0 f   libucrt:recalloc.obj
 0001:0000c8ab       __recalloc_base            1000d8ab f   libucrt:recalloc.obj
 0001:0000c918       ___acrt_initialize_heap    1000d918 f   libucrt:heap_handle.obj
 0001:0000c929       ___acrt_uninitialize_heap  1000d929 f   libucrt:heap_handle.obj
 0001:0000c933       ___acrt_execute_initializers 1000d933 f   libucrt:shared_initialization.obj
 0001:0000c9b6       ___acrt_execute_uninitializers 1000d9b6 f   libucrt:shared_initialization.obj
 0001:0000ca03       ??$?RV<lambda_a048d3beccc847880fc8490e18b82769>@@AAV<lambda_ec61778202f4f5fc7e7711acc23c3bca>@@V<lambda_f7496a158712204296dd6628a163878e>@@@?$__crt_seh_guarded_call@P6AXH@Z@@QAEP6AXH@Z$$QAV<lambda_a048d3beccc847880fc8490e18b82769>@@AAV<lambda_ec61778202f4f5fc7e7711acc23c3bca>@@$$QAV<lambda_f7496a158712204296dd6628a163878e>@@@Z 1000da03 f i libucrt:signal.obj
 0001:0000ca5d       ??$__acrt_lock_and_call@V<lambda_ec61778202f4f5fc7e7711acc23c3bca>@@@@YAP6AXH@ZW4__acrt_lock_id@@$$QAV<lambda_ec61778202f4f5fc7e7711acc23c3bca>@@@Z 1000da5d f i libucrt:signal.obj
 0001:0000caef       ___acrt_get_sigabrt_handler 1000daef f   libucrt:signal.obj
 0001:0000cb06       ___acrt_initialize_signal_handlers 1000db06 f   libucrt:signal.obj
 0001:0000cb41       ___fpecode                 1000db41 f   libucrt:signal.obj
 0001:0000cb4a       _raise                     1000db4a f   libucrt:signal.obj
 0001:0000cd52       ___acrt_has_user_matherr   1000dd52 f   libucrt:matherr.obj
 0001:0000cd6b       ___acrt_initialize_user_matherr 1000dd6b f   libucrt:matherr.obj
 0001:0000cd7f       ___acrt_invoke_user_matherr 1000dd7f f   libucrt:matherr.obj
 0001:0000cdc8       __query_new_mode           1000ddc8 f   libucrt:new_mode.obj
 0001:0000cdce       __mbtowc_l                 1000ddce f   libucrt:mbtowc.obj
 0001:0000cec8       _mbtowc                    1000dec8 f   libucrt:mbtowc.obj
 0001:0000cee2       ___pctype_func             1000dee2 f   libucrt:ctype.obj
 0001:0000cf08       __isctype_l                1000df08 f   libucrt:isctype.obj
 0001:0000cfdc       __fcloseall                1000dfdc f   libucrt:closeall.obj
 0001:0000d07c       ___acrt_stdio_flush_nolock 1000e07c f   libucrt:fflush.obj
 0001:0000d0e2       __fflush_nolock            1000e0e2 f   libucrt:fflush.obj
 0001:0000d129       __flushall                 1000e129 f   libucrt:fflush.obj
 0001:0000d20a       ___acrt_stdio_free_buffer_nolock 1000e20a f   libucrt:_freebuf.obj
 0001:0000d730       __read                     1000e730 f   libucrt:read.obj
 0001:0000d843       __read_nolock              1000e843 f   libucrt:read.obj
 0001:0000dbf8       ___acrt_stdio_allocate_buffer_nolock 1000ebf8 f   libucrt:_getbuf.obj
 0001:0000dc55       ___acrt_lowio_create_handle_array 1000ec55 f   libucrt:osfinfo.obj
 0001:0000dccf       ___acrt_lowio_destroy_handle_array 1000eccf f   libucrt:osfinfo.obj
 0001:0000dd04       ___acrt_lowio_ensure_fh_exists 1000ed04 f   libucrt:osfinfo.obj
 0001:0000dd9c       ___acrt_lowio_lock_fh      1000ed9c f   libucrt:osfinfo.obj
 0001:0000ddbf       ___acrt_lowio_unlock_fh    1000edbf f   libucrt:osfinfo.obj
 0001:0000dde2       __free_osfhnd              1000ede2 f   libucrt:osfinfo.obj
 0001:0000de73       __get_osfhandle            1000ee73 f   libucrt:osfinfo.obj
 0001:0000dedd       ___acrt_add_locale_ref     1000eedd f   libucrt:locale_refcounting.obj
 0001:0000df5a       ___acrt_free_locale        1000ef5a f   libucrt:locale_refcounting.obj
 0001:0000e0a4       ___acrt_locale_add_lc_time_reference 1000f0a4 f   libucrt:locale_refcounting.obj
 0001:0000e0cd       ___acrt_locale_free_lc_time_if_unreferenced 1000f0cd f   libucrt:locale_refcounting.obj
 0001:0000e0fd       ___acrt_locale_release_lc_time_reference 1000f0fd f   libucrt:locale_refcounting.obj
 0001:0000e126       ___acrt_release_locale_ref 1000f126 f   libucrt:locale_refcounting.obj
 0001:0000e1a7       ___acrt_update_thread_locale_data 1000f1a7 f   libucrt:locale_refcounting.obj
 0001:0000e21e       __updatetlocinfoEx_nolock  1000f21e f   libucrt:locale_refcounting.obj
 0001:0000e26e       __isleadbyte_l             1000f26e f i libucrt:_wctype.obj
 0001:0000e4c4       ___acrt_LCMapStringA       1000f4c4 f   libucrt:lcmapstringa.obj
 0001:0000e50f       __freea_crt                1000f50f f i libucrt:lcmapstringa.obj
 0001:0000e52f       ___acrt_locale_free_monetary 1000f52f f   libucrt:initmon.obj
 0001:0000e62d       ___acrt_locale_free_numeric 1000f62d f   libucrt:initnum.obj
 0001:0000e6d2       ___acrt_locale_free_time   1000f6d2 f   libucrt:inittime.obj
 0001:0000e7b6       ___acrt_GetStringTypeA     1000f7b6 f   libucrt:getstringtypea.obj
 0001:0000e98f       ___acrt_DownlevelLocaleNameToLCID 1000f98f f   libucrt:lcidtoname_downlevel.obj
 0001:0000eaa0       _qsort                     1000faa0 f   libucrt:qsort.obj
 0001:0000eeeb       _strncpy_s                 1000feeb f   libucrt:strncpy_s.obj
 0001:0000ef00       _strpbrk                   1000ff00 f   libucrt:strpbrk.obj
 0001:0000ef40       __mbsdec                   1000ff40 f   libucrt:mbsdec.obj
 0001:0000ef57       __mbsdec_l                 1000ff57 f   libucrt:mbsdec.obj
 0001:0000eff3       __msize                    1000fff3 f   libucrt:msize.obj
 0001:0000f026       __realloc_base             10010026 f   libucrt:realloc_base.obj
 0001:0000f08f       __isatty                   1001008f f   libucrt:isatty.obj
 0001:0000f0e5       __fclose_nolock            100100e5 f   libucrt:fclose.obj
 0001:0000f15b       _fclose                    1001015b f   libucrt:fclose.obj
 0001:0000f1db       ??$?RV<lambda_61cee617f5178ae960314fd4d05640a0>@@AAV<lambda_6978c1fb23f02e42e1d9e99668cc68aa>@@V<lambda_9cd88cf8ad10232537feb2133f08c833>@@@?$__crt_seh_guarded_call@H@@QAEH$$QAV<lambda_61cee617f5178ae960314fd4d05640a0>@@AAV<lambda_6978c1fb23f02e42e1d9e99668cc68aa>@@$$QAV<lambda_9cd88cf8ad10232537feb2133f08c833>@@@Z 100101db f i libucrt:commit.obj
 0001:0000f273       ??$__acrt_lowio_lock_fh_and_call@V<lambda_6978c1fb23f02e42e1d9e99668cc68aa>@@@@YAHH$$QAV<lambda_6978c1fb23f02e42e1d9e99668cc68aa>@@@Z 10010273 f i libucrt:commit.obj
 0001:0000f29b       __commit                   1001029b f   libucrt:commit.obj
 0001:0000f89a       __write                    1001089a f   libucrt:write.obj
 0001:0000f985       __write_nolock             10010985 f   libucrt:write.obj
 0001:0000fc0f       __lseeki64_nolock          10010c0f f   libucrt:lseek.obj
 0001:0000fc2a       __query_app_type           10010c2a f   libucrt:report_runtime_error.obj
 0001:0000fc30       ___strncnt                 10010c30 f   libucrt:strncnt.obj
 0001:0000fc50       _log10                     10010c50 f   libucrt:log10.obj
 0001:0000fc90       __CIlog10                  10010c90 f   libucrt:log10.obj
 0001:0000fccb       __CIlog10_default          10010ccb f   libucrt:log10.obj
 0001:0000fcdf       __log10_default            10010cdf     libucrt:log10.obj
 0001:0000fda0       _ceil                      10010da0 f   libucrt:ceil_pentium4.obj
 0001:0000fde0       __ceil_pentium4            10010de0 f   libucrt:ceil_pentium4.obj
 0001:0000febd       ??$?RV<lambda_123407a5e2ac06da108355a851863b7a>@@AAV<lambda_2fe9b910cf3cbf4a0ab98a02ba45b3ec>@@V<lambda_ae55bdf541ad94d75914d381c370e64d>@@@?$__crt_seh_guarded_call@H@@QAEH$$QAV<lambda_123407a5e2ac06da108355a851863b7a>@@AAV<lambda_2fe9b910cf3cbf4a0ab98a02ba45b3ec>@@$$QAV<lambda_ae55bdf541ad94d75914d381c370e64d>@@@Z 10010ebd f i libucrt:close.obj
 0001:0000ff3f       ??$__acrt_lowio_lock_fh_and_call@V<lambda_2fe9b910cf3cbf4a0ab98a02ba45b3ec>@@@@YAHH$$QAV<lambda_2fe9b910cf3cbf4a0ab98a02ba45b3ec>@@@Z 10010f3f f i libucrt:close.obj
 0001:0000ff67       __close                    10010f67 f   libucrt:close.obj
 0001:0000ffe6       __close_nolock             10010fe6 f   libucrt:close.obj
 0001:00010082       ?__acrt_stdio_free_stream@@YAXV__crt_stdio_stream@@@Z 10011082 f   libucrt:stream.obj
 0001:000100bd       __putwch_nolock            100110bd f   libucrt:putwch.obj
 0001:00010110       ___ascii_strnicmp          10011110 f   libucrt:_strnicm.obj
 0001:00010171       ___acrt_initialize_sse2    10011171 f   libucrt:mathfcns.obj
 0001:00010180       __CIlog10_pentium4         10011180 f   libucrt:log10_pentium4.obj
 0001:00010198       __log10_pentium4           10011198     libucrt:log10_pentium4.obj
 0001:00010421       __fFEXP                    10011421     libucrt:87tran.obj
 0001:00010478       __rtinfpopse               10011478     libucrt:87tran.obj
 0001:0001047a       __rtinfnpopse              1001147a     libucrt:87tran.obj
 0001:0001048a       __fFLN                     1001148a     libucrt:87tran.obj
 0001:0001053f       __rtinfpop                 1001153f     libucrt:87tran.obj
 0001:00010541       __rtinfnpop                10011541     libucrt:87tran.obj
 0001:0001055e       __ffexpm1                  1001155e     libucrt:87tran.obj
 0001:00010610       __trandisp1                10011610 f   libucrt:87disp.obj
 0001:00010677       __trandisp2                10011677 f   libucrt:87disp.obj
 0001:00010703       __rttospopde               10011703     libucrt:87disp.obj
 0001:00010708       __rttospop                 10011708     libucrt:87disp.obj
 0001:0001070a       __rtnospop                 1001170a     libucrt:87disp.obj
 0001:0001070c       __rttosnpop                1001170c     libucrt:87disp.obj
 0001:0001070d       __rtnospopde               1001170d     libucrt:87disp.obj
 0001:00010714       __rtzeropop                10011714     libucrt:87disp.obj
 0001:00010716       __rtzeronpop               10011716     libucrt:87disp.obj
 0001:0001071b       __rtzerospop               1001171b     libucrt:87disp.obj
 0001:00010728       __rtonepop                 10011728     libucrt:87disp.obj
 0001:0001072a       __rtonenpop                1001172a     libucrt:87disp.obj
 0001:0001072f       __tosnan1                  1001172f     libucrt:87disp.obj
 0001:0001075a       __nosnan2                  1001175a     libucrt:87disp.obj
 0001:0001075c       __tosnan2                  1001175c     libucrt:87disp.obj
 0001:00010784       __nan2                     10011784     libucrt:87disp.obj
 0001:000107c3       __rtindfpop                100117c3     libucrt:87disp.obj
 0001:000107c5       __rtindfnpop               100117c5     libucrt:87disp.obj
 0001:000107d6       __rttosnpopde              100117d6     libucrt:87disp.obj
 0001:000107e0       __rtatan2inf               100117e0     libucrt:87disp.obj
 0001:000107fd       __rtchsifneg               100117fd     libucrt:87disp.obj
 0001:00010810       __twoToTOS                 10011810 f   libucrt:common.obj
 0001:00010825       __load_CW                  10011825 f   libucrt:common.obj
 0001:0001083c       __convertTOStoQNaN         1001183c f   libucrt:common.obj
 0001:00010855       __fload_withFB             10011855 f   libucrt:common.obj
 0001:00010898       __checkTOS_withFB          10011898 f   libucrt:common.obj
 0001:000108ae       __fast_exit                100118ae f   libucrt:common.obj
 0001:000108bb       __math_exit                100118bb f   libucrt:common.obj
 0001:000108e5       __check_overflow_exit      100118e5 f   libucrt:common.obj
 0001:000108f9       __check_range_exit         100118f9 f   libucrt:common.obj
 0001:000109a0       __startTwoArgErrorHandling 100119a0 f   libucrt:genexcep.obj
 0001:000109b7       __startOneArgErrorHandling 100119b7 f   libucrt:genexcep.obj
 0001:000109f3       ___libm_error_support      100119f3 f   libucrt:libm_error.obj
 0001:00010c0b       __ceil_default             10011c0b f   libucrt:ceil.obj
 0001:00010cc4       ___dcrt_lowio_initialize_console_output 10011cc4 f   libucrt:initcon.obj
 0001:00010ce3       ___dcrt_terminate_console_output 10011ce3 f   libucrt:initcon.obj
 0001:00010cfa       __clrfp                    10011cfa f   libucrt:fpctrl.obj
 0001:00010d0d       __ctrlfp                   10011d0d f   libucrt:fpctrl.obj
 0001:00010d39       __set_statfp               10011d39 f   libucrt:fpctrl.obj
 0001:00010d94       __statfp                   10011d94 f   libucrt:fpctrl.obj
 0001:00010da6       __d_inttype                10011da6 f   libucrt:powhlp.obj
 0001:00010e10       __powhlp                   10011e10 f   libucrt:powhlp.obj
 0001:00010f3b       __87except                 10011f3b f   libucrt:87except.obj
 0001:00011046       __frnd                     10012046 f   libucrt:frnd.obj
 0001:0001105c       __errcode                  1001205c f   libucrt:fpexcept.obj
 0001:00011090       __except1                  10012090 f   libucrt:fpexcept.obj
 0001:0001115e       __handle_exc               1001215e f   libucrt:fpexcept.obj
 0001:0001133e       __raise_exc                1001233e f   libucrt:fpexcept.obj
 0001:00011361       __raise_exc_ex             10012361 f   libucrt:fpexcept.obj
 0001:00011652       __set_errno_from_matherr   10012652 f   libucrt:fpexcept.obj
 0001:00011681       __umatherr                 10012681 f   libucrt:fpexcept.obj
 0001:00011723       __decomp                   10012723 f   libucrt:util.obj
 0001:000117f7       __set_exp                  100127f7 f   libucrt:util.obj
 0001:00011826       __sptype                   10012826 f   libucrt:util.obj
 0001:00011884       __fpclass                  10012884 f   libucrt:ieeemisc.obj
 0001:00011928       _IsProcessorFeaturePresent@4 10012928 f   kernel32:KERNEL32.dll
 0001:0001192e       _RtlUnwind@16              1001292e f   kernel32:KERNEL32.dll
 0001:00011934       ?DloadAcquireSectionWriteAccess@@YGXXZ 10012934 f i DelayImp:delayhlp.obj
 0001:00011967       ?DloadGetSRWLockFunctionPointers@@YGEXZ 10012967 f i DelayImp:delayhlp.obj
 0001:000119e2       ?DloadLock@@YGXXZ          100129e2 f i DelayImp:delayhlp.obj
 0001:00011a3f       ?DloadMakePermanentImageCommit@@YGXPAXK@Z 10012a3f f i DelayImp:delayhlp.obj
 0001:00011ab1       ?DloadObtainSection@@YGPAXPAK0@Z 10012ab1 f i DelayImp:delayhlp.obj
 0001:00011b34       ?DloadProtectSection@@YGXKPAK@Z 10012b34 f i DelayImp:delayhlp.obj
 0001:00011ba4       ?DloadReleaseSectionWriteAccess@@YGXXZ 10012ba4 f i DelayImp:delayhlp.obj
 0001:00011bdc       ?DloadUnlock@@YGXXZ        10012bdc f i DelayImp:delayhlp.obj
 0001:00011c26       ___delayLoadHelper2@8      10012c26 f   DelayImp:delayhlp.obj
 0001:00011eb0       __FindPESection            10012eb0 f   LIBCMT:pesect.obj
 0001:00011f00       __IsNonwritableInCurrentImage 10012f00 f   LIBCMT:pesect.obj
 0001:00011fc0       __ValidateImageBase        10012fc0 f   LIBCMT:pesect.obj
 0001:00012000       __aulldvrm                 10013000 f   LIBCMT:ulldvrm.obj
 0001:000120a0       __SEH_prolog4_GS           100130a0 f   LIBCMT:_sehprolg4gs_.obj
 0001:000120e9       __SEH_epilog4_GS           100130e9 f   LIBCMT:_sehprolg4gs_.obj
 0001:00012100       __allmul                   10013100 f   LIBCMT:llmul.obj
 0001:00012140       __alldvrm                  10013140 f   LIBCMT:lldvrm.obj
 0001:00012220       __aullshr                  10013220 f   LIBCMT:ullshr.obj
 0001:00012240       __alloca_probe_16          10013240 f   LIBCMT:alloca16.obj
 0001:00012256       __alloca_probe_8           10013256     LIBCMT:alloca16.obj
 0001:00012270       __allshl                   10013270 f   LIBCMT:llshl.obj
 0001:00012290       __ftol2_sse                10013290 f   LIBCMT:_ftol2_.obj
 0001:00012299       __ftol2_pentium4           10013299 f   LIBCMT:_ftol2_.obj
 0001:000122ac       __ftol2_sse_excpt          100132ac f   LIBCMT:_ftol2_.obj
 0001:000122d0       __ftol2                    100132d0 f   LIBCMT:_ftol2_.obj
 0001:00012350       __chkstk                   10013350 f   LIBCMT:chkstk.obj
 0001:00012350       __alloca_probe             10013350 f   LIBCMT:chkstk.obj
 0001:00012380       _memcpy                    10013380 f   libvcruntime:memcpy.obj
 0001:00012900       _strchr                    10013900 f   libvcruntime:strchr.obj
 0001:0001296e       ___from_strstr_to_strchr   1001396e     libvcruntime:strchr.obj
 0001:00012a30       _strrchr                   10013a30 f   libvcruntime:strrchr.obj
 0001:00012b70       __ftoui3                   10013b70 f   LIBCMT:_ftol3_.obj
 0001:00012b7f       __ftoul3                   10013b7f f   LIBCMT:_ftol3_.obj
 0001:00012b8e       __ftol3                    10013b8e f   LIBCMT:_ftol3_.obj
 0001:00012b9b       __ftol3_NaN                10013b9b f   LIBCMT:_ftol3_.obj
 0001:00012bb3       __ftol3_work               10013bb3 f   LIBCMT:_ftol3_.obj
 0001:00012c39       __ftol3_common             10013c39 f   LIBCMT:_ftol3_.obj
 0001:00012cfb       __ftol3_arg_error          10013cfb f   LIBCMT:_ftol3_.obj
 0001:00012d0d       __ftol3_except             10013d0d f   LIBCMT:_ftol3_.obj
 0001:00012d51       __dtoui3                   10013d51 f   LIBCMT:_ftol3_.obj
 0001:00012d60       __dtoul3                   10013d60 f   LIBCMT:_ftol3_.obj
 0001:00012d6f       __dtol3                    10013d6f f   LIBCMT:_ftol3_.obj
 0001:00012d7c       __dtol3_NaN                10013d7c f   LIBCMT:_ftol3_.obj
 0001:00012d99       __dtol3_work               10013d99 f   LIBCMT:_ftol3_.obj
 0001:00012e80       __ultod3                   10013e80 f   LIBCMT:_ftol3_.obj
 0001:00012ec0       __ltod3                    10013ec0 f   LIBCMT:_ftol3_.obj
 0002:00000000       __imp__WriteProcessMemory@20 10014000     kernel32:KERNEL32.dll
 0002:00000004       __imp__GetProcessId@4      10014004     kernel32:KERNEL32.dll
 0002:00000008       __imp__WaitForSingleObject@8 10014008     kernel32:KERNEL32.dll
 0002:0000000c       __imp__GetExitCodeThread@8 1001400c     kernel32:KERNEL32.dll
 0002:00000010       __imp__GetLastError@0      10014010     kernel32:KERNEL32.dll
 0002:00000014       __imp__VirtualProtectEx@20 10014014     kernel32:KERNEL32.dll
 0002:00000018       __imp__VirtualAllocEx@20   10014018     kernel32:KERNEL32.dll
 0002:0000001c       __imp__ReadProcessMemory@20 1001401c     kernel32:KERNEL32.dll
 0002:00000020       __imp__CreateRemoteThread@28 10014020     kernel32:KERNEL32.dll
 0002:00000024       __imp__VirtualFreeEx@16    10014024     kernel32:KERNEL32.dll
 0002:00000028       __imp__Process32First@8    10014028     kernel32:KERNEL32.dll
 0002:0000002c       __imp__OpenProcess@12      1001402c     kernel32:KERNEL32.dll
 0002:00000030       __imp__CreateToolhelp32Snapshot@8 10014030     kernel32:KERNEL32.dll
 0002:00000034       __imp__Process32Next@8     10014034     kernel32:KERNEL32.dll
 0002:00000038       __imp__CloseHandle@4       10014038     kernel32:KERNEL32.dll
 0002:0000003c       __imp__Module32Next@8      1001403c     kernel32:KERNEL32.dll
 0002:00000040       __imp__Module32First@8     10014040     kernel32:KERNEL32.dll
 0002:00000044       __imp__GetModuleHandleA@4  10014044     kernel32:KERNEL32.dll
 0002:00000048       __imp__UnhandledExceptionFilter@4 10014048     kernel32:KERNEL32.dll
 0002:0000004c       __imp__SetUnhandledExceptionFilter@4 1001404c     kernel32:KERNEL32.dll
 0002:00000050       __imp__GetCurrentProcess@0 10014050     kernel32:KERNEL32.dll
 0002:00000054       __imp__TerminateProcess@8  10014054     kernel32:KERNEL32.dll
 0002:00000058       __imp__IsProcessorFeaturePresent@4 10014058     kernel32:KERNEL32.dll
 0002:0000005c       __imp__IsDebuggerPresent@0 1001405c     kernel32:KERNEL32.dll
 0002:00000060       __imp__GetStartupInfoW@4   10014060     kernel32:KERNEL32.dll
 0002:00000064       __imp__GetModuleHandleW@4  10014064     kernel32:KERNEL32.dll
 0002:00000068       __imp__QueryPerformanceCounter@4 10014068     kernel32:KERNEL32.dll
 0002:0000006c       __imp__GetCurrentProcessId@0 1001406c     kernel32:KERNEL32.dll
 0002:00000070       __imp__GetCurrentThreadId@0 10014070     kernel32:KERNEL32.dll
 0002:00000074       __imp__GetSystemTimeAsFileTime@4 10014074     kernel32:KERNEL32.dll
 0002:00000078       __imp__InitializeSListHead@4 10014078     kernel32:KERNEL32.dll
 0002:0000007c       __imp__InterlockedFlushSList@4 1001407c     kernel32:KERNEL32.dll
 0002:00000080       __imp__RaiseException@16   10014080     kernel32:KERNEL32.dll
 0002:00000084       __imp__SetLastError@4      10014084     kernel32:KERNEL32.dll
 0002:00000088       __imp__EnterCriticalSection@4 10014088     kernel32:KERNEL32.dll
 0002:0000008c       __imp__LeaveCriticalSection@4 1001408c     kernel32:KERNEL32.dll
 0002:00000090       __imp__DeleteCriticalSection@4 10014090     kernel32:KERNEL32.dll
 0002:00000094       __imp__InitializeCriticalSectionAndSpinCount@8 10014094     kernel32:KERNEL32.dll
 0002:00000098       __imp__TlsAlloc@0          10014098     kernel32:KERNEL32.dll
 0002:0000009c       __imp__TlsGetValue@4       1001409c     kernel32:KERNEL32.dll
 0002:000000a0       __imp__TlsSetValue@8       100140a0     kernel32:KERNEL32.dll
 0002:000000a4       __imp__TlsFree@4           100140a4     kernel32:KERNEL32.dll
 0002:000000a8       __imp__FreeLibrary@4       100140a8     kernel32:KERNEL32.dll
 0002:000000ac       __imp__GetProcAddress@8    100140ac     kernel32:KERNEL32.dll
 0002:000000b0       __imp__LoadLibraryExW@12   100140b0     kernel32:KERNEL32.dll
 0002:000000b4       __imp__RtlUnwind@16        100140b4     kernel32:KERNEL32.dll
 0002:000000b8       __imp__ExitProcess@4       100140b8     kernel32:KERNEL32.dll
 0002:000000bc       __imp__GetModuleHandleExW@12 100140bc     kernel32:KERNEL32.dll
 0002:000000c0       __imp__GetModuleFileNameA@12 100140c0     kernel32:KERNEL32.dll
 0002:000000c4       __imp__MultiByteToWideChar@24 100140c4     kernel32:KERNEL32.dll
 0002:000000c8       __imp__WideCharToMultiByte@32 100140c8     kernel32:KERNEL32.dll
 0002:000000cc       __imp__HeapFree@12         100140cc     kernel32:KERNEL32.dll
 0002:000000d0       __imp__HeapAlloc@12        100140d0     kernel32:KERNEL32.dll
 0002:000000d4       __imp__GetStdHandle@4      100140d4     kernel32:KERNEL32.dll
 0002:000000d8       __imp__GetFileType@4       100140d8     kernel32:KERNEL32.dll
 0002:000000dc       __imp__GetACP@0            100140dc     kernel32:KERNEL32.dll
 0002:000000e0       __imp__LCMapStringW@24     100140e0     kernel32:KERNEL32.dll
 0002:000000e4       __imp__FindClose@4         100140e4     kernel32:KERNEL32.dll
 0002:000000e8       __imp__FindFirstFileExA@24 100140e8     kernel32:KERNEL32.dll
 0002:000000ec       __imp__FindNextFileA@8     100140ec     kernel32:KERNEL32.dll
 0002:000000f0       __imp__IsValidCodePage@4   100140f0     kernel32:KERNEL32.dll
 0002:000000f4       __imp__GetOEMCP@0          100140f4     kernel32:KERNEL32.dll
 0002:000000f8       __imp__GetCPInfo@8         100140f8     kernel32:KERNEL32.dll
 0002:000000fc       __imp__GetCommandLineA@0   100140fc     kernel32:KERNEL32.dll
 0002:00000100       __imp__GetCommandLineW@0   10014100     kernel32:KERNEL32.dll
 0002:00000104       __imp__GetEnvironmentStringsW@0 10014104     kernel32:KERNEL32.dll
 0002:00000108       __imp__FreeEnvironmentStringsW@4 10014108     kernel32:KERNEL32.dll
 0002:0000010c       __imp__GetProcessHeap@0    1001410c     kernel32:KERNEL32.dll
 0002:00000110       __imp__GetStringTypeW@16   10014110     kernel32:KERNEL32.dll
 0002:00000114       __imp__ReadFile@20         10014114     kernel32:KERNEL32.dll
 0002:00000118       __imp__GetConsoleMode@8    10014118     kernel32:KERNEL32.dll
 0002:0000011c       __imp__ReadConsoleW@20     1001411c     kernel32:KERNEL32.dll
 0002:00000120       __imp__SetStdHandle@8      10014120     kernel32:KERNEL32.dll
 0002:00000124       __imp__HeapSize@12         10014124     kernel32:KERNEL32.dll
 0002:00000128       __imp__HeapReAlloc@16      10014128     kernel32:KERNEL32.dll
 0002:0000012c       __imp__FlushFileBuffers@4  1001412c     kernel32:KERNEL32.dll
 0002:00000130       __imp__WriteFile@20        10014130     kernel32:KERNEL32.dll
 0002:00000134       __imp__GetConsoleCP@0      10014134     kernel32:KERNEL32.dll
 0002:00000138       __imp__SetFilePointerEx@20 10014138     kernel32:KERNEL32.dll
 0002:0000013c       __imp__WriteConsoleW@20    1001413c     kernel32:KERNEL32.dll
 0002:00000140       __imp__DecodePointer@4     10014140     kernel32:KERNEL32.dll
 0002:00000144       __imp__CreateFileW@28      10014144     kernel32:KERNEL32.dll
 0002:00000148       __imp__GetSystemInfo@4     10014148     kernel32:KERNEL32.dll
 0002:0000014c       __imp__VirtualProtect@16   1001414c     kernel32:KERNEL32.dll
 0002:00000150       __imp__VirtualQuery@12     10014150     kernel32:KERNEL32.dll
 0002:00000154       __imp__LoadLibraryExA@12   10014154     kernel32:KERNEL32.dll
 0002:00000158       \177KERNEL32_NULL_THUNK_DATA 10014158     kernel32:KERNEL32.dll
 0002:0000015c       ___guard_check_icall_fptr  1001415c     LIBCMT:guard_support.obj
 0002:00000160       ___xc_a                    10014160     LIBCMT:initializers.obj
 0002:00000170       __register_memoryjs_       10014170     memoryjs.obj
 0002:00000174       ___xc_z                    10014174     LIBCMT:initializers.obj
 0002:00000178       ___xi_a                    10014178     LIBCMT:initializers.obj
 0002:0000017c       ___acrt_stdio_initializer  1001417c     libucrt:stdio_initializer.obj
 0002:00000180       ___acrt_multibyte_initializer 10014180     libucrt:multibyte_initializer.obj
 0002:00000184       ___acrt_tran_sse2_initializer 10014184     libucrt:sse2_initializer.obj
 0002:00000188       ___xi_z                    10014188     LIBCMT:initializers.obj
 0002:0000018c       ___xp_a                    1001418c     LIBCMT:initializers.obj
 0002:00000190       ___acrt_locale_terminator  10014190     libucrt:locale_initializer.obj
 0002:00000194       ___dcrt_console_output_terminator 10014194     libucrt:console_output_initializer.obj
 0002:00000198       ___acrt_stdio_terminator   10014198     libucrt:stdio_initializer.obj
 0002:0000019c       ___xp_z                    1001419c     LIBCMT:initializers.obj
 0002:000001a0       ___xt_a                    100141a0     LIBCMT:initializers.obj
 0002:000001a4       ___xt_z                    100141a4     LIBCMT:initializers.obj
 0002:000001b0       __sz_node_exe              100141b0     node:node.exe
 0002:000001c0       ??_7exception@std@@6B@     100141c0     libcpmt:xthrow.obj
 0002:000001c8       ??_C@_0BC@EOODALEL@Unknown?5exception?$AA@ 100141c8     libcpmt:xthrow.obj
 0002:000001e0       ??_7bad_alloc@std@@6B@     100141e0     libcpmt:xthrow.obj
 0002:000001e8       ??_C@_0P@GHFPNOJB@bad?5allocation?$AA@ 100141e8     libcpmt:xthrow.obj
 0002:000001fc       ??_7logic_error@std@@6B@   100141fc     libcpmt:xthrow.obj
 0002:00000208       ??_7length_error@std@@6B@  10014208     libcpmt:xthrow.obj
 0002:00000214       ??_7out_of_range@std@@6B@  10014214     libcpmt:xthrow.obj
 0002:00000220       ??_7type_info@@6B@         10014220     LIBCMT:std_type_info_static.obj
 0002:00000224       __pDefaultRawDllMain       10014224     LIBCMT:dll_dllmain.obj
 0002:00000224       __pRawDllMain              10014224     LIBCMT:dll_dllmain.obj
 0002:00000234       ??_7bad_array_new_length@std@@6B@ 10014234     LIBCMT:throw_bad_alloc.obj
 0002:0000023c       ??_C@_0BF@KINCDENJ@bad?5array?5new?5length?$AA@ 1001423c     LIBCMT:throw_bad_alloc.obj
 0002:00000408       ??_C@_08EHJDFFNH@__based?$CI?$AA@ 10014408     libvcruntime:undname.obj
 0002:00000414       ??_C@_07KOLFKCDI@__cdecl?$AA@ 10014414     libvcruntime:undname.obj
 0002:0000041c       ??_C@_08GHMPAG@__pascal?$AA@ 1001441c     libvcruntime:undname.obj
 0002:00000428       ??_C@_09IFJBGAPI@__stdcall?$AA@ 10014428     libvcruntime:undname.obj
 0002:00000434       ??_C@_0L@NPHFGOKO@__thiscall?$AA@ 10014434     libvcruntime:undname.obj
 0002:00000440       ??_C@_0L@JMKHOMEK@__fastcall?$AA@ 10014440     libvcruntime:undname.obj
 0002:0000044c       ??_C@_0N@BCKKPABJ@__vectorcall?$AA@ 1001444c     libvcruntime:undname.obj
 0002:0000045c       ??_C@_09HIJEGCPM@__clrcall?$AA@ 1001445c     libvcruntime:undname.obj
 0002:00000468       ??_C@_06GHPCKEAG@__eabi?$AA@ 10014468     libvcruntime:undname.obj
 0002:00000470       ??_C@_07JOMMBBKO@__ptr64?$AA@ 10014470     libvcruntime:undname.obj
 0002:00000478       ??_C@_0L@PILCLIHE@__restrict?$AA@ 10014478     libvcruntime:undname.obj
 0002:00000484       ??_C@_0M@GFIIJFMG@__unaligned?$AA@ 10014484     libvcruntime:undname.obj
 0002:00000490       ??_C@_09DHDLOLLB@restrict?$CI?$AA@ 10014490     libvcruntime:undname.obj
 0002:0000049c       ??_C@_04NIHEBCM@?5new?$AA@ 1001449c     libvcruntime:undname.obj
 0002:000004a4       ??_C@_07FPCDHGMM@?5delete?$AA@ 100144a4     libvcruntime:undname.obj
 0002:000004ac       ??_C@_01NEMOKFLO@?$DN?$AA@ 100144ac     libvcruntime:undname.obj
 0002:000004b0       ??_C@_02GPIOPFAK@?$DO?$DO?$AA@ 100144b0     libvcruntime:undname.obj
 0002:000004b4       ??_C@_02FODMEDOG@?$DM?$DM?$AA@ 100144b4     libvcruntime:undname.obj
 0002:000004b8       ??_C@_01DCLJPIOD@?$CB?$AA@ 100144b8     libvcruntime:undname.obj
 0002:000004bc       ??_C@_02EGOFBIJA@?$DN?$DN?$AA@ 100144bc     libvcruntime:undname.obj
 0002:000004c0       ??_C@_02FDNJECIE@?$CB?$DN?$AA@ 100144c0     libvcruntime:undname.obj
 0002:000004c4       ??_C@_02GPECMEKF@?$FL?$FN?$AA@ 100144c4     libvcruntime:undname.obj
 0002:000004c8       ??_C@_08LHJFAFGD@operator?$AA@ 100144c8     libvcruntime:undname.obj
 0002:000004d4       ??_C@_02HBOOOICD@?9?$DO?$AA@ 100144d4     libvcruntime:undname.obj
 0002:000004d8       ??_C@_01NBENCBCI@?$CK?$AA@ 100144d8     libvcruntime:undname.obj
 0002:000004dc       ??_C@_02ECNGHCIF@?$CL?$CL?$AA@ 100144dc     libvcruntime:undname.obj
 0002:000004e0       ??_C@_02BAABKJLB@?9?9?$AA@ 100144e0     libvcruntime:undname.obj
 0002:000004e4       ??_C@_01JOAMLHOP@?9?$AA@   100144e4     libvcruntime:undname.obj
 0002:000004e8       ??_C@_01MIFGBAGJ@?$CL?$AA@ 100144e8     libvcruntime:undname.obj
 0002:000004ec       ??_C@_01HNPIGOCE@?$CG?$AA@ 100144ec     libvcruntime:undname.obj
 0002:000004f0       ??_C@_03MNHNFDLC@?9?$DO?$CK?$AA@ 100144f0     libvcruntime:undname.obj
 0002:000004f4       ??_C@_01KMDKNFGN@?1?$AA@   100144f4     libvcruntime:undname.obj
 0002:000004f8       ??_C@_01FGNFDNOH@?$CF?$AA@ 100144f8     libvcruntime:undname.obj
 0002:000004fc       ??_C@_01MNNFJEPP@?$DM?$AA@ 100144fc     libvcruntime:undname.obj
 0002:00000500       ??_C@_02EHCHHCKH@?$DM?$DN?$AA@ 10014500     libvcruntime:undname.obj
 0002:00000504       ??_C@_01PPODPGHN@?$DO?$AA@ 10014504     libvcruntime:undname.obj
 0002:00000508       ??_C@_02EEKDKGMJ@?$DO?$DN?$AA@ 10014508     libvcruntime:undname.obj
 0002:0000050c       ??_C@_01IHBHIGKO@?0?$AA@   1001450c     libvcruntime:undname.obj
 0002:00000510       ??_C@_02HCKGKOFO@?$CI?$CJ?$AA@ 10014510     libvcruntime:undname.obj
 0002:00000514       ??_C@_01PJKLJHI@?$HO?$AA@  10014514     libvcruntime:undname.obj
 0002:00000518       ??_C@_01JKBOJNNK@?$FO?$AA@ 10014518     libvcruntime:undname.obj
 0002:0000051c       ??_C@_01DNKMNLPK@?$HM?$AA@ 1001451c     libvcruntime:undname.obj
 0002:00000520       ??_C@_02PPKAJPJL@?$CG?$CG?$AA@ 10014520     libvcruntime:undname.obj
 0002:00000524       ??_C@_02NONPIBCD@?$HM?$HM?$AA@ 10014524     libvcruntime:undname.obj
 0002:00000528       ??_C@_02FPIMKNGF@?$CK?$DN?$AA@ 10014528     libvcruntime:undname.obj
 0002:0000052c       ??_C@_02FOEOMHFC@?$CL?$DN?$AA@ 1001452c     libvcruntime:undname.obj
 0002:00000530       ??_C@_02FKMDLLOA@?9?$DN?$AA@ 10014530     libvcruntime:undname.obj
 0002:00000534       ??_C@_02FJEHGPIO@?1?$DN?$AA@ 10014534     libvcruntime:undname.obj
 0002:00000538       ??_C@_02FENAOKFI@?$CF?$DN?$AA@ 10014538     libvcruntime:undname.obj
 0002:0000053c       ??_C@_03IKFCCPFF@?$DO?$DO?$DN?$AA@ 1001453c     libvcruntime:undname.obj
 0002:00000540       ??_C@_03CDNPDDLA@?$DM?$DM?$DN?$AA@ 10014540     libvcruntime:undname.obj
 0002:00000544       ??_C@_02FGJGFEAB@?$CG?$DN?$AA@ 10014544     libvcruntime:undname.obj
 0002:00000548       ??_C@_02DHLNPPGH@?$HM?$DN?$AA@ 10014548     libvcruntime:undname.obj
 0002:0000054c       ??_C@_02MHEGNOJ@?$FO?$DN?$AA@ 1001454c     libvcruntime:undname.obj
 0002:00000550       ??_C@_09IFPLHPGF@?$GAvftable?8?$AA@ 10014550     libvcruntime:undname.obj
 0002:0000055c       ??_C@_09BLBHBJP@?$GAvbtable?8?$AA@ 1001455c     libvcruntime:undname.obj
 0002:00000568       ??_C@_07FEEIOKP@?$GAvcall?8?$AA@ 10014568     libvcruntime:undname.obj
 0002:00000570       ??_C@_08LLFFHHDJ@?$GAtypeof?8?$AA@ 10014570     libvcruntime:undname.obj
 0002:0000057c       ??_C@_0BF@KDPPACIK@?$GAlocal?5static?5guard?8?$AA@ 1001457c     libvcruntime:undname.obj
 0002:00000594       ??_C@_08OBABFOLI@?$GAstring?8?$AA@ 10014594     libvcruntime:undname.obj
 0002:000005a0       ??_C@_0BD@JDLKDPAB@?$GAvbase?5destructor?8?$AA@ 100145a0     libvcruntime:undname.obj
 0002:000005b4       ??_C@_0BN@DEGPLNFK@?$GAvector?5deleting?5destructor?8?$AA@ 100145b4     libvcruntime:undname.obj
 0002:000005d4       ??_C@_0BO@OBMKPJIG@?$GAdefault?5constructor?5closure?8?$AA@ 100145d4     libvcruntime:undname.obj
 0002:000005f4       ??_C@_0BN@IMDCHIKM@?$GAscalar?5deleting?5destructor?8?$AA@ 100145f4     libvcruntime:undname.obj
 0002:00000614       ??_C@_0BO@PFGOCPJJ@?$GAvector?5constructor?5iterator?8?$AA@ 10014614     libvcruntime:undname.obj
 0002:00000634       ??_C@_0BN@LFPFMEDL@?$GAvector?5destructor?5iterator?8?$AA@ 10014634     libvcruntime:undname.obj
 0002:00000654       ??_C@_0CE@IKBNEHA@?$GAvector?5vbase?5constructor?5iterat@ 10014654     libvcruntime:undname.obj
 0002:00000678       ??_C@_0BL@NILFHHPC@?$GAvirtual?5displacement?5map?8?$AA@ 10014678     libvcruntime:undname.obj
 0002:00000694       ??_C@_0CB@JONCMFFK@?$GAeh?5vector?5constructor?5iterator?8@ 10014694     libvcruntime:undname.obj
 0002:000006b8       ??_C@_0CA@GCEOPDGL@?$GAeh?5vector?5destructor?5iterator?8?$AA@ 100146b8     libvcruntime:undname.obj
 0002:000006d8       ??_C@_0CH@OOJPLCPH@?$GAeh?5vector?5vbase?5constructor?5ite@ 100146d8     libvcruntime:undname.obj
 0002:00000700       ??_C@_0BL@LLKPOHJI@?$GAcopy?5constructor?5closure?8?$AA@ 10014700     libvcruntime:undname.obj
 0002:0000071c       ??_C@_0BA@KBCDOMBN@?$GAudt?5returning?8?$AA@ 1001471c     libvcruntime:undname.obj
 0002:0000072c       ??_C@_03KLGMFNMG@?$GAEH?$AA@ 1001472c     libvcruntime:undname.obj
 0002:00000730       ??_C@_05KHLCHHI@?$GARTTI?$AA@ 10014730     libvcruntime:undname.obj
 0002:00000738       ??_C@_0BA@KKLDJDLB@?$GAlocal?5vftable?8?$AA@ 10014738     libvcruntime:undname.obj
 0002:00000748       ??_C@_0CE@IIHCMGGL@?$GAlocal?5vftable?5constructor?5closu@ 10014748     libvcruntime:undname.obj
 0002:0000076c       ??_C@_06FHBGPFGH@?5new?$FL?$FN?$AA@ 1001476c     libvcruntime:undname.obj
 0002:00000774       ??_C@_09LBNFPBCA@?5delete?$FL?$FN?$AA@ 10014774     libvcruntime:undname.obj
 0002:00000780       ??_C@_0P@HJKNJFNN@?$GAomni?5callsig?8?$AA@ 10014780     libvcruntime:undname.obj
 0002:00000790       ??_C@_0BL@CNOONJFP@?$GAplacement?5delete?5closure?8?$AA@ 10014790     libvcruntime:undname.obj
 0002:000007ac       ??_C@_0BN@CKNJLHMB@?$GAplacement?5delete?$FL?$FN?5closure?8?$AA@ 100147ac     libvcruntime:undname.obj
 0002:000007cc       ??_C@_0CG@CFDHKGGD@?$GAmanaged?5vector?5constructor?5iter@ 100147cc     libvcruntime:undname.obj
 0002:000007f4       ??_C@_0CF@IMGKMJNO@?$GAmanaged?5vector?5destructor?5itera@ 100147f4     libvcruntime:undname.obj
 0002:0000081c       ??_C@_0CG@HLDDJMAG@?$GAeh?5vector?5copy?5constructor?5iter@ 1001481c     libvcruntime:undname.obj
 0002:00000844       ??_C@_0CM@FCBBDIGB@?$GAeh?5vector?5vbase?5copy?5constructo@ 10014844     libvcruntime:undname.obj
 0002:00000870       ??_C@_0BL@CLIPGLGB@?$GAdynamic?5initializer?5for?5?8?$AA@ 10014870     libvcruntime:undname.obj
 0002:0000088c       ??_C@_0CB@PDBIFEP@?$GAdynamic?5atexit?5destructor?5for?5?8@ 1001488c     libvcruntime:undname.obj
 0002:000008b0       ??_C@_0CD@CGAJBKEJ@?$GAvector?5copy?5constructor?5iterato@ 100148b0     libvcruntime:undname.obj
 0002:000008d4       ??_C@_0CJ@GJELGAMM@?$GAvector?5vbase?5copy?5constructor?5i@ 100148d4     libvcruntime:undname.obj
 0002:00000900       ??_C@_0CL@FGIJHLCE@?$GAmanaged?5vector?5copy?5constructor@ 10014900     libvcruntime:undname.obj
 0002:0000092c       ??_C@_0BM@PMGGMLDN@?$GAlocal?5static?5thread?5guard?8?$AA@ 1001492c     libvcruntime:undname.obj
 0002:00000948       ??_C@_0N@BDNMDMOL@operator?5?$CC?$CC?5?$AA@ 10014948     libvcruntime:undname.obj
 0002:00000958       ??_C@_0BC@DAFEJGAK@?5Type?5Descriptor?8?$AA@ 10014958     libvcruntime:undname.obj
 0002:0000096c       ??_C@_0BM@LDKODKLH@?5Base?5Class?5Descriptor?5at?5?$CI?$AA@ 1001496c     libvcruntime:undname.obj
 0002:00000988       ??_C@_0BD@LGICGFMM@?5Base?5Class?5Array?8?$AA@ 10014988     libvcruntime:undname.obj
 0002:0000099c       ??_C@_0BN@MECKDCOJ@?5Class?5Hierarchy?5Descriptor?8?$AA@ 1001499c     libvcruntime:undname.obj
 0002:000009bc       ??_C@_0BK@CFCOFLF@?5Complete?5Object?5Locator?8?$AA@ 100149bc     libvcruntime:undname.obj
 0002:000009e8       ??_C@_1BC@DNHGCMLG@?$AAa?$AAd?$AAv?$AAa?$AAp?$AAi?$AA3?$AA2?$AA?$AA@ 100149e8     libvcruntime:winapi_downlevel.obj
 0002:000009fc       ??_C@_1DM@KHCHBNEB@?$AAa?$AAp?$AAi?$AA?9?$AAm?$AAs?$AA?9?$AAw?$AAi?$AAn?$AA?9?$AAc?$AAo?$AAr?$AAe?$AA?9?$AAf?$AAi?$AAb?$AAe?$AAr?$AAs?$AA?9?$AAl?$AA1?$AA?9?$AA1?$AA?9?$AA1?$AA?$AA@ 100149fc     libvcruntime:winapi_downlevel.obj
 0002:00000a38       ??_C@_1DK@LPPGFMPP@?$AAa?$AAp?$AAi?$AA?9?$AAm?$AAs?$AA?9?$AAw?$AAi?$AAn?$AA?9?$AAc?$AAo?$AAr?$AAe?$AA?9?$AAs?$AAy?$AAn?$AAc?$AAh?$AA?9?$AAl?$AA1?$AA?9?$AA2?$AA?9?$AA0?$AA?$AA@ 10014a38     libvcruntime:winapi_downlevel.obj
 0002:00000a74       ??_C@_1BC@GDMECMAK@?$AAk?$AAe?$AAr?$AAn?$AAe?$AAl?$AA3?$AA2?$AA?$AA@ 10014a74     libvcruntime:winapi_downlevel.obj
 0002:00000a90       ??_C@_08KNHFBNJ@FlsAlloc?$AA@ 10014a90     libvcruntime:winapi_downlevel.obj
 0002:00000aa4       ??_C@_07PEJMOBNF@FlsFree?$AA@ 10014aa4     libvcruntime:winapi_downlevel.obj
 0002:00000ab4       ??_C@_0M@GDNOONDI@FlsGetValue?$AA@ 10014ab4     libvcruntime:winapi_downlevel.obj
 0002:00000ac8       ??_C@_0M@JCPCPOEF@FlsSetValue?$AA@ 10014ac8     libvcruntime:winapi_downlevel.obj
 0002:00000adc       ??_C@_0BM@HCFOFFN@InitializeCriticalSectionEx?$AA@ 10014adc     libvcruntime:winapi_downlevel.obj
 0002:00000af8       ___acrt_exception_action_table 10014af8     libucrt:exception_filter.obj
 0002:00000b88       ___acrt_signal_action_table_count 10014b88     libucrt:exception_filter.obj
 0002:00000b8c       ___acrt_signal_action_first_fpe_index 10014b8c     libucrt:exception_filter.obj
 0002:00000b90       ___acrt_signal_action_fpe_count 10014b90     libucrt:exception_filter.obj
 0002:00000b94       ??_C@_1BI@BGOHAHKC@?$AAm?$AAs?$AAc?$AAo?$AAr?$AAe?$AAe?$AA?4?$AAd?$AAl?$AAl?$AA?$AA@ 10014b94     libucrt:exit.obj
 0002:00000bac       ??_C@_0P@MIGLKIOC@CorExitProcess?$AA@ 10014bac     libucrt:exit.obj
 0002:00000da0       ??_C@_03KOEHGMDN@Sun?$AA@  10014da0     libucrt:nlsdata.obj
 0002:00000da4       ??_C@_03PDAGKDH@Mon?$AA@   10014da4     libucrt:nlsdata.obj
 0002:00000da8       ??_C@_03NAGEINEP@Tue?$AA@  10014da8     libucrt:nlsdata.obj
 0002:00000dac       ??_C@_03MHOMLAJA@Wed?$AA@  10014dac     libucrt:nlsdata.obj
 0002:00000db0       ??_C@_03IOFIKPDN@Thu?$AA@  10014db0     libucrt:nlsdata.obj
 0002:00000db4       ??_C@_03IDIOELNC@Fri?$AA@  10014db4     libucrt:nlsdata.obj
 0002:00000db8       ??_C@_03FEFJNEK@Sat?$AA@   10014db8     libucrt:nlsdata.obj
 0002:00000dbc       ??_C@_06OOPIFAJ@Sunday?$AA@ 10014dbc     libucrt:nlsdata.obj
 0002:00000dc4       ??_C@_06JLEDEDGH@Monday?$AA@ 10014dc4     libucrt:nlsdata.obj
 0002:00000dcc       ??_C@_07BAAGCFCM@Tuesday?$AA@ 10014dcc     libucrt:nlsdata.obj
 0002:00000dd4       ??_C@_09DLIGFAKA@Wednesday?$AA@ 10014dd4     libucrt:nlsdata.obj
 0002:00000de0       ??_C@_08HACCIKIA@Thursday?$AA@ 10014de0     libucrt:nlsdata.obj
 0002:00000dec       ??_C@_06JECMNKMI@Friday?$AA@ 10014dec     libucrt:nlsdata.obj
 0002:00000df4       ??_C@_08INBOOONO@Saturday?$AA@ 10014df4     libucrt:nlsdata.obj
 0002:00000e00       ??_C@_03JIHJHPIE@Jan?$AA@  10014e00     libucrt:nlsdata.obj
 0002:00000e04       ??_C@_03HJBDCHOM@Feb?$AA@  10014e04     libucrt:nlsdata.obj
 0002:00000e08       ??_C@_03ODNJBKGA@Mar?$AA@  10014e08     libucrt:nlsdata.obj
 0002:00000e0c       ??_C@_03LEOLGMJP@Apr?$AA@  10014e0c     libucrt:nlsdata.obj
 0002:00000e10       ??_C@_03CNMDKL@May?$AA@    10014e10     libucrt:nlsdata.obj
 0002:00000e14       ??_C@_03IDFGHECI@Jun?$AA@  10014e14     libucrt:nlsdata.obj
 0002:00000e18       ??_C@_03LBGABGKK@Jul?$AA@  10014e18     libucrt:nlsdata.obj
 0002:00000e1c       ??_C@_03IFJFEIGA@Aug?$AA@  10014e1c     libucrt:nlsdata.obj
 0002:00000e20       ??_C@_03GGCAPAJC@Sep?$AA@  10014e20     libucrt:nlsdata.obj
 0002:00000e24       ??_C@_03BMAOKBAD@Oct?$AA@  10014e24     libucrt:nlsdata.obj
 0002:00000e28       ??_C@_03JPJOFNIA@Nov?$AA@  10014e28     libucrt:nlsdata.obj
 0002:00000e2c       ??_C@_03MKABNOCG@Dec?$AA@  10014e2c     libucrt:nlsdata.obj
 0002:00000e30       ??_C@_07CGJPFGJA@January?$AA@ 10014e30     libucrt:nlsdata.obj
 0002:00000e38       ??_C@_08GNJGEPFN@February?$AA@ 10014e38     libucrt:nlsdata.obj
 0002:00000e44       ??_C@_05HPCKOFNC@March?$AA@ 10014e44     libucrt:nlsdata.obj
 0002:00000e4c       ??_C@_05DMJDNLEJ@April?$AA@ 10014e4c     libucrt:nlsdata.obj
 0002:00000e54       ??_C@_04CNLMGBGM@June?$AA@ 10014e54     libucrt:nlsdata.obj
 0002:00000e5c       ??_C@_04MIEPOIFP@July?$AA@ 10014e5c     libucrt:nlsdata.obj
 0002:00000e64       ??_C@_06LBBHFDDG@August?$AA@ 10014e64     libucrt:nlsdata.obj
 0002:00000e6c       ??_C@_09BHHEALKD@September?$AA@ 10014e6c     libucrt:nlsdata.obj
 0002:00000e78       ??_C@_07JJNFCEND@October?$AA@ 10014e78     libucrt:nlsdata.obj
 0002:00000e80       ??_C@_08HCHEGEOA@November?$AA@ 10014e80     libucrt:nlsdata.obj
 0002:00000e8c       ??_C@_08EDHMEBNP@December?$AA@ 10014e8c     libucrt:nlsdata.obj
 0002:00000e98       ??_C@_02DEDBPAFC@AM?$AA@   10014e98     libucrt:nlsdata.obj
 0002:00000e9c       ??_C@_02CJNFDJBF@PM?$AA@   10014e9c     libucrt:nlsdata.obj
 0002:00000ea0       ??_C@_08BPBNCDIB@MM?1dd?1yy?$AA@ 10014ea0     libucrt:nlsdata.obj
 0002:00000eac       ??_C@_0BE@CKGJFCPC@dddd?0?5MMMM?5dd?0?5yyyy?$AA@ 10014eac     libucrt:nlsdata.obj
 0002:00000ec0       ??_C@_08JCCMCCIL@HH?3mm?3ss?$AA@ 10014ec0     libucrt:nlsdata.obj
 0002:00000ecc       ??_C@_17MBGCMIPB@?$AAS?$AAu?$AAn?$AA?$AA@ 10014ecc     libucrt:nlsdata.obj
 0002:00000ed4       ??_C@_17KBOMKBF@?$AAM?$AAo?$AAn?$AA?$AA@ 10014ed4     libucrt:nlsdata.obj
 0002:00000edc       ??_C@_17BMKGEGOJ@?$AAT?$AAu?$AAe?$AA?$AA@ 10014edc     libucrt:nlsdata.obj
 0002:00000ee4       ??_C@_17CJEDCEPE@?$AAW?$AAe?$AAd?$AA?$AA@ 10014ee4     libucrt:nlsdata.obj
 0002:00000eec       ??_C@_17PDPHAADD@?$AAT?$AAh?$AAu?$AA?$AA@ 10014eec     libucrt:nlsdata.obj
 0002:00000ef4       ??_C@_17HFOLPPLP@?$AAF?$AAr?$AAi?$AA?$AA@ 10014ef4     libucrt:nlsdata.obj
 0002:00000efc       ??_C@_17GGIBDPIH@?$AAS?$AAa?$AAt?$AA?$AA@ 10014efc     libucrt:nlsdata.obj
 0002:00000f04       ??_C@_1O@IHNHDHPB@?$AAS?$AAu?$AAn?$AAd?$AAa?$AAy?$AA?$AA@ 10014f04     libucrt:nlsdata.obj
 0002:00000f14       ??_C@_1O@MMNBFLIA@?$AAM?$AAo?$AAn?$AAd?$AAa?$AAy?$AA?$AA@ 10014f14     libucrt:nlsdata.obj
 0002:00000f24       ??_C@_1BA@ENFBFFEK@?$AAT?$AAu?$AAe?$AAs?$AAd?$AAa?$AAy?$AA?$AA@ 10014f24     libucrt:nlsdata.obj
 0002:00000f34       ??_C@_1BE@EBOGMDOH@?$AAW?$AAe?$AAd?$AAn?$AAe?$AAs?$AAd?$AAa?$AAy?$AA?$AA@ 10014f34     libucrt:nlsdata.obj
 0002:00000f48       ??_C@_1BC@HHMNLIHE@?$AAT?$AAh?$AAu?$AAr?$AAs?$AAd?$AAa?$AAy?$AA?$AA@ 10014f48     libucrt:nlsdata.obj
 0002:00000f5c       ??_C@_1O@PDICJHAG@?$AAF?$AAr?$AAi?$AAd?$AAa?$AAy?$AA?$AA@ 10014f5c     libucrt:nlsdata.obj
 0002:00000f6c       ??_C@_1BC@ENMNNPAJ@?$AAS?$AAa?$AAt?$AAu?$AAr?$AAd?$AAa?$AAy?$AA?$AA@ 10014f6c     libucrt:nlsdata.obj
 0002:00000f80       ??_C@_17DKNBKCHM@?$AAJ?$AAa?$AAn?$AA?$AA@ 10014f80     libucrt:nlsdata.obj
 0002:00000f88       ??_C@_17LMDJEKJN@?$AAF?$AAe?$AAb?$AA?$AA@ 10014f88     libucrt:nlsdata.obj
 0002:00000f90       ??_C@_17CKNLEDEC@?$AAM?$AAa?$AAr?$AA?$AA@ 10014f90     libucrt:nlsdata.obj
 0002:00000f98       ??_C@_17LFPOIHDD@?$AAA?$AAp?$AAr?$AA?$AA@ 10014f98     libucrt:nlsdata.obj
 0002:00000fa0       ??_C@_17PNNKMEED@?$AAM?$AAa?$AAy?$AA?$AA@ 10014fa0     libucrt:nlsdata.obj
 0002:00000fa8       ??_C@_17KCJGOCPB@?$AAJ?$AAu?$AAn?$AA?$AA@ 10014fa8     libucrt:nlsdata.obj
 0002:00000fb0       ??_C@_17IJPCKHK@?$AAJ?$AAu?$AAl?$AA?$AA@ 10014fb0     libucrt:nlsdata.obj
 0002:00000fb8       ??_C@_17ICPELBCN@?$AAA?$AAu?$AAg?$AA?$AA@ 10014fb8     libucrt:nlsdata.obj
 0002:00000fc0       ??_C@_17HCHCOKMG@?$AAS?$AAe?$AAp?$AA?$AA@ 10014fc0     libucrt:nlsdata.obj
 0002:00000fc8       ??_C@_17FNLKOI@?$AAO?$AAc?$AAt?$AA?$AA@ 10014fc8     libucrt:nlsdata.obj
 0002:00000fd0       ??_C@_17BBDMLCIG@?$AAN?$AAo?$AAv?$AA?$AA@ 10014fd0     libucrt:nlsdata.obj
 0002:00000fd8       ??_C@_17EGKACKIF@?$AAD?$AAe?$AAc?$AA?$AA@ 10014fd8     libucrt:nlsdata.obj
 0002:00000fe0       ??_C@_1BA@EFMEIEBA@?$AAJ?$AAa?$AAn?$AAu?$AAa?$AAr?$AAy?$AA?$AA@ 10014fe0     libucrt:nlsdata.obj
 0002:00000ff0       ??_C@_1BC@JGDDFFAM@?$AAF?$AAe?$AAb?$AAr?$AAu?$AAa?$AAr?$AAy?$AA?$AA@ 10014ff0     libucrt:nlsdata.obj
 0002:00001004       ??_C@_1M@IKEENEDF@?$AAM?$AAa?$AAr?$AAc?$AAh?$AA?$AA@ 10015004     libucrt:nlsdata.obj
 0002:00001010       ??_C@_1M@GJNLMHFD@?$AAA?$AAp?$AAr?$AAi?$AAl?$AA?$AA@ 10015010     libucrt:nlsdata.obj
 0002:0000101c       ??_C@_19EPFLPGAP@?$AAJ?$AAu?$AAn?$AAe?$AA?$AA@ 1001501c     libucrt:nlsdata.obj
 0002:00001028       ??_C@_19BIFMLPCD@?$AAJ?$AAu?$AAl?$AAy?$AA?$AA@ 10015028     libucrt:nlsdata.obj
 0002:00001034       ??_C@_1O@PAHLKOAC@?$AAA?$AAu?$AAg?$AAu?$AAs?$AAt?$AA?$AA@ 10015034     libucrt:nlsdata.obj
 0002:00001044       ??_C@_1BE@DKAAMBJL@?$AAS?$AAe?$AAp?$AAt?$AAe?$AAm?$AAb?$AAe?$AAr?$AA?$AA@ 10015044     libucrt:nlsdata.obj
 0002:00001058       ??_C@_1BA@EPANDLNG@?$AAO?$AAc?$AAt?$AAo?$AAb?$AAe?$AAr?$AA?$AA@ 10015058     libucrt:nlsdata.obj
 0002:00001068       ??_C@_1BC@BGLIFPF@?$AAN?$AAo?$AAv?$AAe?$AAm?$AAb?$AAe?$AAr?$AA?$AA@ 10015068     libucrt:nlsdata.obj
 0002:0000107c       ??_C@_1BC@FEMKIFH@?$AAD?$AAe?$AAc?$AAe?$AAm?$AAb?$AAe?$AAr?$AA?$AA@ 1001507c     libucrt:nlsdata.obj
 0002:00001090       ??_C@_15ODEHAHHF@?$AAA?$AAM?$AA?$AA@ 10015090     libucrt:nlsdata.obj
 0002:00001098       ??_C@_15CLMNNGEL@?$AAP?$AAM?$AA?$AA@ 10015098     libucrt:nlsdata.obj
 0002:000010a0       ??_C@_1BC@IEBCMHCM@?$AAM?$AAM?$AA?1?$AAd?$AAd?$AA?1?$AAy?$AAy?$AA?$AA@ 100150a0     libucrt:nlsdata.obj
 0002:000010b4       ??_C@_1CI@KNAKOEBC@?$AAd?$AAd?$AAd?$AAd?$AA?0?$AA?5?$AAM?$AAM?$AAM?$AAM?$AA?5?$AAd?$AAd?$AA?0?$AA?5?$AAy?$AAy?$AAy?$AAy?$AA?$AA@ 100150b4     libucrt:nlsdata.obj
 0002:000010dc       ??_C@_1BC@GDGBMEMK@?$AAH?$AAH?$AA?3?$AAm?$AAm?$AA?3?$AAs?$AAs?$AA?$AA@ 100150dc     libucrt:nlsdata.obj
 0002:000010f0       ??_C@_1M@BMHNFIME@?$AAe?$AAn?$AA?9?$AAU?$AAS?$AA?$AA@ 100150f0     libucrt:nlsdata.obj
 0002:00001100       ___lc_time_c               10015100     libucrt:nlsdata.obj
 0002:000012b8       ??_C@_1EG@CNNIPFIM@?$AAa?$AAp?$AAi?$AA?9?$AAm?$AAs?$AA?9?$AAw?$AAi?$AAn?$AA?9?$AAa?$AAp?$AAp?$AAm?$AAo?$AAd?$AAe?$AAl?$AA?9?$AAr?$AAu?$AAn?$AAt?$AAi?$AAm?$AAe?$AA?9?$AAl?$AA1?$AA?9?$AA1@ 100152b8     libucrt:winapi_thunks.obj
 0002:00001300       ??_C@_1EA@JGEFHKEI@?$AAa?$AAp?$AAi?$AA?9?$AAm?$AAs?$AA?9?$AAw?$AAi?$AAn?$AA?9?$AAc?$AAo?$AAr?$AAe?$AA?9?$AAd?$AAa?$AAt?$AAe?$AAt?$AAi?$AAm?$AAe?$AA?9?$AAl?$AA1?$AA?9?$AA1?$AA?9?$AA1?$AA?$AA@ 10015300     libucrt:winapi_thunks.obj
 0002:00001340       ??_C@_1DI@GCIAAENM@?$AAa?$AAp?$AAi?$AA?9?$AAm?$AAs?$AA?9?$AAw?$AAi?$AAn?$AA?9?$AAc?$AAo?$AAr?$AAe?$AA?9?$AAf?$AAi?$AAl?$AAe?$AA?9?$AAl?$AA2?$AA?9?$AA1?$AA?9?$AA1?$AA?$AA@ 10015340     libucrt:winapi_thunks.obj
 0002:00001378       ??_C@_1EI@MPIAOHOC@?$AAa?$AAp?$AAi?$AA?9?$AAm?$AAs?$AA?9?$AAw?$AAi?$AAn?$AA?9?$AAc?$AAo?$AAr?$AAe?$AA?9?$AAl?$AAo?$AAc?$AAa?$AAl?$AAi?$AAz?$AAa?$AAt?$AAi?$AAo?$AAn?$AA?9?$AAl?$AA1?$AA?9@ 10015378     libucrt:winapi_thunks.obj
 0002:000013c0       ??_C@_1FK@FPHCKFIE@?$AAa?$AAp?$AAi?$AA?9?$AAm?$AAs?$AA?9?$AAw?$AAi?$AAn?$AA?9?$AAc?$AAo?$AAr?$AAe?$AA?9?$AAl?$AAo?$AAc?$AAa?$AAl?$AAi?$AAz?$AAa?$AAt?$AAi?$AAo?$AAn?$AA?9?$AAo?$AAb?$AAs@ 100153c0     libucrt:winapi_thunks.obj
 0002:00001420       ??_C@_1EM@DILCGIIO@?$AAa?$AAp?$AAi?$AA?9?$AAm?$AAs?$AA?9?$AAw?$AAi?$AAn?$AA?9?$AAc?$AAo?$AAr?$AAe?$AA?9?$AAp?$AAr?$AAo?$AAc?$AAe?$AAs?$AAs?$AAt?$AAh?$AAr?$AAe?$AAa?$AAd?$AAs?$AA?9?$AAl@ 10015420     libucrt:winapi_thunks.obj
 0002:0000146c       ??_C@_1DM@LNCGDDPN@?$AAa?$AAp?$AAi?$AA?9?$AAm?$AAs?$AA?9?$AAw?$AAi?$AAn?$AA?9?$AAc?$AAo?$AAr?$AAe?$AA?9?$AAs?$AAt?$AAr?$AAi?$AAn?$AAg?$AA?9?$AAl?$AA1?$AA?9?$AA1?$AA?9?$AA0?$AA?$AA@ 1001546c     libucrt:winapi_thunks.obj
 0002:000014a8       ??_C@_1DO@FPAPJEMD@?$AAa?$AAp?$AAi?$AA?9?$AAm?$AAs?$AA?9?$AAw?$AAi?$AAn?$AA?9?$AAc?$AAo?$AAr?$AAe?$AA?9?$AAs?$AAy?$AAs?$AAi?$AAn?$AAf?$AAo?$AA?9?$AAl?$AA1?$AA?9?$AA2?$AA?9?$AA1?$AA?$AA@ 100154a8     libucrt:winapi_thunks.obj
 0002:000014e8       ??_C@_1DK@NDHNAHIO@?$AAa?$AAp?$AAi?$AA?9?$AAm?$AAs?$AA?9?$AAw?$AAi?$AAn?$AA?9?$AAc?$AAo?$AAr?$AAe?$AA?9?$AAw?$AAi?$AAn?$AAr?$AAt?$AA?9?$AAl?$AA1?$AA?9?$AA1?$AA?9?$AA0?$AA?$AA@ 100154e8     libucrt:winapi_thunks.obj
 0002:00001524       ??_C@_1DM@KGHDGBCM@?$AAa?$AAp?$AAi?$AA?9?$AAm?$AAs?$AA?9?$AAw?$AAi?$AAn?$AA?9?$AAc?$AAo?$AAr?$AAe?$AA?9?$AAx?$AAs?$AAt?$AAa?$AAt?$AAe?$AA?9?$AAl?$AA2?$AA?9?$AA1?$AA?9?$AA0?$AA?$AA@ 10015524     libucrt:winapi_thunks.obj
 0002:00001560       ??_C@_1EO@IJIOEFOH@?$AAa?$AAp?$AAi?$AA?9?$AAm?$AAs?$AA?9?$AAw?$AAi?$AAn?$AA?9?$AAr?$AAt?$AAc?$AAo?$AAr?$AAe?$AA?9?$AAn?$AAt?$AAu?$AAs?$AAe?$AAr?$AA?9?$AAw?$AAi?$AAn?$AAd?$AAo?$AAw?$AA?9@ 10015560     libucrt:winapi_thunks.obj
 0002:000015b0       ??_C@_1FG@HHGEKANL@?$AAa?$AAp?$AAi?$AA?9?$AAm?$AAs?$AA?9?$AAw?$AAi?$AAn?$AA?9?$AAs?$AAe?$AAc?$AAu?$AAr?$AAi?$AAt?$AAy?$AA?9?$AAs?$AAy?$AAs?$AAt?$AAe?$AAm?$AAf?$AAu?$AAn?$AAc?$AAt?$AAi@ 100155b0     libucrt:winapi_thunks.obj
 0002:00001608       ??_C@_1FG@NCKKOLKO@?$AAe?$AAx?$AAt?$AA?9?$AAm?$AAs?$AA?9?$AAw?$AAi?$AAn?$AA?9?$AAk?$AAe?$AAr?$AAn?$AAe?$AAl?$AA3?$AA2?$AA?9?$AAp?$AAa?$AAc?$AAk?$AAa?$AAg?$AAe?$AA?9?$AAc?$AAu?$AAr?$AAr@ 10015608     libucrt:winapi_thunks.obj
 0002:00001660       ??_C@_1EG@DBIOJECG@?$AAe?$AAx?$AAt?$AA?9?$AAm?$AAs?$AA?9?$AAw?$AAi?$AAn?$AA?9?$AAn?$AAt?$AAu?$AAs?$AAe?$AAr?$AA?9?$AAd?$AAi?$AAa?$AAl?$AAo?$AAg?$AAb?$AAo?$AAx?$AA?9?$AAl?$AA1?$AA?9?$AA1@ 10015660     libucrt:winapi_thunks.obj
 0002:000016a8       ??_C@_1EO@FIHMJCLF@?$AAe?$AAx?$AAt?$AA?9?$AAm?$AAs?$AA?9?$AAw?$AAi?$AAn?$AA?9?$AAn?$AAt?$AAu?$AAs?$AAe?$AAr?$AA?9?$AAw?$AAi?$AAn?$AAd?$AAo?$AAw?$AAs?$AAt?$AAa?$AAt?$AAi?$AAo?$AAn?$AA?9@ 100156a8     libucrt:winapi_thunks.obj
 0002:000016f8       ??_C@_1O@BCCLBEOE@?$AAu?$AAs?$AAe?$AAr?$AA3?$AA2?$AA?$AA@ 100156f8     libucrt:winapi_thunks.obj
 0002:00001730       ??_C@_0BE@JOGNEJCI@GetCurrentPackageId?$AA@ 10015730     libucrt:winapi_thunks.obj
 0002:00001754       ??_C@_0O@KKBNKAPF@LCMapStringEx?$AA@ 10015754     libucrt:winapi_thunks.obj
 0002:0000176c       ??_C@_0BB@HBDEELFH@LocaleNameToLCID?$AA@ 1001576c     libucrt:winapi_thunks.obj
 0002:00001790       ??_C@_1M@HPNHIDJI@?$AAj?$AAa?$AA?9?$AAJ?$AAP?$AA?$AA@ 10015790     libucrt:mbctype.obj
 0002:0000179c       ??_C@_1M@BIBDDEMK@?$AAz?$AAh?$AA?9?$AAC?$AAN?$AA?$AA@ 1001579c     libucrt:mbctype.obj
 0002:000017a8       ??_C@_1M@JLOOOEGK@?$AAk?$AAo?$AA?9?$AAK?$AAR?$AA?$AA@ 100157a8     libucrt:mbctype.obj
 0002:000017b4       ??_C@_1M@CLNBBOPM@?$AAz?$AAh?$AA?9?$AAT?$AAW?$AA?$AA@ 100157b4     libucrt:mbctype.obj
 0002:000017c0       ___newctype                100157c0     libucrt:ctype.obj
 0002:00001ac0       ___newclmap                10015ac0     libucrt:ctype.obj
 0002:00001c40       ___newcumap                10015c40     libucrt:ctype.obj
 0002:00001dc0       ??_C@_15PJPFLCCM@?$AAu?$AAk?$AA?$AA@ 10015dc0     libucrt:get_qualified_locale.obj
 0002:000024e8       ??_C@_15EMKDOKLE@?$AAa?$AAr?$AA?$AA@ 100164e8     libucrt:lcidtoname_downlevel.obj
 0002:000024f0       ??_C@_15KNPADPLH@?$AAb?$AAg?$AA?$AA@ 100164f0     libucrt:lcidtoname_downlevel.obj
 0002:000024f8       ??_C@_15EDMHLDMO@?$AAc?$AAa?$AA?$AA@ 100164f8     libucrt:lcidtoname_downlevel.obj
 0002:00002500       ??_C@_1O@BPEAJADD@?$AAz?$AAh?$AA?9?$AAC?$AAH?$AAS?$AA?$AA@ 10016500     libucrt:lcidtoname_downlevel.obj
 0002:00002510       ??_C@_15LJNHCMNK@?$AAc?$AAs?$AA?$AA@ 10016510     libucrt:lcidtoname_downlevel.obj
 0002:00002518       ??_C@_15FOMCIDHG@?$AAd?$AAa?$AA?$AA@ 10016518     libucrt:lcidtoname_downlevel.obj
 0002:00002520       ??_C@_15NBKABECB@?$AAd?$AAe?$AA?$AA@ 10016520     libucrt:lcidtoname_downlevel.obj
 0002:00002528       ??_C@_15GHPEIIAO@?$AAe?$AAl?$AA?$AA@ 10016528     libucrt:lcidtoname_downlevel.obj
 0002:00002530       ??_C@_15MNPNEAIF@?$AAe?$AAn?$AA?$AA@ 10016530     libucrt:lcidtoname_downlevel.obj
 0002:00002538       ??_C@_15GPIOMPMH@?$AAe?$AAs?$AA?$AA@ 10016538     libucrt:lcidtoname_downlevel.obj
 0002:00002540       ??_C@_15NGLOAKJC@?$AAf?$AAi?$AA?$AA@ 10016540     libucrt:lcidtoname_downlevel.obj
 0002:00002548       ??_C@_15FBKGNKAM@?$AAf?$AAr?$AA?$AA@ 10016548     libucrt:lcidtoname_downlevel.obj
 0002:00002550       ??_C@_15KGGCNEFK@?$AAh?$AAe?$AA?$AA@ 10016550     libucrt:lcidtoname_downlevel.obj
 0002:00002558       ??_C@_15PGHLIDMF@?$AAh?$AAu?$AA?$AA@ 10016558     libucrt:lcidtoname_downlevel.obj
 0002:00002560       ??_C@_15BIEMAPLM@?$AAi?$AAs?$AA?$AA@ 10016560     libucrt:lcidtoname_downlevel.obj
 0002:00002568       ??_C@_15IFJLDHAF@?$AAi?$AAt?$AA?$AA@ 10016568     libucrt:lcidtoname_downlevel.obj
 0002:00002570       ??_C@_15GEMIOCAG@?$AAj?$AAa?$AA?$AA@ 10016570     libucrt:lcidtoname_downlevel.obj
 0002:00002578       ??_C@_15EPELEGJA@?$AAk?$AAo?$AA?$AA@ 10016578     libucrt:lcidtoname_downlevel.obj
 0002:00002580       ??_C@_15NDDHIMN@?$AAn?$AAl?$AA?$AA@ 10016580     libucrt:lcidtoname_downlevel.obj
 0002:00002588       ??_C@_15BPIGNHCD@?$AAn?$AAo?$AA?$AA@ 10016588     libucrt:lcidtoname_downlevel.obj
 0002:00002590       ??_C@_15DEOPBLCG@?$AAp?$AAl?$AA?$AA@ 10016590     libucrt:lcidtoname_downlevel.obj
 0002:00002598       ??_C@_15KBECGEFG@?$AAp?$AAt?$AA?$AA@ 10016598     libucrt:lcidtoname_downlevel.obj
 0002:000025a0       ??_C@_15GLJCBFMD@?$AAr?$AAo?$AA?$AA@ 100165a0     libucrt:lcidtoname_downlevel.obj
 0002:000025a8       ??_C@_15FEDGKCDI@?$AAr?$AAu?$AA?$AA@ 100165a8     libucrt:lcidtoname_downlevel.obj
 0002:000025b0       ??_C@_15GLKMLLHM@?$AAh?$AAr?$AA?$AA@ 100165b0     libucrt:lcidtoname_downlevel.obj
 0002:000025b8       ??_C@_15CPKMFBDB@?$AAs?$AAk?$AA?$AA@ 100165b8     libucrt:lcidtoname_downlevel.obj
 0002:000025c0       ??_C@_15BAAIOGMK@?$AAs?$AAq?$AA?$AA@ 100165c0     libucrt:lcidtoname_downlevel.obj
 0002:000025c8       ??_C@_15INNPNOHD@?$AAs?$AAv?$AA?$AA@ 100165c8     libucrt:lcidtoname_downlevel.obj
 0002:000025d0       ??_C@_15CABMMOGH@?$AAt?$AAh?$AA?$AA@ 100165d0     libucrt:lcidtoname_downlevel.obj
 0002:000025d8       ??_C@_15BPLIHJJM@?$AAt?$AAr?$AA?$AA@ 100165d8     libucrt:lcidtoname_downlevel.obj
 0002:000025e0       ??_C@_15NEOEKKDJ@?$AAu?$AAr?$AA?$AA@ 100165e0     libucrt:lcidtoname_downlevel.obj
 0002:000025e8       ??_C@_15NFICGAJK@?$AAi?$AAd?$AA?$AA@ 100165e8     libucrt:lcidtoname_downlevel.obj
 0002:000025f0       ??_C@_15HPJPHDM@?$AAb?$AAe?$AA?$AA@ 100165f0     libucrt:lcidtoname_downlevel.obj
 0002:000025f8       ??_C@_15LCHLGJII@?$AAs?$AAl?$AA?$AA@ 100165f8     libucrt:lcidtoname_downlevel.obj
 0002:00002600       ??_C@_15PCFJPHHO@?$AAe?$AAt?$AA?$AA@ 10016600     libucrt:lcidtoname_downlevel.obj
 0002:00002608       ??_C@_15HPFPGODN@?$AAl?$AAv?$AA?$AA@ 10016608     libucrt:lcidtoname_downlevel.obj
 0002:00002610       ??_C@_15NFFGKGLG@?$AAl?$AAt?$AA?$AA@ 10016610     libucrt:lcidtoname_downlevel.obj
 0002:00002618       ??_C@_15BDAKCCHN@?$AAf?$AAa?$AA?$AA@ 10016618     libucrt:lcidtoname_downlevel.obj
 0002:00002620       ??_C@_15NFGIAIAJ@?$AAv?$AAi?$AA?$AA@ 10016620     libucrt:lcidtoname_downlevel.obj
 0002:00002628       ??_C@_15LMKNDMHN@?$AAh?$AAy?$AA?$AA@ 10016628     libucrt:lcidtoname_downlevel.obj
 0002:00002630       ??_C@_15IJBHMCFL@?$AAa?$AAz?$AA?$AA@ 10016630     libucrt:lcidtoname_downlevel.obj
 0002:00002638       ??_C@_15EKOFJABL@?$AAe?$AAu?$AA?$AA@ 10016638     libucrt:lcidtoname_downlevel.obj
 0002:00002640       ??_C@_15BGHADCNK@?$AAm?$AAk?$AA?$AA@ 10016640     libucrt:lcidtoname_downlevel.obj
 0002:00002648       ??_C@_15JDNICKHM@?$AAa?$AAf?$AA?$AA@ 10016648     libucrt:lcidtoname_downlevel.obj
 0002:00002650       ??_C@_15KPJEDBKD@?$AAk?$AAa?$AA?$AA@ 10016650     libucrt:lcidtoname_downlevel.obj
 0002:00002658       ??_C@_15PDNFFFEO@?$AAf?$AAo?$AA?$AA@ 10016658     libucrt:lcidtoname_downlevel.obj
 0002:00002660       ??_C@_15OMLEGLOC@?$AAh?$AAi?$AA?$AA@ 10016660     libucrt:lcidtoname_downlevel.obj
 0002:00002668       ??_C@_15IDNNENKK@?$AAm?$AAs?$AA?$AA@ 10016668     libucrt:lcidtoname_downlevel.obj
 0002:00002670       ??_C@_15MACJNBMH@?$AAk?$AAk?$AA?$AA@ 10016670     libucrt:lcidtoname_downlevel.obj
 0002:00002678       ??_C@_15DKDJEOND@?$AAk?$AAy?$AA?$AA@ 10016678     libucrt:lcidtoname_downlevel.obj
 0002:00002680       ??_C@_15DFGDLJBG@?$AAs?$AAw?$AA?$AA@ 10016680     libucrt:lcidtoname_downlevel.obj
 0002:00002688       ??_C@_15BBFAICNG@?$AAu?$AAz?$AA?$AA@ 10016688     libucrt:lcidtoname_downlevel.obj
 0002:00002690       ??_C@_15DKNDCGEA@?$AAt?$AAt?$AA?$AA@ 10016690     libucrt:lcidtoname_downlevel.obj
 0002:00002698       ??_C@_15MGIFMDPL@?$AAp?$AAa?$AA?$AA@ 10016698     libucrt:lcidtoname_downlevel.obj
 0002:000026a0       ??_C@_15HCNDBBA@?$AAg?$AAu?$AA?$AA@ 100166a0     libucrt:lcidtoname_downlevel.obj
 0002:000026a8       ??_C@_15FNBEIBON@?$AAt?$AAa?$AA?$AA@ 100166a8     libucrt:lcidtoname_downlevel.obj
 0002:000026b0       ??_C@_15NCHGBGLK@?$AAt?$AAe?$AA?$AA@ 100166b0     libucrt:lcidtoname_downlevel.obj
 0002:000026b8       ??_C@_15PHPHCBPF@?$AAk?$AAn?$AA?$AA@ 100166b8     libucrt:lcidtoname_downlevel.obj
 0002:000026c0       ??_C@_15DLGBCKMP@?$AAm?$AAr?$AA?$AA@ 100166c0     libucrt:lcidtoname_downlevel.obj
 0002:000026c8       ??_C@_15EABBLBFF@?$AAs?$AAa?$AA?$AA@ 100166c8     libucrt:lcidtoname_downlevel.obj
 0002:000026d0       ??_C@_15CBKOMCOI@?$AAm?$AAn?$AA?$AA@ 100166d0     libucrt:lcidtoname_downlevel.obj
 0002:000026d8       ??_C@_15CKDMCJAF@?$AAg?$AAl?$AA?$AA@ 100166d8     libucrt:lcidtoname_downlevel.obj
 0002:000026e0       ??_C@_17CNJFBPG@?$AAk?$AAo?$AAk?$AA?$AA@ 100166e0     libucrt:lcidtoname_downlevel.obj
 0002:000026e8       ??_C@_17FFBJICPL@?$AAs?$AAy?$AAr?$AA?$AA@ 100166e8     libucrt:lcidtoname_downlevel.obj
 0002:000026f0       ??_C@_17KPNDCPAF@?$AAd?$AAi?$AAv?$AA?$AA@ 100166f0     libucrt:lcidtoname_downlevel.obj
 0002:000026f8       ??_C@_11LOCGONAA@?$AA?$AA@ 100166f8     libucrt:lcidtoname_downlevel.obj
 0002:000026fc       ??_C@_1M@OKAHONE@?$AAa?$AAr?$AA?9?$AAS?$AAA?$AA?$AA@ 100166fc     libucrt:lcidtoname_downlevel.obj
 0002:00002708       ??_C@_1M@FFFIGIGK@?$AAb?$AAg?$AA?9?$AAB?$AAG?$AA?$AA@ 10016708     libucrt:lcidtoname_downlevel.obj
 0002:00002714       ??_C@_1M@BJNKEDC@?$AAc?$AAa?$AA?9?$AAE?$AAS?$AA?$AA@ 10016714     libucrt:lcidtoname_downlevel.obj
 0002:00002720       ??_C@_1M@IJJHFJHA@?$AAc?$AAs?$AA?9?$AAC?$AAZ?$AA?$AA@ 10016720     libucrt:lcidtoname_downlevel.obj
 0002:0000272c       ??_C@_1M@CLPEOBGI@?$AAd?$AAa?$AA?9?$AAD?$AAK?$AA?$AA@ 1001672c     libucrt:lcidtoname_downlevel.obj
 0002:00002738       ??_C@_1M@MCMADGCB@?$AAd?$AAe?$AA?9?$AAD?$AAE?$AA?$AA@ 10016738     libucrt:lcidtoname_downlevel.obj
 0002:00002744       ??_C@_1M@OOCKEMAM@?$AAe?$AAl?$AA?9?$AAG?$AAR?$AA?$AA@ 10016744     libucrt:lcidtoname_downlevel.obj
 0002:00002750       ??_C@_1M@DDNJFGID@?$AAf?$AAi?$AA?9?$AAF?$AAI?$AA?$AA@ 10016750     libucrt:lcidtoname_downlevel.obj
 0002:0000275c       ??_C@_1M@GLIPPMAC@?$AAf?$AAr?$AA?9?$AAF?$AAR?$AA?$AA@ 1001675c     libucrt:lcidtoname_downlevel.obj
 0002:00002768       ??_C@_1M@GFMCHPE@?$AAh?$AAe?$AA?9?$AAI?$AAL?$AA?$AA@ 10016768     libucrt:lcidtoname_downlevel.obj
 0002:00002774       ??_C@_1M@MHLPGNKM@?$AAh?$AAu?$AA?9?$AAH?$AAU?$AA?$AA@ 10016774     libucrt:lcidtoname_downlevel.obj
 0002:00002780       ??_C@_1M@LPDDNNPN@?$AAi?$AAs?$AA?9?$AAI?$AAS?$AA?$AA@ 10016780     libucrt:lcidtoname_downlevel.obj
 0002:0000278c       ??_C@_1M@MADIPODN@?$AAi?$AAt?$AA?9?$AAI?$AAT?$AA?$AA@ 1001678c     libucrt:lcidtoname_downlevel.obj
 0002:00002798       ??_C@_1M@IHBJJGG@?$AAn?$AAl?$AA?9?$AAN?$AAL?$AA?$AA@ 10016798     libucrt:lcidtoname_downlevel.obj
 0002:000027a4       ??_C@_1M@EANAGDL@?$AAn?$AAb?$AA?9?$AAN?$AAO?$AA?$AA@ 100167a4     libucrt:lcidtoname_downlevel.obj
 0002:000027b0       ??_C@_1M@NEIEMEGP@?$AAp?$AAl?$AA?9?$AAP?$AAL?$AA?$AA@ 100167b0     libucrt:lcidtoname_downlevel.obj
 0002:000027bc       ??_C@_1M@BOCFIGEP@?$AAp?$AAt?$AA?9?$AAB?$AAR?$AA?$AA@ 100167bc     libucrt:lcidtoname_downlevel.obj
 0002:000027c8       ??_C@_1M@IMPFOPBG@?$AAr?$AAo?$AA?9?$AAR?$AAO?$AA?$AA@ 100167c8     libucrt:lcidtoname_downlevel.obj
 0002:000027d4       ??_C@_1M@IDNNEJMM@?$AAr?$AAu?$AA?9?$AAR?$AAU?$AA?$AA@ 100167d4     libucrt:lcidtoname_downlevel.obj
 0002:000027e0       ??_C@_1M@LILEEOGM@?$AAh?$AAr?$AA?9?$AAH?$AAR?$AA?$AA@ 100167e0     libucrt:lcidtoname_downlevel.obj
 0002:000027ec       ??_C@_1M@FKIFEHPB@?$AAs?$AAk?$AA?9?$AAS?$AAK?$AA?$AA@ 100167ec     libucrt:lcidtoname_downlevel.obj
 0002:000027f8       ??_C@_1M@LJMAMNPJ@?$AAs?$AAq?$AA?9?$AAA?$AAL?$AA?$AA@ 100167f8     libucrt:lcidtoname_downlevel.obj
 0002:00002804       ??_C@_1M@GIAKDKJK@?$AAs?$AAv?$AA?9?$AAS?$AAE?$AA?$AA@ 10016804     libucrt:lcidtoname_downlevel.obj
 0002:00002810       ??_C@_1M@MKJKIKCL@?$AAt?$AAh?$AA?9?$AAT?$AAH?$AA?$AA@ 10016810     libucrt:lcidtoname_downlevel.obj
 0002:0000281c       ??_C@_1M@MFLCCMPB@?$AAt?$AAr?$AA?9?$AAT?$AAR?$AA?$AA@ 1001681c     libucrt:lcidtoname_downlevel.obj
 0002:00002828       ??_C@_1M@OIJHDKJN@?$AAu?$AAr?$AA?9?$AAP?$AAK?$AA?$AA@ 10016828     libucrt:lcidtoname_downlevel.obj
 0002:00002834       ??_C@_1M@LHIPCIEK@?$AAi?$AAd?$AA?9?$AAI?$AAD?$AA?$AA@ 10016834     libucrt:lcidtoname_downlevel.obj
 0002:00002840       ??_C@_1M@MFMOBGI@?$AAu?$AAk?$AA?9?$AAU?$AAA?$AA?$AA@ 10016840     libucrt:lcidtoname_downlevel.obj
 0002:0000284c       ??_C@_1M@OBGLJIPL@?$AAb?$AAe?$AA?9?$AAB?$AAY?$AA?$AA@ 1001684c     libucrt:lcidtoname_downlevel.obj
 0002:00002858       ??_C@_1M@BCFAJEAD@?$AAs?$AAl?$AA?9?$AAS?$AAI?$AA?$AA@ 10016858     libucrt:lcidtoname_downlevel.obj
 0002:00002864       ??_C@_1M@FKFFEDDN@?$AAe?$AAt?$AA?9?$AAE?$AAE?$AA?$AA@ 10016864     libucrt:lcidtoname_downlevel.obj
 0002:00002870       ??_C@_1M@KGKKAACI@?$AAl?$AAv?$AA?9?$AAL?$AAV?$AA?$AA@ 10016870     libucrt:lcidtoname_downlevel.obj
 0002:0000287c       ??_C@_1M@IFGBIJO@?$AAl?$AAt?$AA?9?$AAL?$AAT?$AA?$AA@ 1001687c     libucrt:lcidtoname_downlevel.obj
 0002:00002888       ??_C@_1M@FGEAHEDM@?$AAf?$AAa?$AA?9?$AAI?$AAR?$AA?$AA@ 10016888     libucrt:lcidtoname_downlevel.obj
 0002:00002894       ??_C@_1M@KBMAIBFN@?$AAv?$AAi?$AA?9?$AAV?$AAN?$AA?$AA@ 10016894     libucrt:lcidtoname_downlevel.obj
 0002:000028a0       ??_C@_1M@GPCBKDJK@?$AAh?$AAy?$AA?9?$AAA?$AAM?$AA?$AA@ 100168a0     libucrt:lcidtoname_downlevel.obj
 0002:000028ac       ??_C@_1BG@BECMDDJB@?$AAa?$AAz?$AA?9?$AAA?$AAZ?$AA?9?$AAL?$AAa?$AAt?$AAn?$AA?$AA@ 100168ac     libucrt:lcidtoname_downlevel.obj
 0002:000028c4       ??_C@_1M@MAOFCAEA@?$AAe?$AAu?$AA?9?$AAE?$AAS?$AA?$AA@ 100168c4     libucrt:lcidtoname_downlevel.obj
 0002:000028d0       ??_C@_1M@IGHABKPI@?$AAm?$AAk?$AA?9?$AAM?$AAK?$AA?$AA@ 100168d0     libucrt:lcidtoname_downlevel.obj
 0002:000028dc       ??_C@_1M@IAIGNEJG@?$AAt?$AAn?$AA?9?$AAZ?$AAA?$AA?$AA@ 100168dc     libucrt:lcidtoname_downlevel.obj
 0002:000028e8       ??_C@_1M@IIJCOJFA@?$AAx?$AAh?$AA?9?$AAZ?$AAA?$AA?$AA@ 100168e8     libucrt:lcidtoname_downlevel.obj
 0002:000028f4       ??_C@_1M@LGPJHNJH@?$AAz?$AAu?$AA?9?$AAZ?$AAA?$AA?$AA@ 100168f4     libucrt:lcidtoname_downlevel.obj
 0002:00002900       ??_C@_1M@HOKAOIO@?$AAa?$AAf?$AA?9?$AAZ?$AAA?$AA?$AA@ 10016900     libucrt:lcidtoname_downlevel.obj
 0002:0000290c       ??_C@_1M@DPCLHLIE@?$AAk?$AAa?$AA?9?$AAG?$AAE?$AA?$AA@ 1001690c     libucrt:lcidtoname_downlevel.obj
 0002:00002918       ??_C@_1M@BLKMHJBI@?$AAf?$AAo?$AA?9?$AAF?$AAO?$AA?$AA@ 10016918     libucrt:lcidtoname_downlevel.obj
 0002:00002924       ??_C@_1M@LGGJAPPB@?$AAh?$AAi?$AA?9?$AAI?$AAN?$AA?$AA@ 10016924     libucrt:lcidtoname_downlevel.obj
 0002:00002930       ??_C@_1M@FIKPIHFE@?$AAm?$AAt?$AA?9?$AAM?$AAT?$AA?$AA@ 10016930     libucrt:lcidtoname_downlevel.obj
 0002:0000293c       ??_C@_1M@HEGGPBFA@?$AAs?$AAe?$AA?9?$AAN?$AAO?$AA?$AA@ 1001693c     libucrt:lcidtoname_downlevel.obj
 0002:00002948       ??_C@_1M@EIBJEEPA@?$AAm?$AAs?$AA?9?$AAM?$AAY?$AA?$AA@ 10016948     libucrt:lcidtoname_downlevel.obj
 0002:00002954       ??_C@_1M@FHLBGMPP@?$AAk?$AAk?$AA?9?$AAK?$AAZ?$AA?$AA@ 10016954     libucrt:lcidtoname_downlevel.obj
 0002:00002960       ??_C@_1M@NGJJLCGI@?$AAk?$AAy?$AA?9?$AAK?$AAG?$AA?$AA@ 10016960     libucrt:lcidtoname_downlevel.obj
 0002:0000296c       ??_C@_1M@GIENNBFC@?$AAs?$AAw?$AA?9?$AAK?$AAE?$AA?$AA@ 1001696c     libucrt:lcidtoname_downlevel.obj
 0002:00002978       ??_C@_1BG@NDGMJIMJ@?$AAu?$AAz?$AA?9?$AAU?$AAZ?$AA?9?$AAL?$AAa?$AAt?$AAn?$AA?$AA@ 10016978     libucrt:lcidtoname_downlevel.obj
 0002:00002990       ??_C@_1M@IDCCIHBC@?$AAt?$AAt?$AA?9?$AAR?$AAU?$AA?$AA@ 10016990     libucrt:lcidtoname_downlevel.obj
 0002:0000299c       ??_C@_1M@LOICPMOJ@?$AAb?$AAn?$AA?9?$AAI?$AAN?$AA?$AA@ 1001699c     libucrt:lcidtoname_downlevel.obj
 0002:000029a8       ??_C@_1M@KPKKNEAH@?$AAp?$AAa?$AA?9?$AAI?$AAN?$AA?$AA@ 100169a8     libucrt:lcidtoname_downlevel.obj
 0002:000029b4       ??_C@_1M@PJGPPBOG@?$AAg?$AAu?$AA?9?$AAI?$AAN?$AA?$AA@ 100169b4     libucrt:lcidtoname_downlevel.obj
 0002:000029c0       ??_C@_1M@KMKMOPHI@?$AAt?$AAa?$AA?9?$AAI?$AAN?$AA?$AA@ 100169c0     libucrt:lcidtoname_downlevel.obj
 0002:000029cc       ??_C@_1M@KFEHEPAC@?$AAt?$AAe?$AA?9?$AAI?$AAN?$AA?$AA@ 100169cc     libucrt:lcidtoname_downlevel.obj
 0002:000029d8       ??_C@_1M@CDCLMGHI@?$AAk?$AAn?$AA?9?$AAI?$AAN?$AA?$AA@ 100169d8     libucrt:lcidtoname_downlevel.obj
 0002:000029e4       ??_C@_1M@MIODLDKF@?$AAm?$AAl?$AA?9?$AAI?$AAN?$AA?$AA@ 100169e4     libucrt:lcidtoname_downlevel.obj
 0002:000029f0       ??_C@_1M@PBIEACPO@?$AAm?$AAr?$AA?9?$AAI?$AAN?$AA?$AA@ 100169f0     libucrt:lcidtoname_downlevel.obj
 0002:000029fc       ??_C@_1M@NIDEAGPH@?$AAs?$AAa?$AA?9?$AAI?$AAN?$AA?$AA@ 100169fc     libucrt:lcidtoname_downlevel.obj
 0002:00002a08       ??_C@_1M@FHIHCBIO@?$AAm?$AAn?$AA?9?$AAM?$AAN?$AA?$AA@ 10016a08     libucrt:lcidtoname_downlevel.obj
 0002:00002a14       ??_C@_1M@JAIJPENP@?$AAc?$AAy?$AA?9?$AAG?$AAB?$AA?$AA@ 10016a14     libucrt:lcidtoname_downlevel.obj
 0002:00002a20       ??_C@_1M@PHGFBEPN@?$AAg?$AAl?$AA?9?$AAE?$AAS?$AA?$AA@ 10016a20     libucrt:lcidtoname_downlevel.obj
 0002:00002a2c       ??_C@_1O@KPIPDNCP@?$AAk?$AAo?$AAk?$AA?9?$AAI?$AAN?$AA?$AA@ 10016a2c     libucrt:lcidtoname_downlevel.obj
 0002:00002a3c       ??_C@_1O@KNHJLDJA@?$AAs?$AAy?$AAr?$AA?9?$AAS?$AAY?$AA?$AA@ 10016a3c     libucrt:lcidtoname_downlevel.obj
 0002:00002a4c       ??_C@_1O@MKEKBLAH@?$AAd?$AAi?$AAv?$AA?9?$AAM?$AAV?$AA?$AA@ 10016a4c     libucrt:lcidtoname_downlevel.obj
 0002:00002a5c       ??_C@_1O@OHDCKDDF@?$AAq?$AAu?$AAz?$AA?9?$AAB?$AAO?$AA?$AA@ 10016a5c     libucrt:lcidtoname_downlevel.obj
 0002:00002a6c       ??_C@_1M@LEPJNLFD@?$AAn?$AAs?$AA?9?$AAZ?$AAA?$AA?$AA@ 10016a6c     libucrt:lcidtoname_downlevel.obj
 0002:00002a78       ??_C@_1M@OMLEIIJB@?$AAm?$AAi?$AA?9?$AAN?$AAZ?$AA?$AA@ 10016a78     libucrt:lcidtoname_downlevel.obj
 0002:00002a84       ??_C@_1M@PMPEAILG@?$AAa?$AAr?$AA?9?$AAI?$AAQ?$AA?$AA@ 10016a84     libucrt:lcidtoname_downlevel.obj
 0002:00002a90       ??_C@_1M@CNKPNOEE@?$AAd?$AAe?$AA?9?$AAC?$AAH?$AA?$AA@ 10016a90     libucrt:lcidtoname_downlevel.obj
 0002:00002a9c       ??_C@_1M@LKMGMLKO@?$AAe?$AAn?$AA?9?$AAG?$AAB?$AA?$AA@ 10016a9c     libucrt:lcidtoname_downlevel.obj
 0002:00002aa8       ??_C@_1M@PGKJFFGL@?$AAe?$AAs?$AA?9?$AAM?$AAX?$AA?$AA@ 10016aa8     libucrt:lcidtoname_downlevel.obj
 0002:00002ab4       ??_C@_1M@DNNANBDC@?$AAf?$AAr?$AA?9?$AAB?$AAE?$AA?$AA@ 10016ab4     libucrt:lcidtoname_downlevel.obj
 0002:00002ac0       ??_C@_1M@HLGMDFHM@?$AAi?$AAt?$AA?9?$AAC?$AAH?$AA?$AA@ 10016ac0     libucrt:lcidtoname_downlevel.obj
 0002:00002acc       ??_C@_1M@CLLBGJH@?$AAn?$AAl?$AA?9?$AAB?$AAE?$AA?$AA@ 10016acc     libucrt:lcidtoname_downlevel.obj
 0002:00002ad8       ??_C@_1M@BODBOGLF@?$AAn?$AAn?$AA?9?$AAN?$AAO?$AA?$AA@ 10016ad8     libucrt:lcidtoname_downlevel.obj
 0002:00002ae4       ??_C@_1M@HFFAHKAD@?$AAp?$AAt?$AA?9?$AAP?$AAT?$AA?$AA@ 10016ae4     libucrt:lcidtoname_downlevel.obj
 0002:00002af0       ??_C@_1BG@LNOAKHIE@?$AAs?$AAr?$AA?9?$AAS?$AAP?$AA?9?$AAL?$AAa?$AAt?$AAn?$AA?$AA@ 10016af0     libucrt:lcidtoname_downlevel.obj
 0002:00002b08       ??_C@_1M@HBMHBGAK@?$AAs?$AAv?$AA?9?$AAF?$AAI?$AA?$AA@ 10016b08     libucrt:lcidtoname_downlevel.obj
 0002:00002b14       ??_C@_1BG@DGCJGJBE@?$AAa?$AAz?$AA?9?$AAA?$AAZ?$AA?9?$AAC?$AAy?$AAr?$AAl?$AA?$AA@ 10016b14     libucrt:lcidtoname_downlevel.obj
 0002:00002b2c       ??_C@_1M@KEJDAAHB@?$AAs?$AAe?$AA?9?$AAS?$AAE?$AA?$AA@ 10016b2c     libucrt:lcidtoname_downlevel.obj
 0002:00002b38       ??_C@_1M@HEIBJJAD@?$AAm?$AAs?$AA?9?$AAB?$AAN?$AA?$AA@ 10016b38     libucrt:lcidtoname_downlevel.obj
 0002:00002b44       ??_C@_1BG@PBGJMCEM@?$AAu?$AAz?$AA?9?$AAU?$AAZ?$AA?9?$AAC?$AAy?$AAr?$AAl?$AA?$AA@ 10016b44     libucrt:lcidtoname_downlevel.obj
 0002:00002b5c       ??_C@_1O@LAOBCMDF@?$AAq?$AAu?$AAz?$AA?9?$AAE?$AAC?$AA?$AA@ 10016b5c     libucrt:lcidtoname_downlevel.obj
 0002:00002b6c       ??_C@_1M@POEEMAIO@?$AAa?$AAr?$AA?9?$AAE?$AAG?$AA?$AA@ 10016b6c     libucrt:lcidtoname_downlevel.obj
 0002:00002b78       ??_C@_1M@EFAKDEDL@?$AAz?$AAh?$AA?9?$AAH?$AAK?$AA?$AA@ 10016b78     libucrt:lcidtoname_downlevel.obj
 0002:00002b84       ??_C@_1M@HKKIJHGI@?$AAd?$AAe?$AA?9?$AAA?$AAT?$AA?$AA@ 10016b84     libucrt:lcidtoname_downlevel.obj
 0002:00002b90       ??_C@_1M@KBFBEHJF@?$AAe?$AAn?$AA?9?$AAA?$AAU?$AA?$AA@ 10016b90     libucrt:lcidtoname_downlevel.obj
 0002:00002b9c       ??_C@_1M@MNPLFAAH@?$AAe?$AAs?$AA?9?$AAE?$AAS?$AA?$AA@ 10016b9c     libucrt:lcidtoname_downlevel.obj
 0002:00002ba8       ??_C@_1M@HJOOJFMA@?$AAf?$AAr?$AA?9?$AAC?$AAA?$AA?$AA@ 10016ba8     libucrt:lcidtoname_downlevel.obj
 0002:00002bb4       ??_C@_1BG@JPOFPNAB@?$AAs?$AAr?$AA?9?$AAS?$AAP?$AA?9?$AAC?$AAy?$AAr?$AAl?$AA?$AA@ 10016bb4     libucrt:lcidtoname_downlevel.obj
 0002:00002bcc       ??_C@_1M@LNFOCMOB@?$AAs?$AAe?$AA?9?$AAF?$AAI?$AA?$AA@ 10016bcc     libucrt:lcidtoname_downlevel.obj
 0002:00002bd8       ??_C@_1O@MGJBOAMB@?$AAq?$AAu?$AAz?$AA?9?$AAP?$AAE?$AA?$AA@ 10016bd8     libucrt:lcidtoname_downlevel.obj
 0002:00002be8       ??_C@_1M@GJINLBOK@?$AAa?$AAr?$AA?9?$AAL?$AAY?$AA?$AA@ 10016be8     libucrt:lcidtoname_downlevel.obj
 0002:00002bf4       ??_C@_1M@GGMNHJNL@?$AAz?$AAh?$AA?9?$AAS?$AAG?$AA?$AA@ 10016bf4     libucrt:lcidtoname_downlevel.obj
 0002:00002c00       ??_C@_1M@HOIKODND@?$AAd?$AAe?$AA?9?$AAL?$AAU?$AA?$AA@ 10016c00     libucrt:lcidtoname_downlevel.obj
 0002:00002c0c       ??_C@_1M@DDOCCGFG@?$AAe?$AAn?$AA?9?$AAC?$AAA?$AA?$AA@ 10016c0c     libucrt:lcidtoname_downlevel.obj
 0002:00002c18       ??_C@_1M@BNOEMJLF@?$AAe?$AAs?$AA?9?$AAG?$AAT?$AA?$AA@ 10016c18     libucrt:lcidtoname_downlevel.obj
 0002:00002c24       ??_C@_1M@EOGNKEK@?$AAf?$AAr?$AA?9?$AAC?$AAH?$AA?$AA@ 10016c24     libucrt:lcidtoname_downlevel.obj
 0002:00002c30       ??_C@_1M@FLIDJFHL@?$AAh?$AAr?$AA?9?$AAB?$AAA?$AA?$AA@ 10016c30     libucrt:lcidtoname_downlevel.obj
 0002:00002c3c       ??_C@_1O@FMCELNAJ@?$AAs?$AAm?$AAj?$AA?9?$AAN?$AAO?$AA?$AA@ 10016c3c     libucrt:lcidtoname_downlevel.obj
 0002:00002c4c       ??_C@_1M@JHGLJMGJ@?$AAa?$AAr?$AA?9?$AAD?$AAZ?$AA?$AA@ 10016c4c     libucrt:lcidtoname_downlevel.obj
 0002:00002c58       ??_C@_1M@JKKFDCNP@?$AAz?$AAh?$AA?9?$AAM?$AAO?$AA?$AA@ 10016c58     libucrt:lcidtoname_downlevel.obj
 0002:00002c64       ??_C@_1M@GEEFALPE@?$AAd?$AAe?$AA?9?$AAL?$AAI?$AA?$AA@ 10016c64     libucrt:lcidtoname_downlevel.obj
 0002:00002c70       ??_C@_1M@IGEOFBG@?$AAe?$AAn?$AA?9?$AAN?$AAZ?$AA?$AA@ 10016c70     libucrt:lcidtoname_downlevel.obj
 0002:00002c7c       ??_C@_1M@KDBONEHP@?$AAe?$AAs?$AA?9?$AAC?$AAR?$AA?$AA@ 10016c7c     libucrt:lcidtoname_downlevel.obj
 0002:00002c88       ??_C@_1M@FHMDOHNN@?$AAf?$AAr?$AA?9?$AAL?$AAU?$AA?$AA@ 10016c88     libucrt:lcidtoname_downlevel.obj
 0002:00002c94       ??_C@_1BG@NFKKMAFG@?$AAb?$AAs?$AA?9?$AAB?$AAA?$AA?9?$AAL?$AAa?$AAt?$AAn?$AA?$AA@ 10016c94     libucrt:lcidtoname_downlevel.obj
 0002:00002cac       ??_C@_1O@IMNBEMCI@?$AAs?$AAm?$AAj?$AA?9?$AAS?$AAE?$AA?$AA@ 10016cac     libucrt:lcidtoname_downlevel.obj
 0002:00002cbc       ??_C@_1M@DHHMBNDP@?$AAa?$AAr?$AA?9?$AAM?$AAA?$AA?$AA@ 10016cbc     libucrt:lcidtoname_downlevel.obj
 0002:00002cc8       ??_C@_1M@BNBLJCGH@?$AAe?$AAn?$AA?9?$AAI?$AAE?$AA?$AA@ 10016cc8     libucrt:lcidtoname_downlevel.obj
 0002:00002cd4       ??_C@_1M@GEPAFMDL@?$AAe?$AAs?$AA?9?$AAP?$AAA?$AA?$AA@ 10016cd4     libucrt:lcidtoname_downlevel.obj
 0002:00002ce0       ??_C@_1M@OJONDMDL@?$AAf?$AAr?$AA?9?$AAM?$AAC?$AA?$AA@ 10016ce0     libucrt:lcidtoname_downlevel.obj
 0002:00002cec       ??_C@_1BG@OBCNFJB@?$AAs?$AAr?$AA?9?$AAB?$AAA?$AA?9?$AAL?$AAa?$AAt?$AAn?$AA?$AA@ 10016cec     libucrt:lcidtoname_downlevel.obj
 0002:00002d04       ??_C@_1O@KEMEEGPO@?$AAs?$AAm?$AAa?$AA?9?$AAN?$AAO?$AA?$AA@ 10016d04     libucrt:lcidtoname_downlevel.obj
 0002:00002d14       ??_C@_1M@ELMGFODK@?$AAa?$AAr?$AA?9?$AAT?$AAN?$AA?$AA@ 10016d14     libucrt:lcidtoname_downlevel.obj
 0002:00002d20       ??_C@_1M@BHDLHFAF@?$AAe?$AAn?$AA?9?$AAZ?$AAA?$AA?$AA@ 10016d20     libucrt:lcidtoname_downlevel.obj
 0002:00002d2c       ??_C@_1M@BMGIGLIF@?$AAe?$AAs?$AA?9?$AAD?$AAO?$AA?$AA@ 10016d2c     libucrt:lcidtoname_downlevel.obj
 0002:00002d38       ??_C@_1BG@CMBHIPBE@?$AAs?$AAr?$AA?9?$AAB?$AAA?$AA?9?$AAC?$AAy?$AAr?$AAl?$AA?$AA@ 10016d38     libucrt:lcidtoname_downlevel.obj
 0002:00002d50       ??_C@_1O@HEDBLHNP@?$AAs?$AAm?$AAa?$AA?9?$AAS?$AAE?$AA?$AA@ 10016d50     libucrt:lcidtoname_downlevel.obj
 0002:00002d60       ??_C@_1M@DAGCADIM@?$AAa?$AAr?$AA?9?$AAO?$AAM?$AA?$AA@ 10016d60     libucrt:lcidtoname_downlevel.obj
 0002:00002d6c       ??_C@_1M@FODLMICG@?$AAe?$AAn?$AA?9?$AAJ?$AAM?$AA?$AA@ 10016d6c     libucrt:lcidtoname_downlevel.obj
 0002:00002d78       ??_C@_1M@DNMLCIHB@?$AAe?$AAs?$AA?9?$AAV?$AAE?$AA?$AA@ 10016d78     libucrt:lcidtoname_downlevel.obj
 0002:00002d84       ??_C@_1O@EOKHMKJK@?$AAs?$AAm?$AAs?$AA?9?$AAF?$AAI?$AA?$AA@ 10016d84     libucrt:lcidtoname_downlevel.obj
 0002:00002d94       ??_C@_1M@CAFJMKOF@?$AAa?$AAr?$AA?9?$AAY?$AAE?$AA?$AA@ 10016d94     libucrt:lcidtoname_downlevel.obj
 0002:00002da0       ??_C@_1M@CBFHIJLI@?$AAe?$AAn?$AA?9?$AAC?$AAB?$AA?$AA@ 10016da0     libucrt:lcidtoname_downlevel.obj
 0002:00002dac       ??_C@_1M@BGNFLDN@?$AAe?$AAs?$AA?9?$AAC?$AAO?$AA?$AA@ 10016dac     libucrt:lcidtoname_downlevel.obj
 0002:00002db8       ??_C@_1O@JMPHMAMC@?$AAs?$AAm?$AAn?$AA?9?$AAF?$AAI?$AA?$AA@ 10016db8     libucrt:lcidtoname_downlevel.obj
 0002:00002dc8       ??_C@_1M@JLANABKE@?$AAa?$AAr?$AA?9?$AAS?$AAY?$AA?$AA@ 10016dc8     libucrt:lcidtoname_downlevel.obj
 0002:00002dd4       ??_C@_1M@HPKGCFGN@?$AAe?$AAn?$AA?9?$AAB?$AAZ?$AA?$AA@ 10016dd4     libucrt:lcidtoname_downlevel.obj
 0002:00002de0       ??_C@_1M@OLJCMLGM@?$AAe?$AAs?$AA?9?$AAP?$AAE?$AA?$AA@ 10016de0     libucrt:lcidtoname_downlevel.obj
 0002:00002dec       ??_C@_1M@MKKGFKLE@?$AAa?$AAr?$AA?9?$AAJ?$AAO?$AA?$AA@ 10016dec     libucrt:lcidtoname_downlevel.obj
 0002:00002df8       ??_C@_1M@EKPGLDNI@?$AAe?$AAn?$AA?9?$AAT?$AAT?$AA?$AA@ 10016df8     libucrt:lcidtoname_downlevel.obj
 0002:00002e04       ??_C@_1M@OONGHFHE@?$AAe?$AAs?$AA?9?$AAA?$AAR?$AA?$AA@ 10016e04     libucrt:lcidtoname_downlevel.obj
 0002:00002e10       ??_C@_1M@OOJFGBHE@?$AAa?$AAr?$AA?9?$AAL?$AAB?$AA?$AA@ 10016e10     libucrt:lcidtoname_downlevel.obj
 0002:00002e1c       ??_C@_1M@GCEJHNEG@?$AAe?$AAn?$AA?9?$AAZ?$AAW?$AA?$AA@ 10016e1c     libucrt:lcidtoname_downlevel.obj
 0002:00002e28       ??_C@_1M@JNOCAHJI@?$AAe?$AAs?$AA?9?$AAE?$AAC?$AA?$AA@ 10016e28     libucrt:lcidtoname_downlevel.obj
 0002:00002e34       ??_C@_1M@JEFHPGGB@?$AAa?$AAr?$AA?9?$AAK?$AAW?$AA?$AA@ 10016e34     libucrt:lcidtoname_downlevel.obj
 0002:00002e40       ??_C@_1M@MLKIBJOJ@?$AAe?$AAn?$AA?9?$AAP?$AAH?$AA?$AA@ 10016e40     libucrt:lcidtoname_downlevel.obj
 0002:00002e4c       ??_C@_1M@BDNIPEND@?$AAe?$AAs?$AA?9?$AAC?$AAL?$AA?$AA@ 10016e4c     libucrt:lcidtoname_downlevel.obj
 0002:00002e58       ??_C@_1M@MPNMEKBD@?$AAa?$AAr?$AA?9?$AAA?$AAE?$AA?$AA@ 10016e58     libucrt:lcidtoname_downlevel.obj
 0002:00002e64       ??_C@_1M@KBJALCPI@?$AAe?$AAs?$AA?9?$AAU?$AAY?$AA?$AA@ 10016e64     libucrt:lcidtoname_downlevel.obj
 0002:00002e70       ??_C@_1M@LLCCOAGA@?$AAa?$AAr?$AA?9?$AAB?$AAH?$AA?$AA@ 10016e70     libucrt:lcidtoname_downlevel.obj
 0002:00002e7c       ??_C@_1M@PBFNCDEL@?$AAe?$AAs?$AA?9?$AAP?$AAY?$AA?$AA@ 10016e7c     libucrt:lcidtoname_downlevel.obj
 0002:00002e88       ??_C@_1M@EDGINPNP@?$AAa?$AAr?$AA?9?$AAQ?$AAA?$AA?$AA@ 10016e88     libucrt:lcidtoname_downlevel.obj
 0002:00002e94       ??_C@_1M@MKDBIIJI@?$AAe?$AAs?$AA?9?$AAB?$AAO?$AA?$AA@ 10016e94     libucrt:lcidtoname_downlevel.obj
 0002:00002ea0       ??_C@_1M@CPKKEBLD@?$AAe?$AAs?$AA?9?$AAS?$AAV?$AA?$AA@ 10016ea0     libucrt:lcidtoname_downlevel.obj
 0002:00002eac       ??_C@_1M@NDBGMMJL@?$AAe?$AAs?$AA?9?$AAH?$AAN?$AA?$AA@ 10016eac     libucrt:lcidtoname_downlevel.obj
 0002:00002eb8       ??_C@_1M@JIJIBHDP@?$AAe?$AAs?$AA?9?$AAN?$AAI?$AA?$AA@ 10016eb8     libucrt:lcidtoname_downlevel.obj
 0002:00002ec4       ??_C@_1M@CGFMKEEK@?$AAe?$AAs?$AA?9?$AAP?$AAR?$AA?$AA@ 10016ec4     libucrt:lcidtoname_downlevel.obj
 0002:00002ed0       ??_C@_1O@ICJHKIIK@?$AAz?$AAh?$AA?9?$AAC?$AAH?$AAT?$AA?$AA@ 10016ed0     libucrt:lcidtoname_downlevel.obj
 0002:00002ee0       ??_C@_15CLNEJCE@?$AAs?$AAr?$AA?$AA@ 10016ee0     libucrt:lcidtoname_downlevel.obj
 0002:00003608       ??_C@_1M@KAHEKEIG@?$AAa?$AAf?$AA?9?$AAz?$AAa?$AA?$AA@ 10017608     libucrt:lcidtoname_downlevel.obj
 0002:00003614       ??_C@_1M@GIECOABL@?$AAa?$AAr?$AA?9?$AAa?$AAe?$AA?$AA@ 10017614     libucrt:lcidtoname_downlevel.obj
 0002:00003620       ??_C@_1M@BMLMEKGI@?$AAa?$AAr?$AA?9?$AAb?$AAh?$AA?$AA@ 10017620     libucrt:lcidtoname_downlevel.obj
 0002:0000362c       ??_C@_1M@DAPFDGGB@?$AAa?$AAr?$AA?9?$AAd?$AAz?$AA?$AA@ 1001762c     libucrt:lcidtoname_downlevel.obj
 0002:00003638       ??_C@_1M@FJNKGKIG@?$AAa?$AAr?$AA?9?$AAe?$AAg?$AA?$AA@ 10017638     libucrt:lcidtoname_downlevel.obj
 0002:00003644       ??_C@_1M@FLGKKCLO@?$AAa?$AAr?$AA?9?$AAi?$AAq?$AA?$AA@ 10017644     libucrt:lcidtoname_downlevel.obj
 0002:00003650       ??_C@_1M@GNDIPALM@?$AAa?$AAr?$AA?9?$AAj?$AAo?$AA?$AA@ 10017650     libucrt:lcidtoname_downlevel.obj
 0002:0000365c       ??_C@_1M@DDMJFMGJ@?$AAa?$AAr?$AA?9?$AAk?$AAw?$AA?$AA@ 1001765c     libucrt:lcidtoname_downlevel.obj
 0002:00003668       ??_C@_1M@EJALMLHM@?$AAa?$AAr?$AA?9?$AAl?$AAb?$AA?$AA@ 10017668     libucrt:lcidtoname_downlevel.obj
 0002:00003674       ??_C@_1M@MOBDBLOC@?$AAa?$AAr?$AA?9?$AAl?$AAy?$AA?$AA@ 10017674     libucrt:lcidtoname_downlevel.obj
 0002:00003680       ??_C@_1M@JAOCLHDH@?$AAa?$AAr?$AA?9?$AAm?$AAa?$AA?$AA@ 10017680     libucrt:lcidtoname_downlevel.obj
 0002:0000368c       ??_C@_1M@JHPMKJIE@?$AAa?$AAr?$AA?9?$AAo?$AAm?$AA?$AA@ 1001768c     libucrt:lcidtoname_downlevel.obj
 0002:00003698       ??_C@_1M@OEPGHFNH@?$AAa?$AAr?$AA?9?$AAq?$AAa?$AA?$AA@ 10017698     libucrt:lcidtoname_downlevel.obj
 0002:000036a4       ??_C@_1M@KJDONENM@?$AAa?$AAr?$AA?9?$AAs?$AAa?$AA?$AA@ 100176a4     libucrt:lcidtoname_downlevel.obj
 0002:000036b0       ??_C@_1M@DMJDKLKM@?$AAa?$AAr?$AA?9?$AAs?$AAy?$AA?$AA@ 100176b0     libucrt:lcidtoname_downlevel.obj
 0002:000036bc       ??_C@_1M@OMFIPEDC@?$AAa?$AAr?$AA?9?$AAt?$AAn?$AA?$AA@ 100176bc     libucrt:lcidtoname_downlevel.obj
 0002:000036c8       ??_C@_1M@IHMHGAON@?$AAa?$AAr?$AA?9?$AAy?$AAe?$AA?$AA@ 100176c8     libucrt:lcidtoname_downlevel.obj
 0002:000036d4       ??_C@_1BG@KDCPGJGB@?$AAa?$AAz?$AA?9?$AAa?$AAz?$AA?9?$AAc?$AAy?$AAr?$AAl?$AA?$AA@ 100176d4     libucrt:lcidtoname_downlevel.obj
 0002:000036ec       ??_C@_1BG@IBCKDDOE@?$AAa?$AAz?$AA?9?$AAa?$AAz?$AA?9?$AAl?$AAa?$AAt?$AAn?$AA?$AA@ 100176ec     libucrt:lcidtoname_downlevel.obj
 0002:00003704       ??_C@_1M@EGPFDCPD@?$AAb?$AAe?$AA?9?$AAb?$AAy?$AA?$AA@ 10017704     libucrt:lcidtoname_downlevel.obj
 0002:00003710       ??_C@_1M@PCMGMCGC@?$AAb?$AAg?$AA?9?$AAb?$AAg?$AA?$AA@ 10017710     libucrt:lcidtoname_downlevel.obj
 0002:0000371c       ??_C@_1M@BJBMFGOB@?$AAb?$AAn?$AA?9?$AAi?$AAn?$AA?$AA@ 1001771c     libucrt:lcidtoname_downlevel.obj
 0002:00003728       ??_C@_1BG@EAKMMACD@?$AAb?$AAs?$AA?9?$AAb?$AAa?$AA?9?$AAl?$AAa?$AAt?$AAn?$AA?$AA@ 10017728     libucrt:lcidtoname_downlevel.obj
 0002:00003740       ??_C@_1M@KGADAODK@?$AAc?$AAa?$AA?9?$AAe?$AAs?$AA?$AA@ 10017740     libucrt:lcidtoname_downlevel.obj
 0002:0000374c       ??_C@_1M@COAJPDHI@?$AAc?$AAs?$AA?9?$AAc?$AAz?$AA?$AA@ 1001774c     libucrt:lcidtoname_downlevel.obj
 0002:00003758       ??_C@_1M@DHBHFONH@?$AAc?$AAy?$AA?9?$AAg?$AAb?$AA?$AA@ 10017758     libucrt:lcidtoname_downlevel.obj
 0002:00003764       ??_C@_1M@IMGKELGA@?$AAd?$AAa?$AA?9?$AAd?$AAk?$AA?$AA@ 10017764     libucrt:lcidtoname_downlevel.obj
 0002:00003770       ??_C@_1M@NNDGDNGA@?$AAd?$AAe?$AA?9?$AAa?$AAt?$AA?$AA@ 10017770     libucrt:lcidtoname_downlevel.obj
 0002:0000377c       ??_C@_1M@IKDBHEEM@?$AAd?$AAe?$AA?9?$AAc?$AAh?$AA?$AA@ 1001777c     libucrt:lcidtoname_downlevel.obj
 0002:00003788       ??_C@_1M@GFFOJMCJ@?$AAd?$AAe?$AA?9?$AAd?$AAe?$AA?$AA@ 10017788     libucrt:lcidtoname_downlevel.obj
 0002:00003794       ??_C@_1M@MDNLKBPM@?$AAd?$AAe?$AA?9?$AAl?$AAi?$AA?$AA@ 10017794     libucrt:lcidtoname_downlevel.obj
 0002:000037a0       ??_C@_1M@NJBEEJNL@?$AAd?$AAe?$AA?9?$AAl?$AAu?$AA?$AA@ 100177a0     libucrt:lcidtoname_downlevel.obj
 0002:000037ac       ??_C@_1O@GNNELBAP@?$AAd?$AAi?$AAv?$AA?9?$AAm?$AAv?$AA?$AA@ 100177ac     libucrt:lcidtoname_downlevel.obj
 0002:000037bc       ??_C@_1M@EJLEOGAE@?$AAe?$AAl?$AA?9?$AAg?$AAr?$AA?$AA@ 100177bc     libucrt:lcidtoname_downlevel.obj
 0002:000037c8       ??_C@_1M@GMPONJN@?$AAe?$AAn?$AA?9?$AAa?$AAu?$AA?$AA@ 100177c8     libucrt:lcidtoname_downlevel.obj
 0002:000037d4       ??_C@_1M@NIDIIPGF@?$AAe?$AAn?$AA?9?$AAb?$AAz?$AA?$AA@ 100177d4     libucrt:lcidtoname_downlevel.obj
 0002:000037e0       ??_C@_1M@JEHMIMFO@?$AAe?$AAn?$AA?9?$AAc?$AAa?$AA?$AA@ 100177e0     libucrt:lcidtoname_downlevel.obj
 0002:000037ec       ??_C@_1M@IGMJCDLA@?$AAe?$AAn?$AA?9?$AAc?$AAb?$AA?$AA@ 100177ec     libucrt:lcidtoname_downlevel.obj
 0002:000037f8       ??_C@_1M@BNFIGBKG@?$AAe?$AAn?$AA?9?$AAg?$AAb?$AA?$AA@ 100177f8     libucrt:lcidtoname_downlevel.obj
 0002:00003804       ??_C@_1M@LKIFDIGP@?$AAe?$AAn?$AA?9?$AAi?$AAe?$AA?$AA@ 10017804     libucrt:lcidtoname_downlevel.obj
 0002:00003810       ??_C@_1M@PJKFGCCO@?$AAe?$AAn?$AA?9?$AAj?$AAm?$AA?$AA@ 10017810     libucrt:lcidtoname_downlevel.obj
 0002:0000381c       ??_C@_1M@KPPKEPBO@?$AAe?$AAn?$AA?9?$AAn?$AAz?$AA?$AA@ 1001781c     libucrt:lcidtoname_downlevel.obj
 0002:00003828       ??_C@_1M@GMDGLDOB@?$AAe?$AAn?$AA?9?$AAp?$AAh?$AA?$AA@ 10017828     libucrt:lcidtoname_downlevel.obj
 0002:00003834       ??_C@_1M@ONGIBJNA@?$AAe?$AAn?$AA?9?$AAt?$AAt?$AA?$AA@ 10017834     libucrt:lcidtoname_downlevel.obj
 0002:00003840       ??_C@_1M@LLODPCMM@?$AAe?$AAn?$AA?9?$AAu?$AAs?$AA?$AA@ 10017840     libucrt:lcidtoname_downlevel.obj
 0002:0000384c       ??_C@_1M@LAKFNPAN@?$AAe?$AAn?$AA?9?$AAz?$AAa?$AA?$AA@ 1001784c     libucrt:lcidtoname_downlevel.obj
 0002:00003858       ??_C@_1M@MFNHNHEO@?$AAe?$AAn?$AA?9?$AAz?$AAw?$AA?$AA@ 10017858     libucrt:lcidtoname_downlevel.obj
 0002:00003864       ??_C@_1M@EJEINPHM@?$AAe?$AAs?$AA?9?$AAa?$AAr?$AA?$AA@ 10017864     libucrt:lcidtoname_downlevel.obj
 0002:00003870       ??_C@_1M@GNKPCCJA@?$AAe?$AAs?$AA?9?$AAb?$AAo?$AA?$AA@ 10017870     libucrt:lcidtoname_downlevel.obj
 0002:0000387c       ??_C@_1M@LEEGFONL@?$AAe?$AAs?$AA?9?$AAc?$AAl?$AA?$AA@ 1001787c     libucrt:lcidtoname_downlevel.obj
 0002:00003888       ??_C@_1M@KGPDPBDF@?$AAe?$AAs?$AA?9?$AAc?$AAo?$AA?$AA@ 10017888     libucrt:lcidtoname_downlevel.obj
 0002:00003894       ??_C@_1M@EIAHOHH@?$AAe?$AAs?$AA?9?$AAc?$AAr?$AA?$AA@ 10017894     libucrt:lcidtoname_downlevel.obj
 0002:000038a0       ??_C@_1M@LLPGMBIN@?$AAe?$AAs?$AA?9?$AAd?$AAo?$AA?$AA@ 100178a0     libucrt:lcidtoname_downlevel.obj
 0002:000038ac       ??_C@_1M@DKHMKNJA@?$AAe?$AAs?$AA?9?$AAe?$AAc?$AA?$AA@ 100178ac     libucrt:lcidtoname_downlevel.obj
 0002:000038b8       ??_C@_1M@GKGFPKAP@?$AAe?$AAs?$AA?9?$AAe?$AAs?$AA?$AA@ 100178b8     libucrt:lcidtoname_downlevel.obj
 0002:000038c4       ??_C@_1M@LKHKGDLN@?$AAe?$AAs?$AA?9?$AAg?$AAt?$AA?$AA@ 100178c4     libucrt:lcidtoname_downlevel.obj
 0002:000038d0       ??_C@_1M@HEIIGGJD@?$AAe?$AAs?$AA?9?$AAh?$AAn?$AA?$AA@ 100178d0     libucrt:lcidtoname_downlevel.obj
 0002:000038dc       ??_C@_1M@FBDHPPGD@?$AAe?$AAs?$AA?9?$AAm?$AAx?$AA?$AA@ 100178dc     libucrt:lcidtoname_downlevel.obj
 0002:000038e8       ??_C@_1M@DPAGLNDH@?$AAe?$AAs?$AA?9?$AAn?$AAi?$AA?$AA@ 100178e8     libucrt:lcidtoname_downlevel.obj
 0002:000038f4       ??_C@_1M@MDGOPGDD@?$AAe?$AAs?$AA?9?$AAp?$AAa?$AA?$AA@ 100178f4     libucrt:lcidtoname_downlevel.obj
 0002:00003900       ??_C@_1M@EMAMGBGE@?$AAe?$AAs?$AA?9?$AAp?$AAe?$AA?$AA@ 10017900     libucrt:lcidtoname_downlevel.obj
 0002:0000390c       ??_C@_1M@IBMCAOEC@?$AAe?$AAs?$AA?9?$AAp?$AAr?$AA?$AA@ 1001790c     libucrt:lcidtoname_downlevel.obj
 0002:00003918       ??_C@_1M@FGMDIJED@?$AAe?$AAs?$AA?9?$AAp?$AAy?$AA?$AA@ 10017918     libucrt:lcidtoname_downlevel.obj
 0002:00003924       ??_C@_1M@IIDEOLLL@?$AAe?$AAs?$AA?9?$AAs?$AAv?$AA?$AA@ 10017924     libucrt:lcidtoname_downlevel.obj
 0002:00003930       ??_C@_1M@GAOBIPA@?$AAe?$AAs?$AA?9?$AAu?$AAy?$AA?$AA@ 10017930     libucrt:lcidtoname_downlevel.obj
 0002:0000393c       ??_C@_1M@JKFFICHJ@?$AAe?$AAs?$AA?9?$AAv?$AAe?$AA?$AA@ 1001793c     libucrt:lcidtoname_downlevel.obj
 0002:00003948       ??_C@_1M@PNMLOJDF@?$AAe?$AAt?$AA?9?$AAe?$AAe?$AA?$AA@ 10017948     libucrt:lcidtoname_downlevel.obj
 0002:00003954       ??_C@_1M@GHHLIKEI@?$AAe?$AAu?$AA?9?$AAe?$AAs?$AA?$AA@ 10017954     libucrt:lcidtoname_downlevel.obj
 0002:00003960       ??_C@_1M@PBNONODE@?$AAf?$AAa?$AA?9?$AAi?$AAr?$AA?$AA@ 10017960     libucrt:lcidtoname_downlevel.obj
 0002:0000396c       ??_C@_1M@JEEHPMIL@?$AAf?$AAi?$AA?9?$AAf?$AAi?$AA?$AA@ 1001796c     libucrt:lcidtoname_downlevel.obj
 0002:00003978       ??_C@_1M@LMDCNDBA@?$AAf?$AAo?$AA?9?$AAf?$AAo?$AA?$AA@ 10017978     libucrt:lcidtoname_downlevel.obj
 0002:00003984       ??_C@_1M@JKEOHLDK@?$AAf?$AAr?$AA?9?$AAb?$AAe?$AA?$AA@ 10017984     libucrt:lcidtoname_downlevel.obj
 0002:00003990       ??_C@_1M@NOHADPMI@?$AAf?$AAr?$AA?9?$AAc?$AAa?$AA?$AA@ 10017990     libucrt:lcidtoname_downlevel.obj
 0002:0000399c       ??_C@_1M@KDHIHAEC@?$AAf?$AAr?$AA?9?$AAc?$AAh?$AA?$AA@ 1001799c     libucrt:lcidtoname_downlevel.obj
 0002:000039a8       ??_C@_1M@MMBBFGAK@?$AAf?$AAr?$AA?9?$AAf?$AAr?$AA?$AA@ 100179a8     libucrt:lcidtoname_downlevel.obj
 0002:000039b4       ??_C@_1M@PAFNENNF@?$AAf?$AAr?$AA?9?$AAl?$AAu?$AA?$AA@ 100179b4     libucrt:lcidtoname_downlevel.obj
 0002:000039c0       ??_C@_1M@EOHDJGDD@?$AAf?$AAr?$AA?9?$AAm?$AAc?$AA?$AA@ 100179c0     libucrt:lcidtoname_downlevel.obj
 0002:000039cc       ??_C@_1M@FAPLLOPF@?$AAg?$AAl?$AA?9?$AAe?$AAs?$AA?$AA@ 100179cc     libucrt:lcidtoname_downlevel.obj
 0002:000039d8       ??_C@_1M@FOPBFLOO@?$AAg?$AAu?$AA?9?$AAi?$AAn?$AA?$AA@ 100179d8     libucrt:lcidtoname_downlevel.obj
 0002:000039e4       ??_C@_1M@KBMCINPM@?$AAh?$AAe?$AA?9?$AAi?$AAl?$AA?$AA@ 100179e4     libucrt:lcidtoname_downlevel.obj
 0002:000039f0       ??_C@_1M@BBPHKFPJ@?$AAh?$AAi?$AA?9?$AAi?$AAn?$AA?$AA@ 100179f0     libucrt:lcidtoname_downlevel.obj
 0002:000039fc       ??_C@_1M@PMBNDPHD@?$AAh?$AAr?$AA?9?$AAb?$AAa?$AA?$AA@ 100179fc     libucrt:lcidtoname_downlevel.obj
 0002:00003a08       ??_C@_1M@BPCKOEGE@?$AAh?$AAr?$AA?9?$AAh?$AAr?$AA?$AA@ 10017a08     libucrt:lcidtoname_downlevel.obj
 0002:00003a14       ??_C@_1M@GACBMHKE@?$AAh?$AAu?$AA?9?$AAh?$AAu?$AA?$AA@ 10017a14     libucrt:lcidtoname_downlevel.obj
 0002:00003a20       ??_C@_1M@MILPAJJC@?$AAh?$AAy?$AA?9?$AAa?$AAm?$AA?$AA@ 10017a20     libucrt:lcidtoname_downlevel.obj
 0002:00003a2c       ??_C@_1M@BABBICEC@?$AAi?$AAd?$AA?9?$AAi?$AAd?$AA?$AA@ 10017a2c     libucrt:lcidtoname_downlevel.obj
 0002:00003a38       ??_C@_1M@BIKNHHPF@?$AAi?$AAs?$AA?9?$AAi?$AAs?$AA?$AA@ 10017a38     libucrt:lcidtoname_downlevel.obj
 0002:00003a44       ??_C@_1M@NMPCJPHE@?$AAi?$AAt?$AA?9?$AAc?$AAh?$AA?$AA@ 10017a44     libucrt:lcidtoname_downlevel.obj
 0002:00003a50       ??_C@_1M@GHKGFEDF@?$AAi?$AAt?$AA?9?$AAi?$AAt?$AA?$AA@ 10017a50     libucrt:lcidtoname_downlevel.obj
 0002:00003a5c       ??_C@_1M@NIEJCJJA@?$AAj?$AAa?$AA?9?$AAj?$AAp?$AA?$AA@ 10017a5c     libucrt:lcidtoname_downlevel.obj
 0002:00003a68       ??_C@_1M@JILFNBIM@?$AAk?$AAa?$AA?9?$AAg?$AAe?$AA?$AA@ 10017a68     libucrt:lcidtoname_downlevel.obj
 0002:00003a74       ??_C@_1M@PACPMGPH@?$AAk?$AAk?$AA?9?$AAk?$AAz?$AA?$AA@ 10017a74     libucrt:lcidtoname_downlevel.obj
 0002:00003a80       ??_C@_1M@IELFGMHA@?$AAk?$AAn?$AA?9?$AAi?$AAn?$AA?$AA@ 10017a80     libucrt:lcidtoname_downlevel.obj
 0002:00003a8c       ??_C@_1O@IBBJHCH@?$AAk?$AAo?$AAk?$AA?9?$AAi?$AAn?$AA?$AA@ 10017a8c     libucrt:lcidtoname_downlevel.obj
 0002:00003a9c       ??_C@_1M@DMHAEOGC@?$AAk?$AAo?$AA?9?$AAk?$AAr?$AA?$AA@ 10017a9c     libucrt:lcidtoname_downlevel.obj
 0002:00003aa8       ??_C@_1M@HBAHBIGA@?$AAk?$AAy?$AA?9?$AAk?$AAg?$AA?$AA@ 10017aa8     libucrt:lcidtoname_downlevel.obj
 0002:00003ab4       ??_C@_1M@KPMILCJG@?$AAl?$AAt?$AA?9?$AAl?$AAt?$AA?$AA@ 10017ab4     libucrt:lcidtoname_downlevel.obj
 0002:00003ac0       ??_C@_1M@BDEKKCA@?$AAl?$AAv?$AA?9?$AAl?$AAv?$AA?$AA@ 10017ac0     libucrt:lcidtoname_downlevel.obj
 0002:00003acc       ??_C@_1M@ELCKCCJJ@?$AAm?$AAi?$AA?9?$AAn?$AAz?$AA?$AA@ 10017acc     libucrt:lcidtoname_downlevel.obj
 0002:00003ad8       ??_C@_1M@CBOOLAPA@?$AAm?$AAk?$AA?9?$AAm?$AAk?$AA?$AA@ 10017ad8     libucrt:lcidtoname_downlevel.obj
 0002:00003ae4       ??_C@_1M@GPHNBJKN@?$AAm?$AAl?$AA?9?$AAi?$AAn?$AA?$AA@ 10017ae4     libucrt:lcidtoname_downlevel.obj
 0002:00003af0       ??_C@_1M@PABJILIG@?$AAm?$AAn?$AA?9?$AAm?$AAn?$AA?$AA@ 10017af0     libucrt:lcidtoname_downlevel.obj
 0002:00003afc       ??_C@_1M@FGBKKIPG@?$AAm?$AAr?$AA?9?$AAi?$AAn?$AA?$AA@ 10017afc     libucrt:lcidtoname_downlevel.obj
 0002:00003b08       ??_C@_1M@NDBPDDAL@?$AAm?$AAs?$AA?9?$AAb?$AAn?$AA?$AA@ 10017b08     libucrt:lcidtoname_downlevel.obj
 0002:00003b14       ??_C@_1M@OPIHOOPI@?$AAm?$AAs?$AA?9?$AAm?$AAy?$AA?$AA@ 10017b14     libucrt:lcidtoname_downlevel.obj
 0002:00003b20       ??_C@_1M@PPDBCNFM@?$AAm?$AAt?$AA?9?$AAm?$AAt?$AA?$AA@ 10017b20     libucrt:lcidtoname_downlevel.obj
 0002:00003b2c       ??_C@_1M@KDJDKMDD@?$AAn?$AAb?$AA?9?$AAn?$AAo?$AA?$AA@ 10017b2c     libucrt:lcidtoname_downlevel.obj
 0002:00003b38       ??_C@_1M@KFCFLMJP@?$AAn?$AAl?$AA?9?$AAb?$AAe?$AA?$AA@ 10017b38     libucrt:lcidtoname_downlevel.obj
 0002:00003b44       ??_C@_1M@KPOPDDGO@?$AAn?$AAl?$AA?9?$AAn?$AAl?$AA?$AA@ 10017b44     libucrt:lcidtoname_downlevel.obj
 0002:00003b50       ??_C@_1M@LJKPEMLN@?$AAn?$AAn?$AA?9?$AAn?$AAo?$AA?$AA@ 10017b50     libucrt:lcidtoname_downlevel.obj
 0002:00003b5c       ??_C@_1M@BDGHHBFL@?$AAn?$AAs?$AA?9?$AAz?$AAa?$AA?$AA@ 10017b5c     libucrt:lcidtoname_downlevel.obj
 0002:00003b68       ??_C@_1M@IDEHOAP@?$AAp?$AAa?$AA?9?$AAi?$AAn?$AA?$AA@ 10017b68     libucrt:lcidtoname_downlevel.obj
 0002:00003b74       ??_C@_1M@HDBKGOGH@?$AAp?$AAl?$AA?9?$AAp?$AAl?$AA?$AA@ 10017b74     libucrt:lcidtoname_downlevel.obj
 0002:00003b80       ??_C@_1M@LJLLCMEH@?$AAp?$AAt?$AA?9?$AAb?$AAr?$AA?$AA@ 10017b80     libucrt:lcidtoname_downlevel.obj
 0002:00003b8c       ??_C@_1M@NCMONAAL@?$AAp?$AAt?$AA?9?$AAp?$AAt?$AA?$AA@ 10017b8c     libucrt:lcidtoname_downlevel.obj
 0002:00003b98       ??_C@_1O@EAKMAJDN@?$AAq?$AAu?$AAz?$AA?9?$AAb?$AAo?$AA?$AA@ 10017b98     libucrt:lcidtoname_downlevel.obj
 0002:00003ba8       ??_C@_1O@BHHPIGDN@?$AAq?$AAu?$AAz?$AA?9?$AAe?$AAc?$AA?$AA@ 10017ba8     libucrt:lcidtoname_downlevel.obj
 0002:00003bb8       ??_C@_1O@GBAPEKMJ@?$AAq?$AAu?$AAz?$AA?9?$AAp?$AAe?$AA?$AA@ 10017bb8     libucrt:lcidtoname_downlevel.obj
 0002:00003bc8       ??_C@_1M@CLGLEFBO@?$AAr?$AAo?$AA?9?$AAr?$AAo?$AA?$AA@ 10017bc8     libucrt:lcidtoname_downlevel.obj
 0002:00003bd4       ??_C@_1M@CEEDODME@?$AAr?$AAu?$AA?9?$AAr?$AAu?$AA?$AA@ 10017bd4     libucrt:lcidtoname_downlevel.obj
 0002:00003be0       ??_C@_1M@HPKKKMPP@?$AAs?$AAa?$AA?9?$AAi?$AAn?$AA?$AA@ 10017be0     libucrt:lcidtoname_downlevel.obj
 0002:00003bec       ??_C@_1M@BKMAIGOJ@?$AAs?$AAe?$AA?9?$AAf?$AAi?$AA?$AA@ 10017bec     libucrt:lcidtoname_downlevel.obj
 0002:00003bf8       ??_C@_1M@NDPIFLFI@?$AAs?$AAe?$AA?9?$AAn?$AAo?$AA?$AA@ 10017bf8     libucrt:lcidtoname_downlevel.obj
 0002:00003c04       ??_C@_1M@DANKKHJ@?$AAs?$AAe?$AA?9?$AAs?$AAe?$AA?$AA@ 10017c04     libucrt:lcidtoname_downlevel.obj
 0002:00003c10       ??_C@_1M@PNBLONPJ@?$AAs?$AAk?$AA?9?$AAs?$AAk?$AA?$AA@ 10017c10     libucrt:lcidtoname_downlevel.obj
 0002:00003c1c       ??_C@_1M@LFMODOAL@?$AAs?$AAl?$AA?9?$AAs?$AAi?$AA?$AA@ 10017c1c     libucrt:lcidtoname_downlevel.obj
 0002:00003c28       ??_C@_1O@DFKOMPG@?$AAs?$AAm?$AAa?$AA?9?$AAn?$AAo?$AA?$AA@ 10017c28     libucrt:lcidtoname_downlevel.obj
 0002:00003c38       ??_C@_1O@NDKPBNNH@?$AAs?$AAm?$AAa?$AA?9?$AAs?$AAe?$AA?$AA@ 10017c38     libucrt:lcidtoname_downlevel.obj
 0002:00003c48       ??_C@_1O@PLLKBHAB@?$AAs?$AAm?$AAj?$AA?9?$AAn?$AAo?$AA?$AA@ 10017c48     libucrt:lcidtoname_downlevel.obj
 0002:00003c58       ??_C@_1O@CLEPOGCA@?$AAs?$AAm?$AAj?$AA?9?$AAs?$AAe?$AA?$AA@ 10017c58     libucrt:lcidtoname_downlevel.obj
 0002:00003c68       ??_C@_1O@DLGJGKMK@?$AAs?$AAm?$AAn?$AA?9?$AAf?$AAi?$AA?$AA@ 10017c68     libucrt:lcidtoname_downlevel.obj
 0002:00003c78       ??_C@_1O@OJDJGAJC@?$AAs?$AAm?$AAs?$AA?9?$AAf?$AAi?$AA?$AA@ 10017c78     libucrt:lcidtoname_downlevel.obj
 0002:00003c88       ??_C@_1M@BOFOGHPB@?$AAs?$AAq?$AA?9?$AAa?$AAl?$AA?$AA@ 10017c88     libucrt:lcidtoname_downlevel.obj
 0002:00003c94       ??_C@_1BG@LJBBIPGB@?$AAs?$AAr?$AA?9?$AAb?$AAa?$AA?9?$AAc?$AAy?$AAr?$AAl?$AA?$AA@ 10017c94     libucrt:lcidtoname_downlevel.obj
 0002:00003cac       ??_C@_1BG@JLBENFOE@?$AAs?$AAr?$AA?9?$AAb?$AAa?$AA?9?$AAl?$AAa?$AAt?$AAn?$AA?$AA@ 10017cac     libucrt:lcidtoname_downlevel.obj
 0002:00003cc4       ??_C@_1BG@KODPNHE@?$AAs?$AAr?$AA?9?$AAs?$AAp?$AA?9?$AAc?$AAy?$AAr?$AAl?$AA?$AA@ 10017cc4     libucrt:lcidtoname_downlevel.obj
 0002:00003cdc       ??_C@_1BG@CIOGKHPB@?$AAs?$AAr?$AA?9?$AAs?$AAp?$AA?9?$AAl?$AAa?$AAt?$AAn?$AA?$AA@ 10017cdc     libucrt:lcidtoname_downlevel.obj
 0002:00003cf4       ??_C@_1M@NGFJLMAC@?$AAs?$AAv?$AA?9?$AAf?$AAi?$AA?$AA@ 10017cf4     libucrt:lcidtoname_downlevel.obj
 0002:00003d00       ??_C@_1M@MPJEJAJC@?$AAs?$AAv?$AA?9?$AAs?$AAe?$AA?$AA@ 10017d00     libucrt:lcidtoname_downlevel.obj
 0002:00003d0c       ??_C@_1M@MPNDHLFK@?$AAs?$AAw?$AA?9?$AAk?$AAe?$AA?$AA@ 10017d0c     libucrt:lcidtoname_downlevel.obj
 0002:00003d18       ??_C@_1O@KOHBJJI@?$AAs?$AAy?$AAr?$AA?9?$AAs?$AAy?$AA?$AA@ 10017d18     libucrt:lcidtoname_downlevel.obj
 0002:00003d28       ??_C@_1M@LDCEFHA@?$AAt?$AAa?$AA?9?$AAi?$AAn?$AA?$AA@ 10017d28     libucrt:lcidtoname_downlevel.obj
 0002:00003d34       ??_C@_1M@CNJOFAK@?$AAt?$AAe?$AA?9?$AAi?$AAn?$AA?$AA@ 10017d34     libucrt:lcidtoname_downlevel.obj
 0002:00003d40       ??_C@_1M@GNAECACD@?$AAt?$AAh?$AA?9?$AAt?$AAh?$AA?$AA@ 10017d40     libucrt:lcidtoname_downlevel.obj
 0002:00003d4c       ??_C@_1M@CHBIHOJO@?$AAt?$AAn?$AA?9?$AAz?$AAa?$AA?$AA@ 10017d4c     libucrt:lcidtoname_downlevel.obj
 0002:00003d58       ??_C@_1M@GCCMIGPJ@?$AAt?$AAr?$AA?9?$AAt?$AAr?$AA?$AA@ 10017d58     libucrt:lcidtoname_downlevel.obj
 0002:00003d64       ??_C@_1M@CELMCNBK@?$AAt?$AAt?$AA?9?$AAr?$AAu?$AA?$AA@ 10017d64     libucrt:lcidtoname_downlevel.obj
 0002:00003d70       ??_C@_1M@KLMCELGA@?$AAu?$AAk?$AA?9?$AAu?$AAa?$AA?$AA@ 10017d70     libucrt:lcidtoname_downlevel.obj
 0002:00003d7c       ??_C@_1M@EPAJJAJF@?$AAu?$AAr?$AA?9?$AAp?$AAk?$AA?$AA@ 10017d7c     libucrt:lcidtoname_downlevel.obj
 0002:00003d88       ??_C@_1BG@GEGPMCDJ@?$AAu?$AAz?$AA?9?$AAu?$AAz?$AA?9?$AAc?$AAy?$AAr?$AAl?$AA?$AA@ 10017d88     libucrt:lcidtoname_downlevel.obj
 0002:00003da0       ??_C@_1BG@EGGKJILM@?$AAu?$AAz?$AA?9?$AAu?$AAz?$AA?9?$AAl?$AAa?$AAt?$AAn?$AA?$AA@ 10017da0     libucrt:lcidtoname_downlevel.obj
 0002:00003db8       ??_C@_1M@GFOCLFF@?$AAv?$AAi?$AA?9?$AAv?$AAn?$AA?$AA@ 10017db8     libucrt:lcidtoname_downlevel.obj
 0002:00003dc4       ??_C@_1M@CPAMEDFI@?$AAx?$AAh?$AA?9?$AAz?$AAa?$AA?$AA@ 10017dc4     libucrt:lcidtoname_downlevel.obj
 0002:00003dd0       ??_C@_1O@EBKIFIGN@?$AAz?$AAh?$AA?9?$AAc?$AAh?$AAs?$AA?$AA@ 10017dd0     libucrt:lcidtoname_downlevel.obj
 0002:00003de0       ??_C@_1O@NMHPGANE@?$AAz?$AAh?$AA?9?$AAc?$AAh?$AAt?$AA?$AA@ 10017de0     libucrt:lcidtoname_downlevel.obj
 0002:00003df0       ??_C@_1M@LPINJOMC@?$AAz?$AAh?$AA?9?$AAc?$AAn?$AA?$AA@ 10017df0     libucrt:lcidtoname_downlevel.obj
 0002:00003dfc       ??_C@_1M@OCJEJODD@?$AAz?$AAh?$AA?9?$AAh?$AAk?$AA?$AA@ 10017dfc     libucrt:lcidtoname_downlevel.obj
 0002:00003e08       ??_C@_1M@DNDLJINH@?$AAz?$AAh?$AA?9?$AAm?$AAo?$AA?$AA@ 10017e08     libucrt:lcidtoname_downlevel.obj
 0002:00003e14       ??_C@_1M@MBFDNDND@?$AAz?$AAh?$AA?9?$AAs?$AAg?$AA?$AA@ 10017e14     libucrt:lcidtoname_downlevel.obj
 0002:00003e20       ??_C@_1M@IMEPLEPE@?$AAz?$AAh?$AA?9?$AAt?$AAw?$AA?$AA@ 10017e20     libucrt:lcidtoname_downlevel.obj
 0002:00003e2c       ??_C@_1M@BBGHNHJP@?$AAz?$AAu?$AA?9?$AAz?$AAa?$AA?$AA@ 10017e2c     libucrt:lcidtoname_downlevel.obj
 0002:00003fa0       __infinity                 10017fa0     libucrt:87tran.obj
 0002:00003faa       __minfinity                10017faa     libucrt:87tran.obj
 0002:00003fb4       __logemax                  10017fb4     libucrt:87tran.obj
 0002:00003fda       __OP_EXPjmptab             10017fda     libucrt:87tran.obj
 0002:00004000       __indefinite               10018000     libucrt:87disp.obj
 0002:0000400a       __piby2                    1001800a     libucrt:87disp.obj
 0002:00004014       __piby4                    10018014     libucrt:87disp.obj
 0002:00004048       __DEFAULT_CW_in_mem        10018048     libucrt:common.obj
 0002:0000404a       __pi_by_2_to_61            1001804a     libucrt:common.obj
 0002:00004084       ??_C@_03MGHMBJCF@log?$AA@  10018084     libucrt:libm_error.obj
 0002:00004088       ??_C@_05HGHHAHAP@log10?$AA@ 10018088     libucrt:libm_error.obj
 0002:00004090       ??_C@_03KHJOGHMM@exp?$AA@  10018090     libucrt:libm_error.obj
 0002:00004094       ??_C@_03JGHBODFD@pow?$AA@  10018094     libucrt:libm_error.obj
 0002:00004098       ??_C@_04FIHNOPOL@asin?$AA@ 10018098     libucrt:libm_error.obj
 0002:000040a0       ??_C@_04PDIFKINK@acos?$AA@ 100180a0     libucrt:libm_error.obj
 0002:000040a8       ??_C@_04EIAKFFMI@sqrt?$AA@ 100180a8     libucrt:libm_error.obj
 0002:000040b0       __real@3ff0000000000000    100180b0     libucrt:libm_error.obj
 0002:000040b8       ??_C@_1BA@BALFACEM@?$AAC?$AAO?$AAN?$AAO?$AAU?$AAT?$AA$?$AA?$AA@ 100180b8     libucrt:initcon.obj
 0002:000040e0       ___acrt_log10_table_t      100180e0     libucrt:log10_tables.obj
 0002:000044f0       ___acrt_log10_table_cb     100184f0     libucrt:log10_tables.obj
 0002:00004900       __real@3fe0000000000000    10018900     libucrt:powhlp.obj
 0002:00004908       ??_C@_04FJHINJAO@tanh?$AA@ 10018908     libucrt:fpexcept.obj
 0002:00004910       ??_C@_04MLLJIGOK@atan?$AA@ 10018910     libucrt:fpexcept.obj
 0002:00004918       ??_C@_05KNGEOGJB@atan2?$AA@ 10018918     libucrt:fpexcept.obj
 0002:00004920       ??_C@_03BLEJJJBH@sin?$AA@  10018920     libucrt:fpexcept.obj
 0002:00004924       ??_C@_03LALBNOCG@cos?$AA@  10018924     libucrt:fpexcept.obj
 0002:00004928       ??_C@_03IIINPABG@tan?$AA@  10018928     libucrt:fpexcept.obj
 0002:0000492c       ??_C@_04GFPJNGEK@ceil?$AA@ 1001892c     libucrt:fpexcept.obj
 0002:00004934       ??_C@_05PBJFFIGL@floor?$AA@ 10018934     libucrt:fpexcept.obj
 0002:0000493c       ??_C@_04ODHECPBC@fabs?$AA@ 1001893c     libucrt:fpexcept.obj
 0002:00004944       ??_C@_04EHEDPDJG@modf?$AA@ 10018944     libucrt:fpexcept.obj
 0002:0000494c       ??_C@_05CEJMAHNP@ldexp?$AA@ 1001894c     libucrt:fpexcept.obj
 0002:00004954       ??_C@_05KBKMEMPO@_cabs?$AA@ 10018954     libucrt:fpexcept.obj
 0002:0000495c       ??_C@_06MEIMCGCF@_hypot?$AA@ 1001895c     libucrt:fpexcept.obj
 0002:00004964       ??_C@_04KEPJIHGP@fmod?$AA@ 10018964     libucrt:fpexcept.obj
 0002:0000496c       ??_C@_05GKKHEGJL@frexp?$AA@ 1001896c     libucrt:fpexcept.obj
 0002:00004974       ??_C@_03MJLDFKDL@_y0?$AA@  10018974     libucrt:fpexcept.obj
 0002:00004978       ??_C@_03NAKIGLHK@_y1?$AA@  10018978     libucrt:fpexcept.obj
 0002:0000497c       ??_C@_03ONILCKOB@_yn?$AA@  1001897c     libucrt:fpexcept.obj
 0002:00004980       ??_C@_05JGDBENOH@_logb?$AA@ 10018980     libucrt:fpexcept.obj
 0002:00004988       ??_C@_0L@KDOEJCKC@_nextafter?$AA@ 10018988     libucrt:fpexcept.obj
 0002:00004a80       ??_C@_04COOMCNPB@sinh?$AA@ 10018a80     libucrt:fpexcept.obj
 0002:00004a88       ??_C@_04HPJJNFIM@cosh?$AA@ 10018a88     libucrt:fpexcept.obj
 0002:00004a90       __d_inf                    10018a90     libucrt:util.obj
 0002:00004a98       __d_max                    10018a98     libucrt:util.obj
 0002:00004aa0       __d_mzero                  10018aa0     libucrt:util.obj
 0002:00004aa8       ??_C@_1BK@DBDEIDLH@?$AAK?$AAE?$AAR?$AAN?$AAE?$AAL?$AA3?$AA2?$AA?4?$AAD?$AAL?$AAL?$AA?$AA@ 10018aa8     DelayImp:delayhlp.obj
 0002:00004ac4       ??_C@_0BI@OMNLIJDB@AcquireSRWLockExclusive?$AA@ 10018ac4     DelayImp:delayhlp.obj
 0002:00004adc       ??_C@_0BI@HMIEPCNJ@ReleaseSRWLockExclusive?$AA@ 10018adc     DelayImp:delayhlp.obj
 0002:00004af4       ___pfnDliFailureHook2      10018af4     DelayImp:delayhk1.obj
 0002:00004af8       __load_config_used         10018af8     LIBCMT:loadcfg.obj
 0002:00004b54       ??_C@_00CNPNBAHC@?$AA@     10018b54     memoryjs.obj
 0002:00004b58       ??_C@_0EA@PDHELIGJ@requires?51?5argument?0?5or?52?5argume@ 10018b58     memoryjs.obj
 0002:00004b98       ??_C@_0CM@HGGHHEEI@first?5argument?5must?5be?5a?5string?5@ 10018b98     memoryjs.obj
 0002:00004bc4       ??_C@_0CD@MMNPHDIN@second?5argument?5must?5be?5a?5functi@ 10018bc4     memoryjs.obj
 0002:00004be8       ??_C@_06HDDMAKPI@dwSize?$AA@ 10018be8     memoryjs.obj
 0002:00004bf0       ??_C@_0O@DKINBLMC@th32ProcessID?$AA@ 10018bf0     memoryjs.obj
 0002:00004c00       ??_C@_0L@IJHEGKNG@cntThreads?$AA@ 10018c00     memoryjs.obj
 0002:00004c0c       ??_C@_0BE@GDBHDJLD@th32ParentProcessID?$AA@ 10018c0c     memoryjs.obj
 0002:00004c20       ??_C@_0P@FIJHAFKK@pcPriClassBase?$AA@ 10018c20     memoryjs.obj
 0002:00004c30       ??_C@_09EKJPJELD@szExeFile?$AA@ 10018c30     memoryjs.obj
 0002:00004c3c       ??_C@_06NCGDPKCC@handle?$AA@ 10018c3c     memoryjs.obj
 0002:00004c44       ??_C@_0M@MDGLCEFM@modBaseAddr?$AA@ 10018c44     memoryjs.obj
 0002:00004c50       ??_C@_0BE@DJPLAIIO@requires?51?5argument?$AA@ 10018c50     memoryjs.obj
 0002:00004c64       ??_C@_0CA@OPHEMBL@first?5argument?5must?5be?5a?5number?$AA@ 10018c64     memoryjs.obj
 0002:00004c88       ??_C@_0EG@FIFPAJAH@requires?5either?50?5arguments?5or?51@ 10018c88     memoryjs.obj
 0002:00004cd0       ??_C@_0CC@PFFNAHGO@first?5argument?5must?5be?5a?5functio@ 10018cd0     memoryjs.obj
 0002:00004cf8       ??_C@_0EE@CNGGMFAA@first?5argument?5must?5be?5a?5number?0@ 10018cf8     memoryjs.obj
 0002:00004d3c       ??_C@_0M@DIBKDCIP@modBaseSize?$AA@ 10018d3c     memoryjs.obj
 0002:00004d48       ??_C@_09MHBAFCPL@szExePath?$AA@ 10018d48     memoryjs.obj
 0002:00004d54       ??_C@_08FICCBMKK@szModule?$AA@ 10018d54     memoryjs.obj
 0002:00004d60       ??_C@_0N@MAHCMJHB@th32ModuleID?$AA@ 10018d60     memoryjs.obj
 0002:00004d70       ??_C@_0EN@FPMGOMDP@requires?51?5argument?0?52?5arguments@ 10018d70     memoryjs.obj
 0002:00004dc0       ??_C@_0EC@OKODLAHH@first?5argument?5must?5be?5a?5string?0@ 10018dc0     memoryjs.obj
 0002:00004e04       ??_C@_0CC@OGEEKKID@third?5argument?5must?5be?5a?5functio@ 10018e04     memoryjs.obj
 0002:00004e28       ??_C@_07CMLJBOCL@hModule?$AA@ 10018e28     memoryjs.obj
 0002:00004e30       ??_C@_0EB@GLKHBGL@requires?53?5arguments?0?5or?54?5argum@ 10018e30     memoryjs.obj
 0002:00004e78       ??_C@_0EM@NLIDIAAL@first?5and?5second?5argument?5must?5b@ 10018e78     memoryjs.obj
 0002:00004ec4       ??_C@_0CD@COMEPCIP@fourth?5argument?5must?5be?5a?5functi@ 10018ec4     memoryjs.obj
 0002:00004ee8       ??_C@_04IHGKJMLH@byte?$AA@ 10018ee8     memoryjs.obj
 0002:00004ef0       ??_C@_03JBIPMCLC@int?$AA@  10018ef0     memoryjs.obj
 0002:00004ef4       ??_C@_05GIMEPBJB@int32?$AA@ 10018ef4     memoryjs.obj
 0002:00004efc       ??_C@_06PKDKHAMA@uint32?$AA@ 10018efc     memoryjs.obj
 0002:00004f04       ??_C@_05DIFFJEPM@int64?$AA@ 10018f04     memoryjs.obj
 0002:00004f0c       ??_C@_06KKKLBFKN@uint64?$AA@ 10018f0c     memoryjs.obj
 0002:00004f14       ??_C@_05KDALNKAH@dword?$AA@ 10018f14     memoryjs.obj
 0002:00004f1c       ??_C@_05BFKKPKCG@short?$AA@ 10018f1c     memoryjs.obj
 0002:00004f24       ??_C@_04GOKPGOLB@long?$AA@ 10018f24     memoryjs.obj
 0002:00004f2c       ??_C@_05KNFBNCOH@float?$AA@ 10018f2c     memoryjs.obj
 0002:00004f34       ??_C@_06BNJCAIGJ@double?$AA@ 10018f34     memoryjs.obj
 0002:00004f3c       ??_C@_03PLHFFLIH@ptr?$AA@  10018f3c     memoryjs.obj
 0002:00004f40       ??_C@_07PFMCDPMA@pointer?$AA@ 10018f40     memoryjs.obj
 0002:00004f48       ??_C@_04DDKJGDCM@bool?$AA@ 10018f48     memoryjs.obj
 0002:00004f50       ??_C@_07GOBOHMJA@boolean?$AA@ 10018f50     memoryjs.obj
 0002:00004f58       ??_C@_06ICGJLFIM@string?$AA@ 10018f58     memoryjs.obj
 0002:00004f60       ??_C@_03OJMAPEGJ@str?$AA@  10018f60     memoryjs.obj
 0002:00004f68       ??_C@_0EH@PAPNGPOC@unable?5to?5read?5string?5?$CIno?5null?9t@ 10018f68     memoryjs.obj
 0002:00004fb0       ??_C@_07GLAFNOGD@vector3?$AA@ 10018fb0     memoryjs.obj
 0002:00004fb8       ??_C@_04PNENAKPF@vec3?$AA@ 10018fb8     memoryjs.obj
 0002:00004fc0       ??_C@_01FJMABOPO@x?$AA@    10018fc0     memoryjs.obj
 0002:00004fc4       ??_C@_01EANLCPLP@y?$AA@    10018fc4     memoryjs.obj
 0002:00004fc8       ??_C@_01GLPGHMHM@z?$AA@    10018fc8     memoryjs.obj
 0002:00004fcc       ??_C@_07CEEEEIKE@vector4?$AA@ 10018fcc     memoryjs.obj
 0002:00004fd4       ??_C@_04LCAMJMDC@vec4?$AA@ 10018fd4     memoryjs.obj
 0002:00004fdc       ??_C@_01NOFIACDB@w?$AA@    10018fdc     memoryjs.obj
 0002:00004fe0       ??_C@_0BF@FIJDNPKM@unexpected?5data?5type?$AA@ 10018fe0     memoryjs.obj
 0002:00004ff8       ??_C@_0DD@OOEPOHAF@first?0?5second?5and?5third?5argument@ 10018ff8     memoryjs.obj
 0002:0000502c       ??_C@_0BF@JGIIAIAK@requires?54?5arguments?$AA@ 1001902c     memoryjs.obj
 0002:00005044       ??_C@_0BF@OBGPHHCJ@required?53?5arguments?$AA@ 10019044     memoryjs.obj
 0002:0000505c       ??_C@_0CL@BOEKINJC@first?5and?5second?5argument?5must?5b@ 1001905c     memoryjs.obj
 0002:00005088       ??_C@_0BG@DNGDJEJC@unable?5to?5find?5module?$AA@ 10019088     memoryjs.obj
 0002:000050a0       ??_C@_0P@EFPIPLFH@no?5match?5found?$AA@ 100190a0     memoryjs.obj
 0002:000050b0       ??_C@_0CB@IFCBDMJP@All?5arguments?5should?5be?5numbers?4@ 100190b0     memoryjs.obj
 0002:000050d4       ??_C@_0CG@NDBHDBAG@requires?54?5arguments?0?55?5with?5cal@ 100190d4     memoryjs.obj
 0002:000050fc       ??_C@_0BC@KNPMEBHA@invalid?5arguments?$AA@ 100190fc     memoryjs.obj
 0002:00005110       ??_C@_04GPMDFGEJ@type?$AA@ 10019110     memoryjs.obj
 0002:00005118       ??_C@_05MFEJDJP@value?$AA@ 10019118     memoryjs.obj
 0002:00005120       ??_C@_0M@FIHHNGFJ@returnValue?$AA@ 10019120     memoryjs.obj
 0002:0000512c       ??_C@_08NFGINKKM@exitCode?$AA@ 1001912c     memoryjs.obj
 0002:00005138       ??_C@_0CG@JJNIFMNA@requires?55?5arguments?0?56?5with?5cal@ 10019138     memoryjs.obj
 0002:00005160       ??_C@_0DO@EHJNPLHC@invalid?5arguments?3?5arguments?50?0?5@ 10019160     memoryjs.obj
 0002:000051a0       ??_C@_0CA@GEFMMDOK@callback?5needs?5to?5be?5a?5function?$AA@ 100191a0     memoryjs.obj
 0002:000051c0       ??_C@_0CJ@LIHHIFDF@an?5error?5occurred?5calling?5Virtua@ 100191c0     memoryjs.obj
 0002:000051ec       ??_C@_0M@NEBNHEMD@openProcess?$AA@ 100191ec     memoryjs.obj
 0002:000051f8       ??_C@_0N@PBPAMPDB@closeProcess?$AA@ 100191f8     memoryjs.obj
 0002:00005208       ??_C@_0N@HMBKPOBM@getProcesses?$AA@ 10019208     memoryjs.obj
 0002:00005218       ??_C@_0L@CBNJDCMD@getModules?$AA@ 10019218     memoryjs.obj
 0002:00005224       ??_C@_0L@HEIBEMBG@findModule?$AA@ 10019224     memoryjs.obj
 0002:00005230       ??_C@_0L@MMMLPBML@readMemory?$AA@ 10019230     memoryjs.obj
 0002:0000523c       ??_C@_0L@MJBAJBBM@readBuffer?$AA@ 1001923c     memoryjs.obj
 0002:00005248       ??_C@_0M@LMIKAJBN@writeMemory?$AA@ 10019248     memoryjs.obj
 0002:00005254       ??_C@_0M@LJFBGJMK@writeBuffer?$AA@ 10019254     memoryjs.obj
 0002:00005260       ??_C@_0M@OCIIPMMH@findPattern?$AA@ 10019260     memoryjs.obj
 0002:0000526c       ??_C@_0O@IHPLAPK@setProtection?$AA@ 1001926c     memoryjs.obj
 0002:0000527c       ??_C@_0N@IPAIFEAM@callFunction?$AA@ 1001927c     memoryjs.obj
 0002:0000528c       ??_C@_0P@KNLDDNED@virtualAllocEx?$AA@ 1001928c     memoryjs.obj
 0002:0000529c       ??_C@_0BD@KMEPBHLB@?4?4?2lib?2memoryjs?4cc?$AA@ 1001929c     memoryjs.obj
 0002:000052b0       ??_C@_08OLGFILKN@memoryjs?$AA@ 100192b0     memoryjs.obj
 0002:000052bc       ??_C@_0BD@OLBABOEK@vector?$DMT?$DO?5too?5long?$AA@ 100192bc     memoryjs.obj
 0002:000052d0       ??_C@_0BA@JFNIOLAK@string?5too?5long?$AA@ 100192d0     memoryjs.obj
 0002:000052e0       ??_C@_0BI@CFPLBAOH@invalid?5string?5position?$AA@ 100192e0     memoryjs.obj
 0002:000052f8       ??_C@_0CA@PIEJLBNP@Unable?5to?5create?5remote?5thread?4?$AA@ 100192f8     memoryjs.obj
 0002:00005318       ??_C@_0BM@NMJKDPPO@invalid?5vector?$DMT?$DO?5subscript?$AA@ 10019318     memoryjs.obj
 0002:00005334       ??_C@_0BH@BLFNGAJE@unable?5to?5find?5process?$AA@ 10019334     process.obj
 0002:0000534c       ??_C@_0CO@LEEBOAPE@method?5failed?5to?5take?5snapshot?5o@ 1001934c     process.obj
 0002:0000537c       ??_C@_0CM@NCNDHAAF@method?5failed?5to?5retrieve?5the?5fi@ 1001937c     process.obj
 0002:000053a8       ??_C@_0CL@LPFDIDOB@method?5failed?5to?5retrieve?5the?5fi@ 100193a8     module.obj
 0002:000053d4       ??_C@_08HCOMDCCD@iojs?4exe?$AA@ 100193d4     win_delay_load_hook.obj
 0002:000053e0       ??_C@_08JDDNMFDB@node?4exe?$AA@ 100193e0     win_delay_load_hook.obj
 0002:000053ec       ___pfnDliNotifyHook2       100193ec     win_delay_load_hook.obj
 0002:000053f0       __real@43e0000000000000    100193f0     memoryjs.obj
 0002:00005400       __xmm@41f00000000000000000000000000000 10019400     memoryjs.obj
 0002:00005510       ??_R4exception@std@@6B@    10019510     libcpmt:xthrow.obj
 0002:00005524       ??_R3exception@std@@8      10019524     libcpmt:xthrow.obj
 0002:00005534       ??_R2exception@std@@8      10019534     libcpmt:xthrow.obj
 0002:0000553c       ??_R1A@?0A@EA@exception@std@@8 1001953c     libcpmt:xthrow.obj
 0002:00005558       ??_R4bad_alloc@std@@6B@    10019558     libcpmt:xthrow.obj
 0002:0000556c       ??_R3bad_alloc@std@@8      1001956c     libcpmt:xthrow.obj
 0002:0000557c       ??_R2bad_alloc@std@@8      1001957c     libcpmt:xthrow.obj
 0002:00005588       ??_R1A@?0A@EA@bad_alloc@std@@8 10019588     libcpmt:xthrow.obj
 0002:000055a4       ??_R4logic_error@std@@6B@  100195a4     libcpmt:xthrow.obj
 0002:000055b8       ??_R3logic_error@std@@8    100195b8     libcpmt:xthrow.obj
 0002:000055c8       ??_R2logic_error@std@@8    100195c8     libcpmt:xthrow.obj
 0002:000055d4       ??_R1A@?0A@EA@logic_error@std@@8 100195d4     libcpmt:xthrow.obj
 0002:000055f0       ??_R4length_error@std@@6B@ 100195f0     libcpmt:xthrow.obj
 0002:00005604       ??_R3length_error@std@@8   10019604     libcpmt:xthrow.obj
 0002:00005614       ??_R2length_error@std@@8   10019614     libcpmt:xthrow.obj
 0002:00005624       ??_R1A@?0A@EA@length_error@std@@8 10019624     libcpmt:xthrow.obj
 0002:00005640       ??_R4out_of_range@std@@6B@ 10019640     libcpmt:xthrow.obj
 0002:00005654       ??_R3out_of_range@std@@8   10019654     libcpmt:xthrow.obj
 0002:00005664       ??_R2out_of_range@std@@8   10019664     libcpmt:xthrow.obj
 0002:00005674       ??_R1A@?0A@EA@out_of_range@std@@8 10019674     libcpmt:xthrow.obj
 0002:00005690       ??_R4type_info@@6B@        10019690     LIBCMT:std_type_info_static.obj
 0002:000056a4       ??_R3type_info@@8          100196a4     LIBCMT:std_type_info_static.obj
 0002:000056b4       ??_R2type_info@@8          100196b4     LIBCMT:std_type_info_static.obj
 0002:000056bc       ??_R1A@?0A@EA@type_info@@8 100196bc     LIBCMT:std_type_info_static.obj
 0002:000056d8       ??_R4bad_array_new_length@std@@6B@ 100196d8     LIBCMT:throw_bad_alloc.obj
 0002:000056ec       ??_R3bad_array_new_length@std@@8 100196ec     LIBCMT:throw_bad_alloc.obj
 0002:000056fc       ??_R2bad_array_new_length@std@@8 100196fc     LIBCMT:throw_bad_alloc.obj
 0002:0000570c       ??_R1A@?0A@EA@bad_array_new_length@std@@8 1001970c     LIBCMT:throw_bad_alloc.obj
 0002:00005730       ___safe_se_handler_table   10019730     <linker-defined>
 0002:00005b38       ___rtc_iaa                 10019b38     LIBCMT:_initsect_.obj
 0002:00005b3c       ___rtc_izz                 10019b3c     LIBCMT:_initsect_.obj
 0002:00005b40       ___rtc_taa                 10019b40     LIBCMT:_initsect_.obj
 0002:00005b44       ___rtc_tzz                 10019b44     LIBCMT:_initsect_.obj
 0002:00005b48       __TI2?AVbad_alloc@std@@    10019b48     libcpmt:xthrow.obj
 0002:00005b58       __CTA2?AVbad_alloc@std@@   10019b58     libcpmt:xthrow.obj
 0002:00005b64       __CT??_R0?AVbad_alloc@std@@@8??0bad_alloc@std@@QAE@ABV01@@Z12 10019b64     libcpmt:xthrow.obj
 0002:00005b80       __CT??_R0?AVexception@std@@@8??0exception@std@@QAE@ABV01@@Z12 10019b80     libcpmt:xthrow.obj
 0002:00005b9c       __CT??_R0?AVlogic_error@std@@@8??0logic_error@std@@QAE@ABV01@@Z12 10019b9c     libcpmt:xthrow.obj
 0002:00005bb8       __TI3?AVlength_error@std@@ 10019bb8     libcpmt:xthrow.obj
 0002:00005bc8       __CTA3?AVlength_error@std@@ 10019bc8     libcpmt:xthrow.obj
 0002:00005bd8       __CT??_R0?AVlength_error@std@@@8??0length_error@std@@QAE@ABV01@@Z12 10019bd8     libcpmt:xthrow.obj
 0002:00005bf4       __TI3?AVout_of_range@std@@ 10019bf4     libcpmt:xthrow.obj
 0002:00005c04       __CTA3?AVout_of_range@std@@ 10019c04     libcpmt:xthrow.obj
 0002:00005c14       __CT??_R0?AVout_of_range@std@@@8??0out_of_range@std@@QAE@ABV01@@Z12 10019c14     libcpmt:xthrow.obj
 0002:00005cac       __TI3?AVbad_array_new_length@std@@ 10019cac     LIBCMT:throw_bad_alloc.obj
 0002:00005cbc       __CTA3?AVbad_array_new_length@std@@ 10019cbc     LIBCMT:throw_bad_alloc.obj
 0002:00005ccc       __CT??_R0?AVbad_array_new_length@std@@@8??0bad_array_new_length@std@@QAE@ABV01@@Z12 10019ccc     LIBCMT:throw_bad_alloc.obj
 0002:00006034       __DELAY_IMPORT_DESCRIPTOR_node_exe 1001a034     node:node.exe
 0002:00006054       __NULL_DELAY_IMPORT_DESCRIPTOR 1001a054     node:node.exe
 0002:0000610c       \177node_NULL_THUNK_DATA_DLN 1001a10c     node:node.exe
 0002:00006970       \177node_NULL_THUNK_DATA_DLB 1001a970     node:node.exe
 0002:00006a64       __IMPORT_DESCRIPTOR_KERNEL32 1001aa64     kernel32:KERNEL32.dll
 0002:00006a78       __NULL_IMPORT_DESCRIPTOR   1001aa78     kernel32:KERNEL32.dll
 0003:00000000       ___scrt_native_dllmain_reason 1001c000     LIBCMT:utility.obj
 0003:00000004       ___security_cookie_complement 1001c004     LIBCMT:gs_cookie.obj
 0003:00000008       ___security_cookie         1001c008     LIBCMT:gs_cookie.obj
 0003:0000000c       ___isa_enabled             1001c00c     LIBCMT:_cpu_disp_.obj
 0003:00000020       __NLG_Destination          1001c020     libvcruntime:_exsup_.obj
 0003:00000030       ___abort_behavior          1001c030     libucrt:abort.obj
 0003:00000040       __iob                      1001c040     libucrt:_file.obj
 0003:000000e8       ___badioinfo               1001c0e8     libucrt:ioinit.obj
 0003:00000120       ___acrt_initial_locale_data 1001c120     libucrt:nlsdata.obj
 0003:000001d8       ___acrt_initial_locale_pointers 1001c1d8     libucrt:nlsdata.obj
 0003:000001e0       ___acrt_wide_c_locale_string 1001c1e0     libucrt:nlsdata.obj
 0003:000002d8       __mbctype                  1001c2d8     libucrt:mbctype.obj
 0003:000003e0       __mbcasemap                1001c3e0     libucrt:mbctype.obj
 0003:000004e0       ___acrt_initial_multibyte_data 1001c4e0     libucrt:mbctype.obj
 0003:00000700       ___acrt_current_multibyte_data 1001c700     libucrt:mbctype.obj
 0003:00000708       __lookuptrailbytes         1001c708     libucrt:read.obj
 0003:00000808       ___globallocalestatus      1001c808     libucrt:glstatus.obj
 0003:0000080c       ___acrt_lconv_static_decimal 1001c80c     libucrt:localeconv.obj
 0003:00000810       ___acrt_lconv_static_W_decimal 1001c810     libucrt:localeconv.obj
 0003:00000818       ___acrt_lconv_c            1001c818     libucrt:localeconv.obj
 0003:00000870       ___dcrt_lowio_console_output_handle 1001c870     libucrt:initcon.obj
 0003:00000880       __fltused                  1001c880     LIBCMT:fltused.obj
 0003:000008c0       ??_R0?AVbad_alloc@std@@@8  1001c8c0     libcpmt:xthrow.obj
 0003:000008dc       ??_R0?AVexception@std@@@8  1001c8dc     libcpmt:xthrow.obj
 0003:000008f8       ??_R0?AVlogic_error@std@@@8 1001c8f8     libcpmt:xthrow.obj
 0003:00000918       ??_R0?AVlength_error@std@@@8 1001c918     libcpmt:xthrow.obj
 0003:00000938       ??_R0?AVout_of_range@std@@@8 1001c938     libcpmt:xthrow.obj
 0003:00000958       ??_R0?AVtype_info@@@8      1001c958     LIBCMT:std_type_info_static.obj
 0003:00000970       ??_R0?AVbad_array_new_length@std@@@8 1001c970     LIBCMT:throw_bad_alloc.obj
 0003:00000998       ??_R0PAD@8                 1001c998     memoryjs.obj
 0003:000009a8       __imp_?ThrowException@Isolate@v8@@QAE?AV?$Local@VValue@v8@@@2@V32@@Z 1001c9a8     node:node.exe
 0003:000009ac       __imp_?GetCurrentContext@Isolate@v8@@QAE?AV?$Local@VContext@v8@@@2@XZ 1001c9ac     node:node.exe
 0003:000009b0       __imp_?GetCurrent@Isolate@v8@@SAPAV12@XZ 1001c9b0     node:node.exe
 0003:000009b4       __imp_??1HandleScope@v8@@QAE@XZ 1001c9b4     node:node.exe
 0003:000009b8       __imp_??0HandleScope@v8@@QAE@PAVIsolate@1@@Z 1001c9b8     node:node.exe
 0003:000009bc       __imp_?TypeError@Exception@v8@@SA?AV?$Local@VValue@v8@@@2@V?$Local@VString@v8@@@2@@Z 1001c9bc     node:node.exe
 0003:000009c0       __imp_?New@Array@v8@@SA?AV?$Local@VArray@v8@@@2@PAVIsolate@2@H@Z 1001c9c0     node:node.exe
 0003:000009c4       __imp_?Length@Array@v8@@QBEIXZ 1001c9c4     node:node.exe
 0003:000009c8       __imp_?GetFunction@FunctionTemplate@v8@@QAE?AV?$MaybeLocal@VFunction@v8@@@2@V?$Local@VContext@v8@@@2@@Z 1001c9c8     node:node.exe
 0003:000009cc       __imp_?New@FunctionTemplate@v8@@SA?AV?$Local@VFunctionTemplate@v8@@@2@PAVIsolate@2@P6AXABV?$FunctionCallbackInfo@VValue@v8@@@2@@ZV?$Local@VValue@v8@@@2@V?$Local@VSignature@v8@@@2@HW4ConstructorBehavior@2@W4SideEffectType@2@@Z 1001c9cc     node:node.exe
 0003:000009d0       __imp_?ToLocalEmpty@V8@v8@@CAXXZ 1001c9d0     node:node.exe
 0003:000009d4       __imp_?FromJustIsNothing@V8@v8@@CAXXZ 1001c9d4     node:node.exe
 0003:000009d8       __imp_?Int32Value@Value@v8@@QBEHXZ 1001c9d8     node:node.exe
 0003:000009dc       __imp_?Uint32Value@Value@v8@@QBEIXZ 1001c9dc     node:node.exe
 0003:000009e0       __imp_?IntegerValue@Value@v8@@QBE_JXZ 1001c9e0     node:node.exe
 0003:000009e4       __imp_?NumberValue@Value@v8@@QBENXZ 1001c9e4     node:node.exe
 0003:000009e8       __imp_?BooleanValue@Value@v8@@QBE_NXZ 1001c9e8     node:node.exe
 0003:000009ec       __imp_?IsNumber@Value@v8@@QBE_NXZ 1001c9ec     node:node.exe
 0003:000009f0       __imp_?IsObject@Value@v8@@QBE_NXZ 1001c9f0     node:node.exe
 0003:000009f4       __imp_?IsFunction@Value@v8@@QBE_NXZ 1001c9f4     node:node.exe
 0003:000009f8       __imp_??1Utf8Value@String@v8@@QAE@XZ 1001c9f8     node:node.exe
 0003:000009fc       __imp_??0Utf8Value@String@v8@@QAE@V?$Local@VValue@v8@@@2@@Z 1001c9fc     node:node.exe
 0003:00000a00       __imp_?NewFromUtf8@String@v8@@SA?AV?$Local@VString@v8@@@2@PAVIsolate@2@PBDW4NewStringType@12@H@Z 1001ca00     node:node.exe
 0003:00000a04       __imp_?NewFromUtf8@String@v8@@SA?AV?$MaybeLocal@VString@v8@@@2@PAVIsolate@2@PBDW4NewStringType@2@H@Z 1001ca04     node:node.exe
 0003:00000a08       __imp_?New@Number@v8@@SA?AV?$Local@VNumber@v8@@@2@PAVIsolate@2@N@Z 1001ca08     node:node.exe
 0003:00000a0c       __imp_?New@Object@v8@@SA?AV?$Local@VObject@v8@@@2@PAVIsolate@2@@Z 1001ca0c     node:node.exe
 0003:00000a10       __imp_?Get@Object@v8@@QAE?AV?$Local@VValue@v8@@@2@V32@@Z 1001ca10     node:node.exe
 0003:00000a14       __imp_?Get@Object@v8@@QAE?AV?$Local@VValue@v8@@@2@I@Z 1001ca14     node:node.exe
 0003:00000a18       __imp_?Set@Object@v8@@QAE_NV?$Local@VValue@v8@@@2@0@Z 1001ca18     node:node.exe
 0003:00000a1c       __imp_?Set@Object@v8@@QAE?AV?$Maybe@_N@2@V?$Local@VContext@v8@@@2@V?$Local@VValue@v8@@@2@1@Z 1001ca1c     node:node.exe
 0003:00000a20       __imp_?Set@Object@v8@@QAE_NIV?$Local@VValue@v8@@@2@@Z 1001ca20     node:node.exe
 0003:00000a24       __imp_?SetName@Function@v8@@QAEXV?$Local@VString@v8@@@2@@Z 1001ca24     node:node.exe
 0003:00000a28       __imp_?Call@Function@v8@@QAE?AV?$Local@VValue@v8@@@2@V32@HQAV32@@Z 1001ca28     node:node.exe
 0003:00000a2c       __imp__node_module_register 1001ca2c     node:node.exe
 0003:00000a30       __imp_?New@Buffer@node@@YA?AV?$MaybeLocal@VObject@v8@@@v8@@PAVIsolate@4@PADI@Z 1001ca30     node:node.exe
 0003:00000a34       __imp_?Data@Buffer@node@@YAPADV?$Local@VValue@v8@@@v8@@@Z 1001ca34     node:node.exe
 0003:00000a38       __imp_?Length@Buffer@node@@YAIV?$Local@VValue@v8@@@v8@@@Z 1001ca38     node:node.exe
 0003:00000a3c       __imp_?ToString@Value@v8@@QBE?AV?$Local@VString@v8@@@2@XZ 1001ca3c     node:node.exe
 0003:00000a40       \177node_NULL_THUNK_DATA_DLA 1001ca40     node:node.exe
 0003:00000a48       __hmod__node_exe           1001ca48     node:node.exe
 0003:00000a4c       ___scrt_current_native_startup_state 1001ca4c     LIBCMT:utility.obj
 0003:00000a50       ___scrt_native_startup_lock 1001ca50     LIBCMT:utility.obj
 0003:00000d94       ___isa_available           1001cd94     LIBCMT:_cpu_disp_.obj
 0003:00000d98       ___favor                   1001cd98     LIBCMT:_cpu_disp_.obj
 0003:00000d9c       ___scrt_debugger_hook_flag 1001cd9c     LIBCMT:utility_desktop.obj
 0003:00000da0       ?__type_info_root_node@@3U__type_info_node@@A 1001cda0     LIBCMT:tncleanup.obj
 0003:00000da8       ?_OptionsStorage@?1??__local_stdio_printf_options@@9@4_KA 1001cda8     LIBCMT:default_local_stdio_options.obj
 0003:00000db0       ?_OptionsStorage@?1??__local_stdio_scanf_options@@9@4_KA 1001cdb0     LIBCMT:default_local_stdio_options.obj
 0003:00000db8       ?pArgList@UnDecorator@@0PAVReplicator@@A 1001cdb8     libvcruntime:undname.obj
 0003:00000dbc       ?pZNameList@UnDecorator@@0PAVReplicator@@A 1001cdbc     libvcruntime:undname.obj
 0003:00000dc0       ?pTemplateArgList@UnDecorator@@0PAVReplicator@@A 1001cdc0     libvcruntime:undname.obj
 0003:00000dc4       ?gName@UnDecorator@@0PBDB  1001cdc4     libvcruntime:undname.obj
 0003:00000dc8       ?name@UnDecorator@@0PBDB   1001cdc8     libvcruntime:undname.obj
 0003:00000dcc       ?outputString@UnDecorator@@0PADA 1001cdcc     libvcruntime:undname.obj
 0003:00000dd0       ?maxStringLength@UnDecorator@@0HA 1001cdd0     libvcruntime:undname.obj
 0003:00000dd4       ?disableFlags@UnDecorator@@0KA 1001cdd4     libvcruntime:undname.obj
 0003:00000dd8       ?fExplicitTemplateParams@UnDecorator@@0_NA 1001cdd8     libvcruntime:undname.obj
 0003:00000dd9       ?fGetTemplateArgumentList@UnDecorator@@0_NA 1001cdd9     libvcruntime:undname.obj
 0003:00000ddc       ?m_pGetParameter@UnDecorator@@0P6APADJ@ZA 1001cddc     libvcruntime:undname.obj
 0003:00000e6c       ___pPurecall               1001ce6c     libvcruntime:purevirt_data.obj
 0003:00000f90       __environ_table            1001cf90     libucrt:environment_initialization.obj
 0003:00000f94       __wenviron_table           1001cf94     libucrt:environment_initialization.obj
 0003:00000f98       ___dcrt_initial_wide_environment 1001cf98     libucrt:environment_initialization.obj
 0003:00000f9c       ___dcrt_initial_narrow_environment 1001cf9c     libucrt:environment_initialization.obj
 0003:00000fa0       ___acrt_atexit_table       1001cfa0     libucrt:onexit.obj
 0003:00000fac       ___acrt_at_quick_exit_table 1001cfac     libucrt:onexit.obj
 0003:00000fb8       __nstream                  1001cfb8     libucrt:_file.obj
 0003:00000fbc       ___piob                    1001cfbc     libucrt:_file.obj
 0003:00000fc0       __cflush                   1001cfc0     libucrt:_file.obj
 0003:00000fc8       ___pioinfo                 1001cfc8     libucrt:ioinit.obj
 0003:000011c8       __nhandle                  1001d1c8     libucrt:ioinit.obj
 0003:000011cc       ___acrt_locale_changed_data 1001d1cc     libucrt:wsetlocale.obj
 0003:000011d0       ___acrt_current_locale_data 1001d1d0     libucrt:nlsdata.obj
 0003:000013ec       ___mblocalename            1001d3ec     libucrt:mbctype.obj
 0003:000013f0       ___mbcodepage              1001d3f0     libucrt:mbctype.obj
 0003:000013f4       ___ismbcodepage            1001d3f4     libucrt:mbctype.obj
 0003:000013f8       ___mbulinfo                1001d3f8     libucrt:mbctype.obj
 0003:0000140c       ___argc                    1001d40c     libucrt:argv_data.obj
 0003:00001410       ___argv                    1001d410     libucrt:argv_data.obj
 0003:00001414       ___wargv                   1001d414     libucrt:argv_data.obj
 0003:00001418       __acmdln                   1001d418     libucrt:argv_data.obj
 0003:0000141c       __wcmdln                   1001d41c     libucrt:argv_data.obj
 0003:00001420       __pgmptr                   1001d420     libucrt:argv_data.obj
 0003:00001424       ___acrt_heap               1001d424     libucrt:heap_handle.obj
 0003:0000143c       ___acrt_stdout_buffer      1001d43c     libucrt:_sftbuf.obj
 0003:00001440       ___acrt_stderr_buffer      1001d440     libucrt:_sftbuf.obj
 0003:00001448       ___acrt_lconv_static_null  1001d448     libucrt:localeconv.obj
 0003:0000144c       ___acrt_lconv_static_W_null 1001d44c     libucrt:localeconv.obj
 0003:00001454       ___fastflag                1001d454     libucrt:fp_flags.obj
 0003:0000145c       ?DloadKernel32@@3PAUHINSTANCE__@@A 1001d45c     DelayImp:delayhlp.obj
 0003:00001460       ?DloadAcquireSRWLockExclusive@@3P6GXPAK@ZA 1001d460     DelayImp:delayhlp.obj
 0003:00001464       ?DloadReleaseSRWLockExclusive@@3P6GXPAK@ZA 1001d464     DelayImp:delayhlp.obj
 0003:00001468       ?DloadSrwLock@@3KA         1001d468     DelayImp:delayhlp.obj
 0003:0000146c       ?DloadSectionLockCount@@3KA 1001d46c     DelayImp:delayhlp.obj
 0003:00001470       ?DloadSectionOldProtection@@3KA 1001d470     DelayImp:delayhlp.obj
 0003:00001474       ?DloadSectionCommitPermanent@@3KA 1001d474     DelayImp:delayhlp.obj
 0003:00001478       ?Memory@@3Vmemory@@A       1001d478     memoryjs.obj
 0003:00001479       ?Module@@3Vmodule@@A       1001d479     memoryjs.obj
 0003:0000147a       ?Process@@3Vprocess@@A     1001d47a     memoryjs.obj
 0003:0000147b       ?Pattern@@3Vpattern@@A     1001d47b     memoryjs.obj
 0003:0000147c       ___dyn_tls_init_callback   1001d47c     <common>
 0003:00001480       ___scrt_ucrt_dll_is_in_use 1001d480     <common>
 0003:00001484       __pDestructExceptionObject 1001d484     <common>
 0003:00001488       __pmatherr                 1001d488     <common>
 0003:0000148c       ___use_sse2_mathfcns       1001d48c     <common>

 entry point at        0001:00007a08

 Static symbols

 0000:fffde000       .debug$S                   10000000     node:node.exe
 0000:fffde000       .debug$S                   10000000     node:node.exe
 0000:fffde000       .debug$S                   10000000     node:node.exe
 0000:fffde000       .debug$S                   10000000     node:node.exe
 0000:fffde000       .debug$S                   10000000     node:node.exe
 0000:fffde000       .debug$S                   10000000     node:node.exe
 0000:fffde000       .debug$S                   10000000     node:node.exe
 0000:fffde000       .debug$S                   10000000     node:node.exe
 0000:fffde000       .debug$S                   10000000     node:node.exe
 0000:fffde000       .debug$S                   10000000     node:node.exe
 0000:fffde000       .debug$S                   10000000     node:node.exe
 0000:fffde000       .debug$S                   10000000     node:node.exe
 0000:fffde000       .debug$S                   10000000     node:node.exe
 0000:fffde000       .debug$S                   10000000     node:node.exe
 0000:fffde000       .debug$S                   10000000     memoryjs.exp
 0000:fffde000       .debug$S                   10000000     node:node.exe
 0000:fffde000       .debug$S                   10000000     node:node.exe
 0000:fffde000       .debug$S                   10000000     node:node.exe
 0000:fffde000       .debug$S                   10000000     node:node.exe
 0000:fffde000       .debug$S                   10000000     node:node.exe
 0000:fffde000       .debug$S                   10000000     kernel32:KERNEL32.dll
 0000:fffde000       .debug$S                   10000000     kernel32:KERNEL32.dll
 0000:fffde000       .debug$S                   10000000     kernel32:KERNEL32.dll
 0000:fffde000       .debug$S                   10000000     kernel32:KERNEL32.dll
 0000:fffde000       .debug$S                   10000000     kernel32:KERNEL32.dll
 0000:fffde000       .debug$S                   10000000     kernel32:KERNEL32.dll
 0000:fffde000       .debug$S                   10000000     kernel32:KERNEL32.dll
 0000:fffde000       .debug$S                   10000000     kernel32:KERNEL32.dll
 0000:fffde000       .debug$S                   10000000     kernel32:KERNEL32.dll
 0000:fffde000       .debug$S                   10000000     kernel32:KERNEL32.dll
 0000:fffde000       .debug$S                   10000000     kernel32:KERNEL32.dll
 0000:fffde000       .debug$S                   10000000     kernel32:KERNEL32.dll
 0000:fffde000       .debug$S                   10000000     kernel32:KERNEL32.dll
 0000:fffde000       .debug$S                   10000000     kernel32:KERNEL32.dll
 0000:fffde000       .debug$S                   10000000     kernel32:KERNEL32.dll
 0000:fffde000       .debug$S                   10000000     kernel32:KERNEL32.dll
 0000:fffde000       .debug$S                   10000000     kernel32:KERNEL32.dll
 0000:fffde000       .debug$S                   10000000     kernel32:KERNEL32.dll
 0000:fffde000       .debug$S                   10000000     kernel32:KERNEL32.dll
 0000:fffde000       .debug$S                   10000000     kernel32:KERNEL32.dll
 0000:fffde000       .debug$S                   10000000     kernel32:KERNEL32.dll
 0000:fffde000       .debug$S                   10000000     kernel32:KERNEL32.dll
 0000:fffde000       .debug$S                   10000000     kernel32:KERNEL32.dll
 0000:fffde000       .debug$S                   10000000     kernel32:KERNEL32.dll
 0000:fffde000       .debug$S                   10000000     kernel32:KERNEL32.dll
 0000:fffde000       .debug$S                   10000000     kernel32:KERNEL32.dll
 0000:fffde000       .debug$S                   10000000     kernel32:KERNEL32.dll
 0000:fffde000       .debug$S                   10000000     kernel32:KERNEL32.dll
 0000:fffde000       .debug$S                   10000000     kernel32:KERNEL32.dll
 0000:fffde000       .debug$S                   10000000     kernel32:KERNEL32.dll
 0000:fffde000       .debug$S                   10000000     kernel32:KERNEL32.dll
 0000:fffde000       .debug$S                   10000000     kernel32:KERNEL32.dll
 0000:fffde000       .debug$S                   10000000     kernel32:KERNEL32.dll
 0000:fffde000       .debug$S                   10000000     kernel32:KERNEL32.dll
 0000:fffde000       .debug$S                   10000000     kernel32:KERNEL32.dll
 0000:fffde000       .debug$S                   10000000     kernel32:KERNEL32.dll
 0000:fffde000       .debug$S                   10000000     kernel32:KERNEL32.dll
 0000:fffde000       .debug$S                   10000000     kernel32:KERNEL32.dll
 0000:fffde000       .debug$S                   10000000     kernel32:KERNEL32.dll
 0000:fffde000       .debug$S                   10000000     kernel32:KERNEL32.dll
 0000:fffde000       .debug$S                   10000000     kernel32:KERNEL32.dll
 0000:fffde000       .debug$S                   10000000     kernel32:KERNEL32.dll
 0000:fffde000       .debug$S                   10000000     kernel32:KERNEL32.dll
 0000:fffde000       .debug$S                   10000000     kernel32:KERNEL32.dll
 0000:fffde000       .debug$S                   10000000     kernel32:KERNEL32.dll
 0000:fffde000       .debug$S                   10000000     kernel32:KERNEL32.dll
 0000:fffde000       .debug$S                   10000000     kernel32:KERNEL32.dll
 0000:fffde000       .debug$S                   10000000     kernel32:KERNEL32.dll
 0000:fffde000       .debug$S                   10000000     kernel32:KERNEL32.dll
 0000:fffde000       .debug$S                   10000000     kernel32:KERNEL32.dll
 0000:fffde000       .debug$S                   10000000     kernel32:KERNEL32.dll
 0000:fffde000       .debug$S                   10000000     kernel32:KERNEL32.dll
 0000:fffde000       .debug$S                   10000000     kernel32:KERNEL32.dll
 0000:fffde000       .debug$S                   10000000     kernel32:KERNEL32.dll
 0000:fffde000       .debug$S                   10000000     kernel32:KERNEL32.dll
 0000:fffde000       .debug$S                   10000000     kernel32:KERNEL32.dll
 0000:fffde000       .debug$S                   10000000     kernel32:KERNEL32.dll
 0000:fffde000       .debug$S                   10000000     kernel32:KERNEL32.dll
 0000:fffde000       .debug$S                   10000000     kernel32:KERNEL32.dll
 0000:fffde000       .debug$S                   10000000     kernel32:KERNEL32.dll
 0000:fffde000       .debug$S                   10000000     kernel32:KERNEL32.dll
 0000:fffde000       .debug$S                   10000000     kernel32:KERNEL32.dll
 0000:fffde000       .debug$S                   10000000     kernel32:KERNEL32.dll
 0000:fffde000       .debug$S                   10000000     kernel32:KERNEL32.dll
 0000:fffde000       .debug$S                   10000000     kernel32:KERNEL32.dll
 0000:fffde000       .debug$S                   10000000     kernel32:KERNEL32.dll
 0000:fffde000       .debug$S                   10000000     kernel32:KERNEL32.dll
 0000:fffde000       .debug$S                   10000000     kernel32:KERNEL32.dll
 0000:fffde000       .debug$S                   10000000     kernel32:KERNEL32.dll
 0000:fffde000       .debug$S                   10000000     kernel32:KERNEL32.dll
 0000:fffde000       .debug$S                   10000000     kernel32:KERNEL32.dll
 0000:fffde000       .debug$S                   10000000     kernel32:KERNEL32.dll
 0000:fffde000       .debug$S                   10000000     kernel32:KERNEL32.dll
 0000:fffde000       .debug$S                   10000000     kernel32:KERNEL32.dll
 0000:fffde000       .debug$S                   10000000     kernel32:KERNEL32.dll
 0000:fffde000       .debug$S                   10000000     kernel32:KERNEL32.dll
 0000:fffde000       .debug$S                   10000000     kernel32:KERNEL32.dll
 0000:fffde000       .debug$S                   10000000     kernel32:KERNEL32.dll
 0000:fffde000       .debug$S                   10000000     kernel32:KERNEL32.dll
 0000:fffde000       .debug$S                   10000000     kernel32:KERNEL32.dll
 0000:fffde000       .debug$S                   10000000     kernel32:KERNEL32.dll
 0000:fffde000       .debug$S                   10000000     kernel32:KERNEL32.dll
 0000:fffde000       .debug$S                   10000000     kernel32:KERNEL32.dll
 0000:fffde000       .debug$S                   10000000     kernel32:KERNEL32.dll
 0000:fffde000       .debug$S                   10000000     kernel32:KERNEL32.dll
 0000:fffde000       .debug$S                   10000000     kernel32:KERNEL32.dll
 0000:fffde000       .debug$S                   10000000     kernel32:KERNEL32.dll
 0000:fffde000       .debug$S                   10000000     kernel32:KERNEL32.dll
 0000:fffde000       .debug$S                   10000000     kernel32:KERNEL32.dll
 0000:fffde000       .debug$S                   10000000     kernel32:KERNEL32.dll
 0000:fffde000       .debug$S                   10000000     kernel32:KERNEL32.dll
 0000:fffde000       .debug$S                   10000000     kernel32:KERNEL32.dll
 0000:fffde000       .debug$S                   10000000     kernel32:KERNEL32.dll
 0000:fffde000       .debug$S                   10000000     kernel32:KERNEL32.dll
 0000:fffde000       .debug$S                   10000000     kernel32:KERNEL32.dll
 0000:fffde000       .debug$S                   10000000     kernel32:KERNEL32.dll
 0000:fffde000       .debug$S                   10000000     kernel32:KERNEL32.dll
 0000:fffde000       .debug$S                   10000000     kernel32:KERNEL32.dll
 0000:fffde000       .debug$S                   10000000     kernel32:KERNEL32.dll
 0000:fffde000       .debug$S                   10000000     kernel32:KERNEL32.dll
 0000:fffde000       .debug$S                   10000000     kernel32:KERNEL32.dll
 0000:fffde000       .debug$S                   10000000     kernel32:KERNEL32.dll
 0000:fffde000       .debug$S                   10000000     kernel32:KERNEL32.dll
 0000:fffde000       .debug$S                   10000000     kernel32:KERNEL32.dll
 0000:fffde000       .debug$S                   10000000     kernel32:KERNEL32.dll
 0000:fffde000       .debug$S                   10000000     kernel32:KERNEL32.dll
 0000:fffde000       .debug$S                   10000000     kernel32:KERNEL32.dll
 0000:fffde000       .debug$S                   10000000     kernel32:KERNEL32.dll
 0000:fffde000       .debug$S                   10000000     node:node.exe
 0000:fffde000       .debug$S                   10000000     node:node.exe
 0000:fffde000       .debug$S                   10000000     node:node.exe
 0000:fffde000       .debug$S                   10000000     node:node.exe
 0000:fffde000       .debug$S                   10000000     node:node.exe
 0000:fffde000       .debug$S                   10000000     node:node.exe
 0000:fffde000       .debug$S                   10000000     node:node.exe
 0000:fffde000       .debug$S                   10000000     node:node.exe
 0000:fffde000       .debug$S                   10000000     node:node.exe
 0000:fffde000       .debug$S                   10000000     node:node.exe
 0000:fffde000       .debug$S                   10000000     node:node.exe
 0000:fffde000       .debug$S                   10000000     node:node.exe
 0000:fffde000       .debug$S                   10000000     node:node.exe
 0000:fffde000       .debug$S                   10000000     node:node.exe
 0000:fffde000       .debug$S                   10000000     node:node.exe
 0000:fffde000       .debug$S                   10000000     node:node.exe
 0000:fffde000       .debug$S                   10000000     node:node.exe
 0000:fffde000       .debug$S                   10000000     node:node.exe
 0000:fffde000       .debug$S                   10000000     node:node.exe
 0000:fffde000       .debug$S                   10000000     node:node.exe
 0000:fffde000       .debug$S                   10000000     node:node.exe
 0000:fffde000       .debug$S                   10000000     node:node.exe
 0000:fffde000       .debug$S                   10000000     node:node.exe
 0000:fffde000       .debug$S                   10000000     node:node.exe
 0000:fffde000       .debug$S                   10000000     node:node.exe
 0000:fffde000       .debug$S                   10000000     node:node.exe
 0000:fffde000       .debug$S                   10000000     node:node.exe
 0001:00000000       ??__EProcess@@YAXXZ        10001000 f   memoryjs.obj
 0001:00000010       ??__EModule@@YAXXZ         10001010 f   memoryjs.obj
 0001:00000020       ??__EPattern@@YAXXZ        10001020 f   memoryjs.obj
 0001:00004540       __register_memoryjs        10005540 f   memoryjs.obj
 0001:00006ff0       ?load_exe_hook@@YGP6GHXZIPAUDelayLoadInfo@@@Z 10007ff0 f   win_delay_load_hook.obj
 0001:0000739f       ?find_pe_section@@YAPAU_IMAGE_SECTION_HEADER@@QAEI@Z 1000839f f   LIBCMT:utility.obj
 0001:00007700       ?dllmain_crt_dispatch@@YGHQAUHINSTANCE__@@KQAX@Z 10008700 f   LIBCMT:dll_dllmain.obj
 0001:00007753       ?dllmain_crt_process_attach@@YAHQAUHINSTANCE__@@QAX@Z 10008753 f   LIBCMT:dll_dllmain.obj
 0001:00007865       ?dllmain_crt_process_detach@@YAH_N@Z 10008865 f   LIBCMT:dll_dllmain.obj
 0001:000078e2       ?dllmain_dispatch@@YAHQAUHINSTANCE__@@KQAX@Z 100088e2 f   LIBCMT:dll_dllmain.obj
 0001:000079de       ?dllmain_raw@@YGHQAUHINSTANCE__@@KQAX@Z 100089de f   LIBCMT:dll_dllmain.obj
 0001:00007ee0       $$000000                   10008ee0     LIBCMT:_sehprolg4_.obj
 0001:00008080       $$000000                   10009080     libvcruntime:memmove.obj
 0001:000082e4       TrailingUpVec              100092e4     libvcruntime:memmove.obj
 0001:00008390       TrailingDownVec            10009390     libvcruntime:memmove.obj
 0001:000087b0       _ValidateLocalCookies      100097b0 f   libvcruntime:_chandler4_.obj
 0001:00008960       $$000000                   10009960     libvcruntime:memset.obj
 0001:00008c57       ?try_get_function@@YAPAXW4function_id@?A0x89697e75@@QBDQBW4module_id@2@2@Z 10009c57 f   libvcruntime:winapi_downlevel.obj
 0001:00008cf7       ?try_get_module@@YAPAUHINSTANCE__@@W4module_id@?A0x89697e75@@@Z 10009cf7 f   libvcruntime:winapi_downlevel.obj
 0001:00008f40       $$000000                   10009f40     libvcruntime:_exsup4_.obj
 0001:00008fd0       __unwind_handler4          10009fd0 f   libvcruntime:_exsup4_.obj
 0001:000090a0       $$000000                   1000a0a0     libvcruntime:_exsup_.obj
 0001:000090c0       __unwind_handler           1000a0c0 f   libvcruntime:_exsup_.obj
 0001:00009941       ?atexit_exception_filter@@YAHK@Z 1000a941 f   libucrt:exit.obj
 0001:00009954       ?common_exit@@YAXHW4_crt_exit_cleanup_mode@@W4_crt_exit_return_mode@@@Z 1000a954 f   libucrt:exit.obj
 0001:00009a6d       ?exit_or_terminate_process@@YAXI@Z 1000aa6d f   libucrt:exit.obj
 0001:00009aae       ?is_managed_app@@YA_NXZ    1000aaae f   libucrt:exit.obj
 0001:00009af2       ?try_cor_exit_process@@YAXI@Z 1000aaf2 f   libucrt:exit.obj
 0001:00009b96       ??$common_configure_argv@D@@YAHW4_crt_argv_mode@@@Z 1000ab96 f   libucrt:argv_parsing.obj
 0001:00009cba       ??$parse_command_line@D@@YAXPADPAPAD0PAI2@Z 1000acba f   libucrt:argv_parsing.obj
 0001:00009e8f       ??$common_initialize_environment_nolock@D@@YAHXZ 1000ae8f f   libucrt:environment_initialization.obj
 0001:00009ee8       ??$create_environment@D@@YAQAPADQAD@Z 1000aee8 f   libucrt:environment_initialization.obj
 0001:00009fb9       ??$free_environment@D@@YAXQAPAD@Z 1000afb9 f   libucrt:environment_initialization.obj
 0001:00009fb9       ??$free_environment@_W@@YAXQAPA_W@Z 1000afb9 f   libucrt:environment_initialization.obj
 0001:0000a028       ??$uninitialize_environment_internal@D@@YAXAAPAPAD@Z 1000b028 f   libucrt:environment_initialization.obj
 0001:0000a043       ??$uninitialize_environment_internal@_W@@YAXAAPAPA_W@Z 1000b043 f   libucrt:environment_initialization.obj
 0001:0000a1ab       ??R<lambda_275893d493268fdec8709772e3fcec0e>@@QBEHXZ 1000b1ab f   libucrt:onexit.obj
 0001:0000a2cb       ??R<lambda_4e60a939b0d047cfe11ddc22648dfba9>@@QBEHXZ 1000b2cb f   libucrt:onexit.obj
 0001:0000a4a0       _initialize_global_variables 1000b4a0 f   libucrt:initialization.obj
 0001:0000a4b2       _initialize_c              1000b4b2 f   libucrt:initialization.obj
 0001:0000a4cc       _uninitialize_c            1000b4cc f   libucrt:initialization.obj
 0001:0000a4cc       _initialize_global_state_isolation 1000b4cc f   libucrt:initialization.obj
 0001:0000a4cc       _report_memory_leaks       1000b4cc f   libucrt:initialization.obj
 0001:0000a4cc       _initialize_environment    1000b4cc f   libucrt:initialization.obj
 0001:0000a4cc       _uninitialize_global_state_isolation 1000b4cc f   libucrt:initialization.obj
 0001:0000a4cf       _uninitialize_environment  1000b4cf f   libucrt:initialization.obj
 0001:0000a4d7       _initialize_pointers       1000b4d7 f   libucrt:initialization.obj
 0001:0000a514       _uninitialize_vcruntime    1000b514 f   libucrt:initialization.obj
 0001:0000a51d       _uninitialize_allocated_memory 1000b51d f   libucrt:initialization.obj
 0001:0000aac8       ??$common_refill_and_read_nolock@D@@YAHV__crt_stdio_stream@@@Z 1000bac8 f   libucrt:_filbuf.obj
 0001:0000ac54       ?initialize_inherited_file_handles_nolock@@YAXXZ 1000bc54 f   libucrt:ioinit.obj
 0001:0000ad0a       ?initialize_stdio_handles_nolock@@YAXXZ 1000bd0a f   libucrt:ioinit.obj
 0001:0000b026       ?construct_ptd@@YAXQAU__acrt_ptd@@QAPAU__crt_locale_data@@@Z 1000c026 f   libucrt:per_thread_data.obj
 0001:0000b09f       ?destroy_fls@@YGXPAX@Z     1000c09f f   libucrt:per_thread_data.obj
 0001:0000b0c0       ?destroy_ptd@@YAXQAU__acrt_ptd@@@Z 1000c0c0 f   libucrt:per_thread_data.obj
 0001:0000b169       ?replace_current_thread_locale_nolock@@YAXQAU__acrt_ptd@@QAU__crt_locale_data@@@Z 1000c169 f   libucrt:per_thread_data.obj
 0001:0000b32f       ??$common_tox_l@$1?internal_isupper_l@@YA_NHQAU__crt_locale_pointers@@@Z$1?internal_map_lower@@YAHH0@Z@@YAHHKQAU__crt_locale_pointers@@@Z 1000c32f f   libucrt:tolower_toupper.obj
 0001:0000b479       ?internal_isupper_l@@YA_NHQAU__crt_locale_pointers@@@Z 1000c479 f   libucrt:tolower_toupper.obj
 0001:0000b607       ?try_get_function@@YAPAXW4function_id@?A0x352e5c4b@@QBDQBW4module_id@2@2@Z 1000c607 f   libucrt:winapi_thunks.obj
 0001:0000b6a3       ?try_get_module@@YAPAUHINSTANCE__@@W4module_id@?A0x352e5c4b@@@Z 1000c6a3 f   libucrt:winapi_thunks.obj
 0001:0000baa2       ?<helper_func_cdecl>@<lambda_62bb7ecb46d0a77b591a051c43eb5ad1>@@CAHPBX0@Z 1000caa2 f   libucrt:argv_wildcards.obj
 0001:0000baba       ??$common_expand_argv_wildcards@D@@YAHQAPADQAPAPAD@Z 1000caba f   libucrt:argv_wildcards.obj
 0001:0000bc4a       ??$copy_and_add_argument_to_buffer@D@@YAHQBD0IAAV?$argument_list@D@?A0xb0e4b824@@@Z 1000cc4a f   libucrt:argv_wildcards.obj
 0001:0000bce0       ??$expand_argument_wildcards@D@@YAHQAD0AAV?$argument_list@D@?A0xb0e4b824@@@Z 1000cce0 f   libucrt:argv_wildcards.obj
 0001:0000bfbb       ??R<lambda_ad1ced32f4ac17aa236e5ef05d6b3b7c>@@QBEXXZ 1000cfbb f   libucrt:mbctype.obj
 0001:0000c07f       ?CPtoLocaleName@@YAPB_WH@Z 1000d07f f   libucrt:mbctype.obj
 0001:0000c0bd       ?getSystemCP@@YAHH@Z       1000d0bd f   libucrt:mbctype.obj
 0001:0000c130       ?setSBCS@@YAXPAU__crt_multibyte_data@@@Z 1000d130 f   libucrt:mbctype.obj
 0001:0000c195       ?setSBUpLow@@YAXPAU__crt_multibyte_data@@@Z 1000d195 f   libucrt:mbctype.obj
 0001:0000c329       ?setmbcp_internal@@YAHH_N@Z 1000d329 f   libucrt:mbctype.obj
 0001:0000c6db       _memcpy_s                  1000d6db f   libucrt:mbctype.obj
 0001:0000c75c       ?x_ismbbtype_l@@YAHPAU__crt_locale_pointers@@IHH@Z 1000d75c f   libucrt:ismbbyte.obj
 0001:0000c7e6       ?find_end_of_double_null_terminated_sequence@@YAPB_WQB_W@Z 1000d7e6 f   libucrt:get_environment_from_os.obj
 0001:0000ca85       ?get_global_action_nolock@@YAPAP6AXH@ZH@Z 1000da85 f   libucrt:signal.obj
 0001:0000cac7       ?siglookup@@YAPAU__crt_signal_action_t@@HQAU1@@Z 1000dac7 f   libucrt:signal.obj
 0001:0000d132       _common_flush_all          1000e132 f   libucrt:fflush.obj
 0001:0000d248       ??$translate_text_mode_nolock@D@@YAHHQADI@Z 1000e248 f   libucrt:read.obj
 0001:0000d39f       ??$translate_text_mode_nolock@_W@@YAHHQA_WI@Z 1000e39f f   libucrt:read.obj
 0001:0000d55f       ?translate_ansi_or_utf8_nolock@@YAHHQADIQA_WI@Z 1000e55f f   libucrt:read.obj
 0001:0000d6af       ?translate_utf16_from_console_nolock@@YAHHQA_WI@Z 1000e6af f   libucrt:read.obj
 0001:0000e2a7       ?__acrt_LCMapStringA_stat@@YAHPAU__crt_locale_pointers@@PB_WKPBDHPADHHH@Z 1000f2a7 f   libucrt:lcmapstringa.obj
 0001:0000e696       ?free_crt_array_internal@@YAXQAPBXI@Z 1000f696 f   libucrt:inittime.obj
 0001:0000e8d3       ?GetTableIndexFromLocaleName@@YAHPB_W@Z 1000f8d3 f   libucrt:lcidtoname_downlevel.obj
 0001:0000e9c0       ?shortsort@@YAXPAD0IP6AHPBX1@Z@Z 1000f9c0 f   libucrt:qsort.obj
 0001:0000ea60       ?swap@@YAXPAD0I@Z          1000fa60 f   libucrt:qsort.obj
 0001:0000ee3a       ??$common_tcsncpy_s@D@@YAHQADIQBDI@Z 1000fe3a f   libucrt:strncpy_s.obj
 0001:0000ef00       $$000000                   1000ff00     libucrt:strpbrk.obj
 0001:0000efe4       ?initialize_multibyte@@YAHXZ 1000ffe4 f   libucrt:multibyte_initializer.obj
 0001:0000f30a       ?write_double_translated_ansi_nolock@@YA?AUwrite_result@?A0x47fa6670@@HQBDI@Z 1001030a f   libucrt:write.obj
 0001:0000f4bd       ?write_double_translated_unicode_nolock@@YA?AUwrite_result@?A0x47fa6670@@QBDI@Z 100104bd f   libucrt:write.obj
 0001:0000f52a       ?write_requires_double_translation_nolock@@YA_NH@Z 1001052a f   libucrt:write.obj
 0001:0000f5a0       ?write_text_ansi_nolock@@YA?AUwrite_result@?A0x47fa6670@@HQBDI@Z 100105a0 f   libucrt:write.obj
 0001:0000f67f       ?write_text_utf16le_nolock@@YA?AUwrite_result@?A0x47fa6670@@HQBDI@Z 1001067f f   libucrt:write.obj
 0001:0000f76d       ?write_text_utf8_nolock@@YA?AUwrite_result@?A0x47fa6670@@HQBDI@Z 1001076d f   libucrt:write.obj
 0001:0000fb91       ??$common_lseek_nolock@_J@@YA_JH_JH@Z 10010b91 f   libucrt:lseek.obj
 0001:0000fc50       $$000000                   10010c50     libucrt:log10.obj
 0001:0000fda0       $$000000                   10010da0     libucrt:ceil_pentium4.obj
 0001:00010110       $$000000                   10011110     libucrt:_strnicm.obj
 0001:00010180       $$000000                   10011180     libucrt:log10_pentium4.obj
 0001:00010410       $$000000                   10011410     libucrt:87tran.obj
 0001:00010610       $$000000                   10011610     libucrt:87disp.obj
 0001:00010810       $$000000                   10011810     libucrt:common.obj
 0001:000109a0       $$000000                   100119a0     libucrt:genexcep.obj
 0001:00012000       $$000000                   10013000     LIBCMT:ulldvrm.obj
 0001:000120a0       $$000000                   100130a0     LIBCMT:_sehprolg4gs_.obj
 0001:00012100       $$000000                   10013100     LIBCMT:llmul.obj
 0001:00012140       $$000000                   10013140     LIBCMT:lldvrm.obj
 0001:00012220       $$000000                   10013220     LIBCMT:ullshr.obj
 0001:00012240       $$000000                   10013240     LIBCMT:alloca16.obj
 0001:00012270       $$000000                   10013270     LIBCMT:llshl.obj
 0001:00012290       $$000000                   10013290     LIBCMT:_ftol2_.obj
 0001:00012350       $$000000                   10013350     LIBCMT:chkstk.obj
 0001:00012380       $$000000                   10013380     libvcruntime:memcpy.obj
 0001:000125e4       TrailingUpVec              100135e4     libvcruntime:memcpy.obj
 0001:00012690       TrailingDownVec            10013690     libvcruntime:memcpy.obj
 0001:00012900       $$000000                   10013900     libvcruntime:strchr.obj
 0001:00012a30       $$000000                   10013a30     libvcruntime:strrchr.obj
 0001:00012b70       $$000000                   10013b70     LIBCMT:_ftol3_.obj
 0001:00012ef0       ??__FProcess@@YAXXZ        10013ef0 f   memoryjs.obj
 0001:00012f00       ??__FModule@@YAXXZ         10013f00 f   memoryjs.obj
 0001:00012f10       ??__FPattern@@YAXXZ        10013f10 f   memoryjs.obj
 0002:00000164       ?Process$initializer$@@3P6AXXZA 10014164     memoryjs.obj
 0002:00000168       ?Module$initializer$@@3P6AXXZA 10014168     memoryjs.obj
 0002:0000016c       ?Pattern$initializer$@@3P6AXXZA 1001416c     memoryjs.obj
 0002:00000228       _GS_ExceptionPointers      10014228     LIBCMT:gs_report.obj
 0002:00000254       ?ExceptionTemplate@?1??_CxxThrowException@@9@8@4UEHExceptionRecord@@B 10014254     libvcruntime:throw.obj
 0002:00000278       ?tokenTable@@3QBQBDB       10014278     libvcruntime:undname.obj
 0002:000002b0       ?nameTable@@3QBQBDB        100142b0     libvcruntime:undname.obj
 0002:000003f4       ?rttiTable@@3QBQBDB        100143f4     libvcruntime:undname.obj
 0002:000009d8       ?module_names@?A0x89697e75@@3QBQB_WB 100149d8     libvcruntime:winapi_downlevel.obj
 0002:00000a88       ?candidate_modules@?1??try_get_FlsAlloc@@YAP6GKP6GXPAX@Z@ZXZ@4QBW4module_id@?A0x89697e75@@B 10014a88     libvcruntime:winapi_downlevel.obj
 0002:00000a9c       ?candidate_modules@?1??try_get_FlsFree@@YAP6GHK@ZXZ@4QBW4module_id@?A0x89697e75@@B 10014a9c     libvcruntime:winapi_downlevel.obj
 0002:00000aac       ?candidate_modules@?1??try_get_FlsGetValue@@YAP6GPAXK@ZXZ@4QBW4module_id@?A0x89697e75@@B 10014aac     libvcruntime:winapi_downlevel.obj
 0002:00000ac0       ?candidate_modules@?1??try_get_FlsSetValue@@YAP6GHKPAX@ZXZ@4QBW4module_id@?A0x89697e75@@B 10014ac0     libvcruntime:winapi_downlevel.obj
 0002:00000ad4       ?candidate_modules@?1??try_get_InitializeCriticalSectionEx@@YAP6GHPAU_RTL_CRITICAL_SECTION@@KK@ZXZ@4QBW4module_id@?A0x89697e75@@B 10014ad4     libvcruntime:winapi_downlevel.obj
 0002:00000bc0       ___acrt_initializers       10014bc0     libucrt:initialization.obj
 0002:00000c38       _errtable                  10014c38     libucrt:errno.obj
 0002:00001268       _module_names              10015268     libucrt:winapi_thunks.obj
 0002:00001708       ?candidate_modules@?1??try_get_FlsAlloc@@YAP6GKP6GXPAX@Z@ZXZ@4QBW4module_id@?A0x352e5c4b@@B 10015708     libucrt:winapi_thunks.obj
 0002:00001710       ?candidate_modules@?1??try_get_FlsFree@@YAP6GHK@ZXZ@4QBW4module_id@?A0x352e5c4b@@B 10015710     libucrt:winapi_thunks.obj
 0002:00001718       ?candidate_modules@?1??try_get_FlsGetValue@@YAP6GPAXK@ZXZ@4QBW4module_id@?A0x352e5c4b@@B 10015718     libucrt:winapi_thunks.obj
 0002:00001720       ?candidate_modules@?1??try_get_FlsSetValue@@YAP6GHKPAX@ZXZ@4QBW4module_id@?A0x352e5c4b@@B 10015720     libucrt:winapi_thunks.obj
 0002:00001728       ?candidate_modules@?1??try_get_GetCurrentPackageId@@YAP6GJPAIPAE@ZXZ@4QBW4module_id@?A0x352e5c4b@@B 10015728     libucrt:winapi_thunks.obj
 0002:00001744       ?candidate_modules@?1??try_get_InitializeCriticalSectionEx@@YAP6GHPAU_RTL_CRITICAL_SECTION@@KK@ZXZ@4QBW4module_id@?A0x352e5c4b@@B 10015744     libucrt:winapi_thunks.obj
 0002:0000174c       ?candidate_modules@?1??try_get_LCMapStringEx@@YAP6GHPB_WK0HPA_WHPAU_nlsversioninfo@@PAXJ@ZXZ@4QBW4module_id@?A0x352e5c4b@@B 1001574c     libucrt:winapi_thunks.obj
 0002:00001764       ?candidate_modules@?1??try_get_LocaleNameToLCID@@YAP6GKPB_WK@ZXZ@4QBW4module_id@?A0x352e5c4b@@B 10015764     libucrt:winapi_thunks.obj
 0002:00001780       __mb_locale_names          10015780     libucrt:mbctype.obj
 0002:00001dc8       _LcidToLocaleNameTable     10015dc8     libucrt:lcidtoname_downlevel.obj
 0002:00002ee8       _LocaleNameToIndexTable    10016ee8     libucrt:lcidtoname_downlevel.obj
 0002:00003e40       LOG_name                   10017e40     libucrt:log10.obj
 0002:00003e50       _One                       10017e50     libucrt:ceil_pentium4.obj
 0002:00003e60       _Bns                       10017e60     libucrt:ceil_pentium4.obj
 0002:00003e70       _Zero                      10017e70     libucrt:ceil_pentium4.obj
 0002:00003e80       _S                         10017e80     libucrt:ceil_pentium4.obj
 0002:00003e90       _NegZero                   10017e90     libucrt:ceil_pentium4.obj
 0002:00003ea0       emask                      10017ea0     libucrt:log10_pentium4.obj
 0002:00003eb0       CC                         10017eb0     libucrt:log10_pentium4.obj
 0002:00003ec0       Magic                      10017ec0     libucrt:log10_pentium4.obj
 0002:00003ed0       hi_mask                    10017ed0     libucrt:log10_pentium4.obj
 0002:00003ee0       LOG10_2                    10017ee0     libucrt:log10_pentium4.obj
 0002:00003ef0       place_L                    10017ef0     libucrt:log10_pentium4.obj
 0002:00003f10       One                        10017f10     libucrt:log10_pentium4.obj
 0002:00003f20       Zero                       10017f20     libucrt:log10_pentium4.obj
 0002:00003f30       Two52                      10017f30     libucrt:log10_pentium4.obj
 0002:00003f40       Infs                       10017f40     libucrt:log10_pentium4.obj
 0002:00003f50       NaN                        10017f50     libucrt:log10_pentium4.obj
 0002:00003f60       coeff                      10017f60     libucrt:log10_pentium4.obj
 0002:00003fbe       _log2max                   10017fbe     libucrt:87tran.obj
 0002:00003fc8       _smallarg                  10017fc8     libucrt:87tran.obj
 0002:00003fd2       _half                      10017fd2     libucrt:87tran.obj
 0002:0000401e       One                        1001801e     libucrt:87disp.obj
 0002:00004026       Three                      10018026     libucrt:87disp.obj
 0002:0000402e       XAMtoTagTab                1001802e     libucrt:87disp.obj
 0002:00004040       One                        10018040     libucrt:common.obj
 0002:00004054       DblMax                     10018054     libucrt:common.obj
 0002:0000405c       DblMin                     1001805c     libucrt:common.obj
 0002:00004064       IeeeAdjO                   10018064     libucrt:common.obj
 0002:0000406c       IeeeAdjU                   1001806c     libucrt:common.obj
 0002:00004074       _infinity                  10018074     libucrt:common.obj
 0002:0000407c       _zero                      1001807c     libucrt:common.obj
 0002:000040c8       _over                      100180c8     libucrt:fpctrl.obj
 0002:000040d4       _under                     100180d4     libucrt:fpctrl.obj
 0002:00004998       ?_names@?1??_get_fname@@9@9 10018998     libucrt:fpexcept.obj
 0002:00005410       _Int32ToUInt32             10019410     LIBCMT:_ftol3_.obj
 0002:00005418       _DP2to32                   10019418     LIBCMT:_ftol3_.obj
 0002:00005420       _MantissaMask              10019420     LIBCMT:_ftol3_.obj
 0002:00005428       _IntegerBit                10019428     LIBCMT:_ftol3_.obj
 0002:00005430       _SignBit64                 10019430     LIBCMT:_ftol3_.obj
 0002:00005438       _MinFP64                   10019438     LIBCMT:_ftol3_.obj
 0002:00005440       _MinInt64                  10019440     LIBCMT:_ftol3_.obj
 0002:00005448       _MaxInt64                  10019448     LIBCMT:_ftol3_.obj
 0002:00005450       _MaxUInt64                 10019450     LIBCMT:_ftol3_.obj
 0002:00005458       _MaxFP32                   10019458     LIBCMT:_ftol3_.obj
 0002:00005460       _MinFP32                   10019460     LIBCMT:_ftol3_.obj
 0002:00005468       _MinSubInexact             10019468     LIBCMT:_ftol3_.obj
 0002:00005470       _FpExcptTable              10019470     LIBCMT:_ftol3_.obj
 0002:00005480       _i1075                     10019480     LIBCMT:_ftol3_.obj
 0002:00005484       _i1087                     10019484     LIBCMT:_ftol3_.obj
 0002:00005488       _x0800                     10019488     LIBCMT:_ftol3_.obj
 0002:0000548c       _x17FF                     1001948c     LIBCMT:_ftol3_.obj
 0002:00005490       _CWMask                    10019490     LIBCMT:_ftol3_.obj
 0002:00005c30       __sehtable$___scrt_is_nonwritable_in_current_image 10019c30     LIBCMT:utility.obj
 0002:00005c50       __sehtable$?dllmain_crt_process_attach@@YAHQAUHINSTANCE__@@QAX@Z 10019c50     LIBCMT:dll_dllmain.obj
 0002:00005c70       __sehtable$?dllmain_crt_process_detach@@YAH_N@Z 10019c70     LIBCMT:dll_dllmain.obj
 0002:00005c90       __sehtable$?dllmain_dispatch@@YAHQAUHINSTANCE__@@KQAX@Z 10019c90     LIBCMT:dll_dllmain.obj
 0002:00005ce8       __sehtable$_fgetc          10019ce8     libucrt:fgetc.obj
 0002:00005d08       __sehtable$__query_new_handler 10019d08     libucrt:new_handler.obj
 0002:00005d28       __sehtable$?common_exit@@YAXHW4_crt_exit_cleanup_mode@@W4_crt_exit_return_mode@@@Z 10019d28     libucrt:exit.obj
 0002:00005d50       __sehtable$??$?RV<lambda_800076c951b434888f4765a74a194fcc>@@AAV<lambda_4e60a939b0d047cfe11ddc22648dfba9>@@V<lambda_6dbb1268764f43b569ce7b67e331d33a>@@@?$__crt_seh_guarded_call@H@@QAEH$$QAV<lambda_800076c951b434888f4765a74a194fcc>@@AAV<lambda_4e60a939b0d047cfe11ddc22648dfba9>@@$$QAV<lambda_6dbb1268764f43b569ce7b67e331d33a>@@@Z 10019d50     libucrt:onexit.obj
 0002:00005d70       __sehtable$??$?RV<lambda_995298e7d72eb4c2aab26c0585b3abe5>@@AAV<lambda_275893d493268fdec8709772e3fcec0e>@@V<lambda_293819299cbf9a7022e18b56a874bb5c>@@@?$__crt_seh_guarded_call@H@@QAEH$$QAV<lambda_995298e7d72eb4c2aab26c0585b3abe5>@@AAV<lambda_275893d493268fdec8709772e3fcec0e>@@$$QAV<lambda_293819299cbf9a7022e18b56a874bb5c>@@@Z 10019d70     libucrt:onexit.obj
 0002:00005d90       __sehtable$_terminate      10019d90     libucrt:terminate.obj
 0002:00005db0       __sehtable$___acrt_initialize_lowio 10019db0     libucrt:ioinit.obj
 0002:00005dd0       __sehtable$??$?RV<lambda_9df27f884b057bc3edfc946cb5b7cf47>@@AAV<lambda_e69574bed617af4e071282c136b37893>@@V<lambda_cc0d902bcbbeb830f749456577db4721>@@@?$__crt_seh_guarded_call@X@@QAEX$$QAV<lambda_9df27f884b057bc3edfc946cb5b7cf47>@@AAV<lambda_e69574bed617af4e071282c136b37893>@@$$QAV<lambda_cc0d902bcbbeb830f749456577db4721>@@@Z 10019dd0     libucrt:per_thread_data.obj
 0002:00005df0       __sehtable$??$?RV<lambda_3518db117f0e7cdb002338c5d3c47b6c>@@AAV<lambda_b2ea41f6bbb362cd97d94c6828d90b61>@@V<lambda_abdedf541bb04549bc734292b4a045d4>@@@?$__crt_seh_guarded_call@X@@QAEX$$QAV<lambda_3518db117f0e7cdb002338c5d3c47b6c>@@AAV<lambda_b2ea41f6bbb362cd97d94c6828d90b61>@@$$QAV<lambda_abdedf541bb04549bc734292b4a045d4>@@@Z 10019df0     libucrt:per_thread_data.obj
 0002:00005e10       __sehtable$??$?RV<lambda_51b6e8b1eb166f2a3faf91f424b38130>@@AAV<lambda_6250bd4b2a391816dd638c3bf72b0bcb>@@V<lambda_0b5a4a3e68152e1d9b943535f5f47bed>@@@?$__crt_seh_guarded_call@X@@QAEX$$QAV<lambda_51b6e8b1eb166f2a3faf91f424b38130>@@AAV<lambda_6250bd4b2a391816dd638c3bf72b0bcb>@@$$QAV<lambda_0b5a4a3e68152e1d9b943535f5f47bed>@@@Z 10019e10     libucrt:per_thread_data.obj
 0002:00005e30       __sehtable$??$?RV<lambda_5b71d36f03204c0beab531769a5b5694>@@AAV<lambda_be2b3da3f62db62e9dad5dc70221a656>@@V<lambda_8f9ce462984622f9bf76b59e2aaaf805>@@@?$__crt_seh_guarded_call@X@@QAEX$$QAV<lambda_5b71d36f03204c0beab531769a5b5694>@@AAV<lambda_be2b3da3f62db62e9dad5dc70221a656>@@$$QAV<lambda_8f9ce462984622f9bf76b59e2aaaf805>@@@Z 10019e30     libucrt:per_thread_data.obj
 0002:00005e50       __sehtable$___acrt_uninitialize_locale 10019e50     libucrt:wsetlocale.obj
 0002:00005e70       __sehtable$___acrt_update_thread_multibyte_data 10019e70     libucrt:mbctype.obj
 0002:00005e90       __sehtable$??$?RV<lambda_978dc153c237d78434369da87b74ff60>@@AAV<lambda_ad1ced32f4ac17aa236e5ef05d6b3b7c>@@V<lambda_4a8533e2866a575feecb8298ce776b0d>@@@?$__crt_seh_guarded_call@X@@QAEX$$QAV<lambda_978dc153c237d78434369da87b74ff60>@@AAV<lambda_ad1ced32f4ac17aa236e5ef05d6b3b7c>@@$$QAV<lambda_4a8533e2866a575feecb8298ce776b0d>@@@Z 10019e90     libucrt:mbctype.obj
 0002:00005eb0       __sehtable$_raise          10019eb0     libucrt:signal.obj
 0002:00005ed0       __sehtable$??$?RV<lambda_a048d3beccc847880fc8490e18b82769>@@AAV<lambda_ec61778202f4f5fc7e7711acc23c3bca>@@V<lambda_f7496a158712204296dd6628a163878e>@@@?$__crt_seh_guarded_call@P6AXH@Z@@QAEP6AXH@Z$$QAV<lambda_a048d3beccc847880fc8490e18b82769>@@AAV<lambda_ec61778202f4f5fc7e7711acc23c3bca>@@$$QAV<lambda_f7496a158712204296dd6628a163878e>@@@Z 10019ed0     libucrt:signal.obj
 0002:00005ef0       __sehtable$__fcloseall     10019ef0     libucrt:closeall.obj
 0002:00005f10       __sehtable$_common_flush_all 10019f10     libucrt:fflush.obj
 0002:00005f38       __sehtable$__read          10019f38     libucrt:read.obj
 0002:00005f58       __sehtable$___acrt_lowio_ensure_fh_exists 10019f58     libucrt:osfinfo.obj
 0002:00005f78       __sehtable$___acrt_update_thread_locale_data 10019f78     libucrt:locale_refcounting.obj
 0002:00005f98       __sehtable$_fclose         10019f98     libucrt:fclose.obj
 0002:00005fb8       __sehtable$??$?RV<lambda_61cee617f5178ae960314fd4d05640a0>@@AAV<lambda_6978c1fb23f02e42e1d9e99668cc68aa>@@V<lambda_9cd88cf8ad10232537feb2133f08c833>@@@?$__crt_seh_guarded_call@H@@QAEH$$QAV<lambda_61cee617f5178ae960314fd4d05640a0>@@AAV<lambda_6978c1fb23f02e42e1d9e99668cc68aa>@@$$QAV<lambda_9cd88cf8ad10232537feb2133f08c833>@@@Z 10019fb8     libucrt:commit.obj
 0002:00005fd8       __sehtable$__write         10019fd8     libucrt:write.obj
 0002:00005ff8       __sehtable$??$?RV<lambda_123407a5e2ac06da108355a851863b7a>@@AAV<lambda_2fe9b910cf3cbf4a0ab98a02ba45b3ec>@@V<lambda_ae55bdf541ad94d75914d381c370e64d>@@@?$__crt_seh_guarded_call@H@@QAEH$$QAV<lambda_123407a5e2ac06da108355a851863b7a>@@AAV<lambda_2fe9b910cf3cbf4a0ab98a02ba45b3ec>@@$$QAV<lambda_ae55bdf541ad94d75914d381c370e64d>@@@Z 10019ff8     libucrt:close.obj
 0002:00006018       __sehtable$__IsNonwritableInCurrentImage 1001a018     LIBCMT:pesect.obj
 0002:00006a10       .edata                     1001aa10     memoryjs.exp
 0002:00006a38       rgpv                       1001aa38     memoryjs.exp
 0002:00006a3c       rgszName                   1001aa3c     memoryjs.exp
 0002:00006a40       rgwOrd                     1001aa40     memoryjs.exp
 0002:00006a42       szName                     1001aa42     memoryjs.exp
 0002:00006a50       $N00001                    1001aa50     memoryjs.exp
 0002:00006d36       .idata$6                   1001ad36     kernel32:KERNEL32.dll
 0003:00000010       ?__vcrt_flsindex@@3KA      1001c010     libvcruntime:per_thread_data.obj
 0003:00000034       _errno_no_memory           1001c034     libucrt:errno.obj
 0003:00000038       _doserrno_no_memory        1001c038     libucrt:errno.obj
 0003:00000118       ___acrt_flsindex           1001c118     libucrt:per_thread_data.obj
 0003:000001e4       ___rgctypeflag             1001c1e4     libucrt:mbctype.obj
 0003:000001e8       ___rgcode_page_info        1001c1e8     libucrt:mbctype.obj
 0003:00000890       __module                   1001c890     memoryjs.obj
 0003:00000a54       ?module_local_atexit_table@@3U_onexit_table_t@@A 1001ca54     LIBCMT:utility.obj
 0003:00000a60       ?module_local_at_quick_exit_table@@3U_onexit_table_t@@A 1001ca60     LIBCMT:utility.obj
 0003:00000a6c       ?is_initialized_as_dll@@3_NA 1001ca6c     LIBCMT:utility.obj
 0003:00000a70       ?__proc_attached@@3HA      1001ca70     LIBCMT:dll_dllmain.obj
 0003:00000a78       _GS_ExceptionRecord        1001ca78     LIBCMT:gs_report.obj
 0003:00000ac8       _GS_ContextRecord          1001cac8     LIBCMT:gs_report.obj
 0003:00000de0       ?heap@@3V_HeapManager@@A   1001cde0     libvcruntime:undname.obj
 0003:00000df4       ?__vcrt_startup_thread_ptd@@3U__vcrt_ptd@@A 1001cdf4     libvcruntime:per_thread_data.obj
 0003:00000e1c       ___vcrt_lock_table         1001ce1c     libvcruntime:locks.obj
 0003:00000e34       ___vcrt_locks_initialized  1001ce34     libvcruntime:locks.obj
 0003:00000e38       ?module_handles@@3PAPAUHINSTANCE__@@A 1001ce38     libvcruntime:winapi_downlevel.obj
 0003:00000e48       ?encoded_function_pointers@@3PAPAXA 1001ce48     libvcruntime:winapi_downlevel.obj
 0003:00000e70       ___acrt_invalid_parameter_handler 1001ce70     libucrt:invalid_parameter.obj
 0003:00000e74       ___acrt_new_handler        1001ce74     libucrt:new_handler.obj
 0003:00000e78       _c_termination_complete    1001ce78     libucrt:exit.obj
 0003:00000e7c       _thread_local_exit_callback_func 1001ce7c     libucrt:exit.obj
 0003:00000e80       ?c_exit_complete@?5??common_exit@@YAXHW4_crt_exit_cleanup_mode@@W4_crt_exit_return_mode@@@Z@4_NA 1001ce80     libucrt:exit.obj
 0003:00000e88       ?program_name@?5???$common_configure_argv@D@@YAHW4_crt_argv_mode@@@Z@4PADA 1001ce88     libucrt:argv_parsing.obj
 0003:000011d8       ___acrt_lock_table         1001d1d8     libucrt:locks.obj
 0003:00001310       ___acrt_locks_initialized  1001d310     libucrt:locks.obj
 0003:00001318       _module_handles            1001d318     libucrt:winapi_thunks.obj
 0003:00001368       _encoded_function_pointers 1001d368     libucrt:winapi_thunks.obj
 0003:000013e8       ?state_cache@?1??__acrt_is_packaged_app@@9@4JA 1001d3e8     libucrt:winapi_thunks.obj
 0003:00001404       _fSystemSet                1001d404     libucrt:mbctype.obj
 0003:00001408       ?initialized@?1??__acrt_initialize_multibyte@@9@4_NA 1001d408     libucrt:mbctype.obj
 0003:00001428       _ctrlc_action              1001d428     libucrt:signal.obj
 0003:0000142c       _ctrlbreak_action          1001d42c     libucrt:signal.obj
 0003:00001430       _abort_action              1001d430     libucrt:signal.obj
 0003:00001434       _term_action               1001d434     libucrt:signal.obj
 0003:00001438       _user_matherr              1001d438     libucrt:matherr.obj
 0003:00001444       ___acrt_global_new_mode    1001d444     libucrt:new_mode.obj
 0003:00001450       ___acrt_app_type           1001d450     libucrt:report_runtime_error.obj
 0003:00001458       __pmatherr_set             1001d458     libucrt:libm_error.obj
 0004:00000000       __guard_fids____dcrt_uninitialize_environments_nolock 1001e000     libucrt:environment_initialization.obj
 0004:00000008       __guard_fids__             1001e008     libucrt:initialization.obj
 0004:00000068       __guard_fids____acrt_initialize_ptd 1001e068     libucrt:per_thread_data.obj
 0004:0000006c       __guard_fids_??$expand_argument_wildcards@D@@YAHQAD0AAV?$argument_list@D@?A0xb0e4b824@@@Z 1001e06c     libucrt:argv_wildcards.obj
 0004:00000070       __guard_fids__             1001e070     libucrt:stdio_initializer.obj
 0004:00000074       __guard_fids__             1001e074     libucrt:stdio_initializer.obj
 0004:00000078       __guard_fids__             1001e078     libucrt:locale_initializer.obj
 0004:0000007c       __guard_fids__             1001e07c     libucrt:multibyte_initializer.obj
 0004:00000080       __guard_fids____libm_error_support 1001e080     libucrt:libm_error.obj
 0004:00000084       __guard_fids__             1001e084     libucrt:sse2_initializer.obj
 0004:00000088       __guard_fids__             1001e088     libucrt:console_output_initializer.obj
 0004:0000008c       __guard_fids__             1001e08c     libcpmt:xthrow.obj
 0004:00000094       __guard_fids__             1001e094     libcpmt:xthrow.obj
 0004:0000009c       __guard_fids__             1001e09c     libcpmt:xthrow.obj
 0004:000000a4       __guard_fids__             1001e0a4     libcpmt:xthrow.obj
 0004:000000ac       __guard_fids__             1001e0ac     libcpmt:xthrow.obj
 0004:000000b4       __guard_fids__             1001e0b4     libcpmt:xthrow.obj
 0004:000000b8       __guard_fids__             1001e0b8     libcpmt:xthrow.obj
 0004:000000bc       __guard_fids__             1001e0bc     libcpmt:xthrow.obj
 0004:000000c0       __guard_fids__             1001e0c0     libcpmt:xthrow.obj
 0004:000000c4       __guard_fids__             1001e0c4     libcpmt:xthrow.obj
 0004:000000c8       __guard_fids__             1001e0c8     libcpmt:xthrow.obj
 0004:000000cc       __guard_fids__             1001e0cc     libcpmt:xthrow.obj
 0004:000000d0       __guard_fids__             1001e0d0     libcpmt:xthrow.obj
 0004:000000d4       __guard_fids__             1001e0d4     LIBCMT:std_type_info_static.obj
 0004:000000d8       __guard_fids_?dllmain_crt_process_attach@@YAHQAUHINSTANCE__@@QAX@Z 1001e0d8     LIBCMT:dll_dllmain.obj
 0004:000000e0       __guard_fids_?dllmain_dispatch@@YAHQAUHINSTANCE__@@KQAX@Z 1001e0e0     LIBCMT:dll_dllmain.obj
 0004:000000e4       __guard_fids__             1001e0e4     LIBCMT:throw_bad_alloc.obj
 0004:000000ec       __guard_fids__             1001e0ec     LIBCMT:throw_bad_alloc.obj
 0004:000000f0       __guard_fids__             1001e0f0     LIBCMT:throw_bad_alloc.obj
 0004:000000f4       __guard_fids__             1001e0f4     LIBCMT:guard_support.obj
 0004:000000f8       __guard_fids____vcrt_initialize_ptd 1001e0f8     libvcruntime:per_thread_data.obj
 0005:00000060       $R000000                   1001f060     * linker generated manifest res *

 Exports

  ordinal    name

        1    __register_memoryjs_
               exported name: _register_memoryjs_
