 segfault-handler

 Timestamp is 5bf9a94f (Sat Nov 24 20:41:03 2018)

 Preferred load address is 10000000

 Start         Length     Name                   Class
 0001:00000000 00014a1bH .text$mn                CODE
 0001:00014a1b 00000000H .text$x                 CODE
 0002:00000000 00000170H .idata$5                DATA
 0002:00000170 00000004H .00cfg                  DATA
 0002:00000174 00000004H .CRT$XCA                DATA
 0002:00000178 00000004H .CRT$XCU                DATA
 0002:0000017c 00000004H .CRT$XCZ                DATA
 0002:00000180 00000004H .CRT$XIA                DATA
 0002:00000184 0000000cH .CRT$XIC                DATA
 0002:00000190 00000004H .CRT$XIZ                DATA
 0002:00000194 00000004H .CRT$XPA                DATA
 0002:00000198 00000008H .CRT$XPX                DATA
 0002:000001a0 00000004H .CRT$XPXA               DATA
 0002:000001a4 00000004H .CRT$XPZ                DATA
 0002:000001a8 00000004H .CRT$XTA                DATA
 0002:000001ac 00000004H .CRT$XTZ                DATA
 0002:000001b0 00000000H .gfids$y                DATA
 0002:000001b0 00005d20H .rdata                  DATA
 0002:00005ed0 00000130H .rdata$r                DATA
 0002:00006000 0000000cH .rdata$sxdata           DATA
 0002:0000600c 000003b4H .rdata$zzzdbg           DATA
 0002:000063c0 00000004H .rtc$IAA                DATA
 0002:000063c4 00000004H .rtc$IZZ                DATA
 0002:000063c8 00000004H .rtc$TAA                DATA
 0002:000063cc 00000004H .rtc$TZZ                DATA
 0002:000063d0 000004ccH .xdata$x                DATA
 0002:0000689c 00000020H .didat$2                DATA
 0002:000068bc 00000020H .didat$3                DATA
 0002:000068dc 00000068H .didat$4                DATA
 0002:00006944 0000069cH .didat$6                DATA
 0002:00006fe0 00000070H .didat$7                DATA
 0002:00007050 00000064H .edata                  DATA
 0002:000070b4 0000003cH .idata$2                DATA
 0002:000070f0 00000014H .idata$3                DATA
 0002:00007104 00000170H .idata$4                DATA
 0002:00007274 000006a6H .idata$6                DATA
 0003:00000000 000008c4H .data                   DATA
 0003:000008c4 00000078H .data$r                 DATA
 0003:0000093c 0000006cH .didat$5                DATA
 0003:000009a8 00000ae0H .bss                    DATA
 0004:00000000 00000060H .rsrc$01                DATA
 0004:00000060 00000180H .rsrc$02                DATA

  Address         Publics by Value              Rva+Base       Lib:Object

 0000:00000000       ___guard_iat_count         00000000     <absolute>
 0000:00000000       ___guard_longjmp_count     00000000     <absolute>
 0000:00000000       ___guard_fids_count        00000000     <absolute>
 0000:00000000       ___guard_longjmp_table     00000000     <absolute>
 0000:00000000       ___hybrid_code_map_count   00000000     <absolute>
 0000:00000000       __except_list              00000000     <absolute>
 0000:00000000       ___hybrid_auxiliary_iat    00000000     <absolute>
 0000:00000000       ___guard_fids_table        00000000     <absolute>
 0000:00000000       ___dynamic_value_reloc_table 00000000     <absolute>
 0000:00000000       ___guard_iat_table         00000000     <absolute>
 0000:00000000       ___volatile_metadata       00000000     <absolute>
 0000:00000000       ___enclave_config          00000000     <absolute>
 0000:00000000       ___hybrid_code_map         00000000     <absolute>
 0000:00000003       ___safe_se_handler_count   00000003     <absolute>
 0000:00000100       ___guard_flags             00000100     <absolute>
 0000:00000000       ___ImageBase               10000000     <linker-defined>
 0001:00000000       ___local_stdio_printf_options 10001000 f i segfault-handler.obj
 0001:00000010       _fprintf                   10001010 f i segfault-handler.obj
 0001:00000040       __snprintf                 10001040 f i segfault-handler.obj
 0001:00000160       ?New@?$Factory@VFunctionTemplate@v8@@@imp@Nan@@SA?AV?$Local@VFunctionTemplate@v8@@@v8@@P6AXABV?$FunctionCallbackInfo@VValue@v8@@@3@@ZV?$Local@VValue@v8@@@5@V?$Local@VSignature@v8@@@5@@Z 10001160 f i segfault-handler.obj
 0001:000002c0       ?segfault_handler@@YGJPAU_EXCEPTION_POINTERS@@@Z 100012c0 f   segfault-handler.obj
 0001:00000470       ?segfault_stack_frame_1@@YAXXZ 10001470 f   segfault-handler.obj
 0001:000004a0       ?segfault_stack_frame_2@@YAXXZ 100014a0 f   segfault-handler.obj
 0001:000004b0       ?CauseSegfault@@YAXABV?$FunctionCallbackInfo@VValue@v8@@@Nan@@@Z 100014b0 f   segfault-handler.obj
 0001:000004c0       ?RegisterHandler@@YAXABV?$FunctionCallbackInfo@VValue@v8@@@Nan@@@Z 100014c0 f   segfault-handler.obj
 0001:000005a0       _init                      100015a0 f   segfault-handler.obj
 0001:000005e0       ??$SetMethod@VObject@v8@@VLocal@2@@Nan@@YAXV?$Local@VObject@v8@@@v8@@PBDP6AXABV?$FunctionCallbackInfo@VValue@v8@@@0@@Z@Z 100015e0 f i segfault-handler.obj
 0001:00000670       ??$SetMethodAux@V?$Local@VObject@v8@@@v8@@@imp@Nan@@YAXV?$Local@VObject@v8@@@v8@@V?$Local@VString@v8@@@3@V?$Local@VFunctionTemplate@v8@@@3@ZZ 10001670 f i segfault-handler.obj
 0001:000006f0       ??0StackWalkerInternal@@QAE@PAVStackWalker@@PAX@Z 100016f0 f i StackWalker.obj
 0001:00000770       ?Init@StackWalkerInternal@@QAEHPBD@Z 10001770 f i StackWalker.obj
 0001:00000ad0       ?GetModuleListPSAPI@StackWalkerInternal@@AAEHPAX@Z 10001ad0 f i StackWalker.obj
 0001:00000cb0       ?LoadModule@StackWalkerInternal@@AAEKPAXPBD1_KK@Z 10001cb0 f i StackWalker.obj
 0001:00000f10       ?LoadModules@StackWalkerInternal@@QAEHPAXK@Z 10001f10 f i StackWalker.obj
 0001:00001090       ?GetModuleInfo@StackWalkerInternal@@QAEHPAX_KPAUIMAGEHLP_MODULE64_V2@1@@Z 10002090 f i StackWalker.obj
 0001:00001150       ??_EStackWalker@@UAEPAXI@Z 10002150 f i * CIL library *:* CIL module *
 0001:00001150       ??_GStackWalker@@UAEPAXI@Z 10002150 f i StackWalker.obj
 0001:00001170       ??1StackWalker@@UAE@XZ     10002170 f   StackWalker.obj
 0001:000011f0       ?LoadModules@StackWalker@@QAEHXZ 100021f0 f   StackWalker.obj
 0001:000015a0       ?ShowCallstack@StackWalker@@QAEHPAXPBU_CONTEXT@@P6GH0_K0KPAK0@Z0@Z 100025a0 f   StackWalker.obj
 0001:00001c30       ?myReadProcMem@StackWalker@@KGHPAX_K0KPAK@Z 10002c30 f   StackWalker.obj
 0001:00001c90       ?OnLoadModule@StackWalker@@MAEXPBD0_KKK001@Z 10002c90 f   StackWalker.obj
 0001:00001d80       ?OnCallstackEntry@StackWalker@@MAEXW4CallstackEntryType@1@AAUCallstackEntry@1@@Z 10002d80 f   StackWalker.obj
 0001:00001ec0       ?OnSymInit@StackWalker@@MAEXPBDK0@Z 10002ec0 f   StackWalker.obj
 0001:00001fb0       ?OnOutput@StackWalker@@MAEXPBD@Z 10002fb0 f   StackWalker.obj
 0001:00002010       ??$strcpy_s@$0EAA@@@YAHAAY0EAA@DPBD@Z 10003010 f i StackWalker.obj
 0001:00002020       ??$_snprintf_s@$0EAA@@@YAHAAY0EAA@DIPBDZZ 10003020 f i StackWalker.obj
 0001:000020a6       __imp_load_?Value@External@v8@@QBEPAXXZ 100030a6 f   node:node.exe
 0001:000020b0       __tailMerge_node_exe       100030b0     node:node.exe
 0001:000020c1       __imp_load_?New@External@v8@@SA?AV?$Local@VExternal@v8@@@2@PAVIsolate@2@PAX@Z 100030c1 f   node:node.exe
 0001:000020cb       __imp_load_?GetCurrentContext@Isolate@v8@@QAE?AV?$Local@VContext@v8@@@2@XZ 100030cb f   node:node.exe
 0001:000020d5       __imp_load_?GetCurrent@Isolate@v8@@SAPAV12@XZ 100030d5 f   node:node.exe
 0001:000020df       __imp_load_?CreateHandle@HandleScope@v8@@KAPAPAVObject@internal@2@PAVIsolate@42@PAV342@@Z 100030df f   node:node.exe
 0001:000020e9       __imp_load_?CreateHandle@HandleScope@v8@@CAPAPAVObject@internal@2@PAVHeapObject@42@PAV342@@Z 100030e9 f   node:node.exe
 0001:000020f3       __imp_load_??1HandleScope@v8@@QAE@XZ 100030f3 f   node:node.exe
 0001:000020fd       __imp_load_??0HandleScope@v8@@QAE@PAVIsolate@1@@Z 100030fd f   node:node.exe
 0001:00002107       __imp_load_?SetClassName@FunctionTemplate@v8@@QAEXV?$Local@VString@v8@@@2@@Z 10003107 f   node:node.exe
 0001:00002111       __imp_load_?GetFunction@FunctionTemplate@v8@@QAE?AV?$MaybeLocal@VFunction@v8@@@2@V?$Local@VContext@v8@@@2@@Z 10003111 f   node:node.exe
 0001:0000211b       __imp_load_?New@FunctionTemplate@v8@@SA?AV?$Local@VFunctionTemplate@v8@@@2@PAVIsolate@2@P6AXABV?$FunctionCallbackInfo@VValue@v8@@@2@@ZV?$Local@VValue@v8@@@2@V?$Local@VSignature@v8@@@2@HW4ConstructorBehavior@2@W4SideEffectType@2@@Z 1000311b f   node:node.exe
 0001:00002125       __imp_load_?ToLocalEmpty@V8@v8@@CAXXZ 10003125 f   node:node.exe
 0001:0000212f       __imp_load_?Escape@EscapableHandleScope@v8@@AAEPAPAVObject@internal@2@PAPAV342@@Z 1000312f f   node:node.exe
 0001:00002139       __imp_load_??0EscapableHandleScope@v8@@QAE@PAVIsolate@1@@Z 10003139 f   node:node.exe
 0001:00002143       __imp_load_??1Utf8Value@String@v8@@QAE@XZ 10003143 f   node:node.exe
 0001:0000214d       __imp_load_??0Utf8Value@String@v8@@QAE@V?$Local@VValue@v8@@@2@@Z 1000314d f   node:node.exe
 0001:00002157       __imp_load_?NewFromUtf8@String@v8@@SA?AV?$MaybeLocal@VString@v8@@@2@PAVIsolate@2@PBDW4NewStringType@2@H@Z 10003157 f   node:node.exe
 0001:00002161       __imp_load_?SlowGetInternalField@Object@v8@@AAE?AV?$Local@VValue@v8@@@2@H@Z 10003161 f   node:node.exe
 0001:0000216b       __imp_load_?SetInternalField@Object@v8@@QAEXHV?$Local@VValue@v8@@@2@@Z 1000316b f   node:node.exe
 0001:00002175       __imp_load_?Set@Object@v8@@QAE_NV?$Local@VValue@v8@@@2@0@Z 10003175 f   node:node.exe
 0001:0000217f       __imp_load_?SetInternalFieldCount@ObjectTemplate@v8@@QAEXH@Z 1000317f f   node:node.exe
 0001:00002189       __imp_load_?NewInstance@ObjectTemplate@v8@@QAE?AV?$MaybeLocal@VObject@v8@@@2@V?$Local@VContext@v8@@@2@@Z 10003189 f   node:node.exe
 0001:00002193       __imp_load_?New@ObjectTemplate@v8@@SA?AV?$Local@VObjectTemplate@v8@@@2@PAVIsolate@2@V?$Local@VFunctionTemplate@v8@@@2@@Z 10003193 f   node:node.exe
 0001:0000219d       __imp_load__node_module_register 1000319d f   node:node.exe
 0001:000021a7       __imp_load_?ToString@Value@v8@@QBE?AV?$Local@VString@v8@@@2@XZ 100031a7 f   node:node.exe
 0001:000021b1       @__security_check_cookie@4 100031b1 f   LIBCMT:secchk.obj
 0001:000021c2       ___raise_securityfailure   100031c2 f   LIBCMT:gs_report.obj
 0001:000021ea       ___report_gsfailure        100031ea f   LIBCMT:gs_report.obj
 0001:000022e3       ??2@YAPAXI@Z               100032e3 f   LIBCMT:new_scalar.obj
 0001:00002313       ??3@YAXPAXI@Z              10003313 f   LIBCMT:delete_scalar_size.obj
 0001:00002641       __DllMainCRTStartup@12     10003641 f   LIBCMT:dll_dllmain.obj
 0001:00002664       ??0bad_alloc@std@@QAE@ABV01@@Z 10003664 f i LIBCMT:throw_bad_alloc.obj
 0001:0000267f       ??0bad_alloc@std@@QAE@XZ   1000367f f i LIBCMT:throw_bad_alloc.obj
 0001:00002697       ??0bad_array_new_length@std@@QAE@ABV01@@Z 10003697 f i LIBCMT:throw_bad_alloc.obj
 0001:000026b2       ??0bad_array_new_length@std@@QAE@XZ 100036b2 f i LIBCMT:throw_bad_alloc.obj
 0001:000026ca       ??0exception@std@@QAE@ABV01@@Z 100036ca f i LIBCMT:throw_bad_alloc.obj
 0001:000026f6       ??1bad_array_new_length@std@@UAE@XZ 100036f6 f i LIBCMT:throw_bad_alloc.obj
 0001:000026f6       ??1bad_alloc@std@@UAE@XZ   100036f6 f i LIBCMT:throw_bad_alloc.obj
 0001:00002707       ??_Eexception@std@@UAEPAXI@Z 10003707 f i LIBCMT:throw_bad_alloc.obj
 0001:00002707       ??_Gexception@std@@UAEPAXI@Z 10003707 f i LIBCMT:throw_bad_alloc.obj
 0001:00002707       ??_Gbad_alloc@std@@UAEPAXI@Z 10003707 f i LIBCMT:throw_bad_alloc.obj
 0001:00002707       ??_Ebad_alloc@std@@UAEPAXI@Z 10003707 f i LIBCMT:throw_bad_alloc.obj
 0001:00002707       ??_Ebad_array_new_length@std@@UAEPAXI@Z 10003707 f i LIBCMT:throw_bad_alloc.obj
 0001:00002707       ??_Gbad_array_new_length@std@@UAEPAXI@Z 10003707 f i LIBCMT:throw_bad_alloc.obj
 0001:00002734       ?__scrt_throw_std_bad_alloc@@YAXXZ 10003734 f   LIBCMT:throw_bad_alloc.obj
 0001:00002751       ?__scrt_throw_std_bad_array_new_length@@YAXXZ 10003751 f   LIBCMT:throw_bad_alloc.obj
 0001:0000276e       ?what@exception@std@@UBEPBDXZ 1000376e f i LIBCMT:throw_bad_alloc.obj
 0001:0000277b       ??3@YAXPAX@Z               1000377b f   LIBCMT:delete_scalar.obj
 0001:000027cd       ___security_init_cookie    100037cd f   LIBCMT:gs_support.obj
 0001:00002818       _DllMain@12                10003818 f   LIBCMT:dll_dllmain_stub.obj
 0001:0000281e       ?__scrt_initialize_type_info@@YAXXZ 1000381e f   LIBCMT:tncleanup.obj
 0001:0000282a       ?__scrt_uninitialize_type_info@@YAXXZ 1000382a f   LIBCMT:tncleanup.obj
 0001:00002836       ___local_stdio_scanf_options 10003836 f i LIBCMT:default_local_stdio_options.obj
 0001:0000283c       ___scrt_initialize_default_local_stdio_options 1000383c f   LIBCMT:default_local_stdio_options.obj
 0001:0000289d       ___scrt_acquire_startup_lock 1000389d f   LIBCMT:utility.obj
 0001:000028cf       ___scrt_dllmain_after_initialize_c 100038cf f   LIBCMT:utility.obj
 0001:000028fa       ___scrt_dllmain_before_initialize_c 100038fa f   LIBCMT:utility.obj
 0001:00002908       ___scrt_dllmain_crt_thread_attach 10003908 f   LIBCMT:utility.obj
 0001:00002927       ___scrt_dllmain_crt_thread_detach 10003927 f   LIBCMT:utility.obj
 0001:00002934       ___scrt_dllmain_exception_filter 10003934 f   LIBCMT:utility.obj
 0001:00002968       ___scrt_dllmain_uninitialize_c 10003968 f   LIBCMT:utility.obj
 0001:0000298b       ___scrt_dllmain_uninitialize_critical 1000398b f   LIBCMT:utility.obj
 0001:00002998       ___scrt_initialize_crt     10003998 f   LIBCMT:utility.obj
 0001:000029d1       ___scrt_initialize_onexit_tables 100039d1 f   LIBCMT:utility.obj
 0001:00002a76       ___scrt_is_nonwritable_in_current_image 10003a76 f   LIBCMT:utility.obj
 0001:00002b0a       ___scrt_release_startup_lock 10003b0a f   LIBCMT:utility.obj
 0001:00002b27       ___scrt_uninitialize_crt   10003b27 f   LIBCMT:utility.obj
 0001:00002b4f       ___scrt_get_dyn_tls_init_callback 10003b4f f   LIBCMT:dyn_tls_init.obj
 0001:00002b55       ___scrt_fastfail           10003b55 f   LIBCMT:utility_desktop.obj
 0001:00002c6f       __crt_debugger_hook        10003c6f f   LIBCMT:utility_desktop.obj
 0001:00002c77       __RTC_Initialize           10003c77 f   LIBCMT:initsect.obj
 0001:00002ca3       __RTC_Terminate            10003ca3 f   LIBCMT:initsect.obj
 0001:00002cd0       __SEH_prolog4              10003cd0 f   LIBCMT:sehprolg4.obj
 0001:00002d16       __SEH_epilog4              10003d16 f   LIBCMT:sehprolg4.obj
 0001:00002d2b       @_guard_check_icall_nop@4  10003d2b f i LIBCMT:guard_support.obj
 0001:00002d2c       ??_Gtype_info@@UAEPAXI@Z   10003d2c f i LIBCMT:std_type_info_static.obj
 0001:00002d2c       ??_Etype_info@@UAEPAXI@Z   10003d2c f i LIBCMT:std_type_info_static.obj
 0001:00002d4f       ___isa_available_init      10003d4f f   LIBCMT:cpu_disp.obj
 0001:00002ee6       __get_startup_argv_mode    10003ee6 f   LIBCMT:argv_mode.obj
 0001:00002eea       ___scrt_is_ucrt_dll_in_use 10003eea f   LIBCMT:ucrt_detection.obj
 0001:00002f40       __except_handler4          10003f40 f   libvcruntime:chandler4.obj
 0001:00003097       ___std_exception_copy      10004097 f   libvcruntime:std_exception.obj
 0001:000030fa       ___std_exception_destroy   100040fa f   libvcruntime:std_exception.obj
 0001:00003119       __CxxThrowException@8      10004119 f   libvcruntime:throw.obj
 0001:00003186       ___std_type_info_destroy_list 10004186 f   libvcruntime:std_type_info.obj
 0001:000031a9       ___vcrt_initialize         100041a9 f   libvcruntime:initialization.obj
 0001:000031d2       ___vcrt_thread_attach      100041d2 f   libvcruntime:initialization.obj
 0001:000031dd       ___vcrt_thread_detach      100041dd f   libvcruntime:initialization.obj
 0001:000031e8       ___vcrt_uninitialize       100041e8 f   libvcruntime:initialization.obj
 0001:00003207       ___vcrt_uninitialize_critical 10004207 f   libvcruntime:initialization.obj
 0001:00003210       _memset                    10004210 f   libvcruntime:memset.obj
 0001:00003370       __local_unwind4            10004370 f   libvcruntime:exsup4.obj
 0001:00003448       __seh_longjmp_unwind4@4    10004448 f   libvcruntime:exsup4.obj
 0001:00003470       @_EH4_CallFilterFunc@8     10004470 f   libvcruntime:exsup4.obj
 0001:00003488       @_EH4_TransferToHandler@8  10004488 f   libvcruntime:exsup4.obj
 0001:000034a4       @_EH4_GlobalUnwind2@8      100044a4 f   libvcruntime:exsup4.obj
 0001:000034c0       @_EH4_LocalUnwind@16       100044c0 f   libvcruntime:exsup4.obj
 0001:000034d7       ___except_validate_context_record 100044d7 f   libvcruntime:jbcxrval.obj
 0001:00003507       ___except_validate_jump_buffer 10004507 f   libvcruntime:jbcxrval.obj
 0001:00003534       ___vcrt_freefls@4          10004534 f   libvcruntime:per_thread_data.obj
 0001:00003550       ___vcrt_freeptd            10004550 f   libvcruntime:per_thread_data.obj
 0001:00003586       ___vcrt_getptd_noexit      10004586 f   libvcruntime:per_thread_data.obj
 0001:00003618       ___vcrt_initialize_ptd     10004618 f   libvcruntime:per_thread_data.obj
 0001:0000364b       ___vcrt_uninitialize_ptd   1000464b f   libvcruntime:per_thread_data.obj
 0001:00003666       ___vcrt_initialize_locks   10004666 f   libvcruntime:locks.obj
 0001:000036a2       ___vcrt_uninitialize_locks 100046a2 f   libvcruntime:locks.obj
 0001:000036d1       ??$__crt_fast_encode_pointer@PAX@@YAPAXQAX@Z 100046d1 f i libvcruntime:winapi_downlevel.obj
 0001:00003821       ___vcrt_FlsAlloc           10004821 f   libvcruntime:winapi_downlevel.obj
 0001:0000385c       ___vcrt_FlsFree            1000485c f   libvcruntime:winapi_downlevel.obj
 0001:00003897       ___vcrt_FlsGetValue        10004897 f   libvcruntime:winapi_downlevel.obj
 0001:000038d2       ___vcrt_FlsSetValue        100048d2 f   libvcruntime:winapi_downlevel.obj
 0001:00003910       ___vcrt_InitializeCriticalSectionEx 10004910 f   libvcruntime:winapi_downlevel.obj
 0001:00003957       ___vcrt_initialize_winapi_thunks 10004957 f   libvcruntime:winapi_downlevel.obj
 0001:00003980       ___vcrt_uninitialize_winapi_thunks 10004980 f   libvcruntime:winapi_downlevel.obj
 0001:000039b2       ___vcrt_initialize_pure_virtual_call_handler 100049b2 f   libvcruntime:purevirt_data.obj
 0001:000039c0       __global_unwind2           100049c0 f   libvcruntime:exsup.obj
 0001:00003a26       __local_unwind2            10004a26 f   libvcruntime:exsup.obj
 0001:00003aaa       __abnormal_termination     10004aaa f   libvcruntime:exsup.obj
 0001:00003ad0       __NLG_Notify1              10004ad0 f   libvcruntime:exsup.obj
 0001:00003adc       __NLG_Notify               10004adc f   libvcruntime:exsup.obj
 0001:00003af3       __NLG_Dispatch2            10004af3     libvcruntime:exsup.obj
 0001:00003af3       __NLG_Dispatch             10004af3     libvcruntime:exsup.obj
 0001:00003afb       __NLG_Call                 10004afb f   libvcruntime:exsup.obj
 0001:00003afd       __NLG_Return2              10004afd     libvcruntime:exsup.obj
 0001:00003b00       _memcpy                    10004b00 f   libvcruntime:memcpy.obj
 0001:00004080       __CallSettingFrame@12      10005080 f   libvcruntime:lowhelpr.obj
 0001:000040a7       __NLG_Return               100050a7     libvcruntime:lowhelpr.obj
 0001:000040cc       ___DestructExceptionObject 100050cc f   libvcruntime:ehhelpers.obj
 0001:0000416c       ?_CallMemberFunction0@@YGXQAX0@Z 1000516c f i libvcruntime:ehhelpers.obj
 0001:00004180       _memmove                   10005180 f   libvcruntime:memmove.obj
 0001:000046f4       ___acrt_initialize_stdio   100056f4 f   libucrt:_file.obj
 0001:000047bc       ___acrt_iob_func           100057bc f   libucrt:_file.obj
 0001:000047cc       ___acrt_uninitialize_stdio 100057cc f   libucrt:_file.obj
 0001:00004818       __lock_file                10005818 f   libucrt:_file.obj
 0001:0000482c       __unlock_file              1000582c f   libucrt:_file.obj
 0001:00004840       __getpid                   10005840 f   libucrt:getpid.obj
 0001:000048f8       ??$__acrt_mbs_to_wcs_cp@U__crt_win32_buffer_internal_dynamic_resizing@@@@YAHQBDAAV?$__crt_win32_buffer@_WU__crt_win32_buffer_internal_dynamic_resizing@@@@I@Z 100058f8 f i libucrt:open.obj
 0001:000049ce       ??0_LocaleUpdate@@QAE@QAU__crt_locale_pointers@@@Z 100059ce f i libucrt:open.obj
 0001:00004a51       ?__acrt_get_utf8_acp_compatibility_codepage@@YAIXZ 10005a51 f i libucrt:open.obj
 0001:00004a92       ?_deallocate@?$__crt_win32_buffer@_WU__crt_win32_buffer_internal_dynamic_resizing@@@@AAEXXZ 10005a92 f i libucrt:open.obj
 0001:00004a92       ?_deallocate@?$__crt_win32_buffer@DU__crt_win32_buffer_internal_dynamic_resizing@@@@AAEXXZ 10005a92 f i libucrt:argv_wildcards.obj
 0001:00004aac       ?allocate@?$__crt_win32_buffer@_WU__crt_win32_buffer_internal_dynamic_resizing@@@@QAEHI@Z 10005aac f i libucrt:open.obj
 0001:00004aeb       ?allocate@__crt_win32_buffer_internal_dynamic_resizing@@SAHQAPAXIABV__crt_win32_buffer_empty_debug_info@@@Z 10005aeb f i libucrt:open.obj
 0001:0000501c       __sopen_dispatch           1000601c f   libucrt:open.obj
 0001:00005027       __sopen_nolock             10006027 f   libucrt:open.obj
 0001:00005097       __wsopen_nolock            10006097 f   libucrt:open.obj
 0001:00005801       ??$count@D@formatting_buffer@__crt_stdio_output@@QBEIXZ 10006801 f i libucrt:output.obj
 0001:00005819       ??$ensure_buffer_is_big_enough@D@formatting_buffer@__crt_stdio_output@@QAE_NI@Z 10006819 f i libucrt:output.obj
 0001:00005898       ??$is_wide_character_specifier@D@__crt_stdio_output@@YA_N_KDW4length_modifier@0@@Z 10006898 f i libucrt:output.obj
 0001:000058c9       ??$scratch_data@D@formatting_buffer@__crt_stdio_output@@QAEPADXZ 100068c9 f i libucrt:output.obj
 0001:000058e7       ??$type_case_integer_parse_into_buffer@I@?$output_processor@DV?$stream_output_adapter@D@__crt_stdio_output@@V?$standard_base@DV?$stream_output_adapter@D@__crt_stdio_output@@@2@@__crt_stdio_output@@AAEXII_N@Z 100068e7 f i libucrt:output.obj
 0001:000058e7       ??$type_case_integer_parse_into_buffer@I@?$output_processor@DV?$string_output_adapter@D@__crt_stdio_output@@V?$standard_base@DV?$string_output_adapter@D@__crt_stdio_output@@@2@@__crt_stdio_output@@AAEXII_N@Z 100068e7 f i libucrt:output.obj
 0001:000058e7       ??$type_case_integer_parse_into_buffer@I@?$output_processor@DV?$string_output_adapter@D@__crt_stdio_output@@V?$format_validation_base@DV?$string_output_adapter@D@__crt_stdio_output@@@2@@__crt_stdio_output@@AAEXII_N@Z 100068e7 f i libucrt:output.obj
 0001:0000595a       ??$type_case_integer_parse_into_buffer@_K@?$output_processor@DV?$string_output_adapter@D@__crt_stdio_output@@V?$format_validation_base@DV?$string_output_adapter@D@__crt_stdio_output@@@2@@__crt_stdio_output@@AAEX_KI_N@Z 1000695a f i libucrt:output.obj
 0001:0000595a       ??$type_case_integer_parse_into_buffer@_K@?$output_processor@DV?$string_output_adapter@D@__crt_stdio_output@@V?$standard_base@DV?$string_output_adapter@D@__crt_stdio_output@@@2@@__crt_stdio_output@@AAEX_KI_N@Z 1000695a f i libucrt:output.obj
 0001:0000595a       ??$type_case_integer_parse_into_buffer@_K@?$output_processor@DV?$stream_output_adapter@D@__crt_stdio_output@@V?$standard_base@DV?$stream_output_adapter@D@__crt_stdio_output@@@2@@__crt_stdio_output@@AAEX_KI_N@Z 1000695a f i libucrt:output.obj
 0001:000059ea       ??$write_multiple_characters@V?$stream_output_adapter@D@__crt_stdio_output@@D@__crt_stdio_output@@YAXABV?$stream_output_adapter@D@0@DHQAH@Z 100069ea f i libucrt:output.obj
 0001:00005a25       ??$write_multiple_characters@V?$string_output_adapter@D@__crt_stdio_output@@D@__crt_stdio_output@@YAXABV?$string_output_adapter@D@0@DHQAH@Z 10006a25 f i libucrt:output.obj
 0001:00005a51       ??0?$common_data@D@__crt_stdio_output@@IAE@XZ 10006a51 f i libucrt:output.obj
 0001:00005a98       ??0?$output_adapter_data@DV?$string_output_adapter@D@__crt_stdio_output@@@__crt_stdio_output@@IAE@ABV?$string_output_adapter@D@1@_KQBDQAU__crt_locale_pointers@@QAD@Z 10006a98 f i libucrt:output.obj
 0001:00005a98       ??0?$output_adapter_data@DV?$stream_output_adapter@D@__crt_stdio_output@@@__crt_stdio_output@@IAE@ABV?$stream_output_adapter@D@1@_KQBDQAU__crt_locale_pointers@@QAD@Z 10006a98 f i libucrt:output.obj
 0001:00005ad4       ??1formatting_buffer@__crt_stdio_output@@QAE@XZ 10006ad4 f i libucrt:output.obj
 0001:00005aee       ??4?$__crt_unique_heap_ptr@DU__crt_internal_free_policy@@@@QAEAAV0@$$QAV0@@Z 10006aee f i libucrt:output.obj
 0001:00005bd3       ?crop_zeroes@__crt_stdio_output@@YAXPADQAU__crt_locale_pointers@@@Z 10006bd3 f i libucrt:output.obj
 0001:00005c33       ?find_next_state@?$output_processor@DV?$stream_output_adapter@D@__crt_stdio_output@@V?$standard_base@DV?$stream_output_adapter@D@__crt_stdio_output@@@2@@__crt_stdio_output@@ABE?AW4state@2@DW432@@Z 10006c33 f i libucrt:output.obj
 0001:00005c33       ?find_next_state@?$output_processor@DV?$string_output_adapter@D@__crt_stdio_output@@V?$standard_base@DV?$string_output_adapter@D@__crt_stdio_output@@@2@@__crt_stdio_output@@ABE?AW4state@2@DW432@@Z 10006c33 f i libucrt:output.obj
 0001:00005c72       ?find_next_state@?$output_processor@DV?$string_output_adapter@D@__crt_stdio_output@@V?$format_validation_base@DV?$string_output_adapter@D@__crt_stdio_output@@@2@@__crt_stdio_output@@ABE?AW4state@2@DW432@@Z 10006c72 f i libucrt:output.obj
 0001:00005cb4       ?force_decimal_point@__crt_stdio_output@@YAXPADQAU__crt_locale_pointers@@@Z 10006cb4 f i libucrt:output.obj
 0001:00005d10       ?parse_int_from_format_string@?$output_processor@DV?$string_output_adapter@D@__crt_stdio_output@@V?$standard_base@DV?$string_output_adapter@D@__crt_stdio_output@@@2@@__crt_stdio_output@@AAE_NQAH@Z 10006d10 f i libucrt:output.obj
 0001:00005d10       ?parse_int_from_format_string@?$output_processor@DV?$string_output_adapter@D@__crt_stdio_output@@V?$format_validation_base@DV?$string_output_adapter@D@__crt_stdio_output@@@2@@__crt_stdio_output@@AAE_NQAH@Z 10006d10 f i libucrt:output.obj
 0001:00005d10       ?parse_int_from_format_string@?$output_processor@DV?$stream_output_adapter@D@__crt_stdio_output@@V?$standard_base@DV?$stream_output_adapter@D@__crt_stdio_output@@@2@@__crt_stdio_output@@AAE_NQAH@Z 10006d10 f i libucrt:output.obj
 0001:00005d86       ?process@?$output_processor@DV?$stream_output_adapter@D@__crt_stdio_output@@V?$standard_base@DV?$stream_output_adapter@D@__crt_stdio_output@@@2@@__crt_stdio_output@@QAEHXZ 10006d86 f i libucrt:output.obj
 0001:00005e9a       ?process@?$output_processor@DV?$string_output_adapter@D@__crt_stdio_output@@V?$format_validation_base@DV?$string_output_adapter@D@__crt_stdio_output@@@2@@__crt_stdio_output@@QAEHXZ 10006e9a f i libucrt:output.obj
 0001:00005fbe       ?process@?$output_processor@DV?$string_output_adapter@D@__crt_stdio_output@@V?$standard_base@DV?$string_output_adapter@D@__crt_stdio_output@@@2@@__crt_stdio_output@@QAEHXZ 10006fbe f i libucrt:output.obj
 0001:000060d2       ?state_case_flag@?$output_processor@DV?$string_output_adapter@D@__crt_stdio_output@@V?$format_validation_base@DV?$string_output_adapter@D@__crt_stdio_output@@@2@@__crt_stdio_output@@AAE_NXZ 100070d2 f i libucrt:output.obj
 0001:000060d2       ?state_case_flag@?$output_processor@DV?$string_output_adapter@D@__crt_stdio_output@@V?$standard_base@DV?$string_output_adapter@D@__crt_stdio_output@@@2@@__crt_stdio_output@@AAE_NXZ 100070d2 f i libucrt:output.obj
 0001:000060d2       ?state_case_flag@?$output_processor@DV?$stream_output_adapter@D@__crt_stdio_output@@V?$standard_base@DV?$stream_output_adapter@D@__crt_stdio_output@@@2@@__crt_stdio_output@@AAE_NXZ 100070d2 f i libucrt:output.obj
 0001:0000610f       ?state_case_normal@?$output_processor@DV?$stream_output_adapter@D@__crt_stdio_output@@V?$standard_base@DV?$stream_output_adapter@D@__crt_stdio_output@@@2@@__crt_stdio_output@@AAE_NXZ 1000710f f i libucrt:output.obj
 0001:0000612e       ?state_case_normal@?$output_processor@DV?$string_output_adapter@D@__crt_stdio_output@@V?$standard_base@DV?$string_output_adapter@D@__crt_stdio_output@@@2@@__crt_stdio_output@@AAE_NXZ 1000712e f i libucrt:output.obj
 0001:0000612e       ?state_case_normal@?$output_processor@DV?$string_output_adapter@D@__crt_stdio_output@@V?$format_validation_base@DV?$string_output_adapter@D@__crt_stdio_output@@@2@@__crt_stdio_output@@AAE_NXZ 1000712e f i libucrt:output.obj
 0001:0000614d       ?state_case_normal_common@?$output_processor@DV?$stream_output_adapter@D@__crt_stdio_output@@V?$standard_base@DV?$stream_output_adapter@D@__crt_stdio_output@@@2@@__crt_stdio_output@@AAE_NXZ 1000714d f i libucrt:output.obj
 0001:00006189       ?state_case_normal_common@?$output_processor@DV?$string_output_adapter@D@__crt_stdio_output@@V?$standard_base@DV?$string_output_adapter@D@__crt_stdio_output@@@2@@__crt_stdio_output@@AAE_NXZ 10007189 f i libucrt:output.obj
 0001:00006189       ?state_case_normal_common@?$output_processor@DV?$string_output_adapter@D@__crt_stdio_output@@V?$format_validation_base@DV?$string_output_adapter@D@__crt_stdio_output@@@2@@__crt_stdio_output@@AAE_NXZ 10007189 f i libucrt:output.obj
 0001:000061b3       ?state_case_normal_tchar@?$output_processor@DV?$stream_output_adapter@D@__crt_stdio_output@@V?$standard_base@DV?$stream_output_adapter@D@__crt_stdio_output@@@2@@__crt_stdio_output@@AAE_ND@Z 100071b3 f i libucrt:output.obj
 0001:00006220       ?state_case_normal_tchar@?$output_processor@DV?$string_output_adapter@D@__crt_stdio_output@@V?$standard_base@DV?$string_output_adapter@D@__crt_stdio_output@@@2@@__crt_stdio_output@@AAE_ND@Z 10007220 f i libucrt:output.obj
 0001:00006220       ?state_case_normal_tchar@?$output_processor@DV?$string_output_adapter@D@__crt_stdio_output@@V?$format_validation_base@DV?$string_output_adapter@D@__crt_stdio_output@@@2@@__crt_stdio_output@@AAE_ND@Z 10007220 f i libucrt:output.obj
 0001:00006284       ?state_case_precision@?$output_processor@DV?$string_output_adapter@D@__crt_stdio_output@@V?$standard_base@DV?$string_output_adapter@D@__crt_stdio_output@@@2@@__crt_stdio_output@@AAE_NXZ 10007284 f i libucrt:output.obj
 0001:00006284       ?state_case_precision@?$output_processor@DV?$stream_output_adapter@D@__crt_stdio_output@@V?$standard_base@DV?$stream_output_adapter@D@__crt_stdio_output@@@2@@__crt_stdio_output@@AAE_NXZ 10007284 f i libucrt:output.obj
 0001:00006284       ?state_case_precision@?$output_processor@DV?$string_output_adapter@D@__crt_stdio_output@@V?$format_validation_base@DV?$string_output_adapter@D@__crt_stdio_output@@@2@@__crt_stdio_output@@AAE_NXZ 10007284 f i libucrt:output.obj
 0001:000062aa       ?state_case_size@?$output_processor@DV?$stream_output_adapter@D@__crt_stdio_output@@V?$standard_base@DV?$stream_output_adapter@D@__crt_stdio_output@@@2@@__crt_stdio_output@@AAE_NXZ 100072aa f i libucrt:output.obj
 0001:000063f8       ?state_case_size@?$output_processor@DV?$string_output_adapter@D@__crt_stdio_output@@V?$format_validation_base@DV?$string_output_adapter@D@__crt_stdio_output@@@2@@__crt_stdio_output@@AAE_NXZ 100073f8 f i libucrt:output.obj
 0001:000063f8       ?state_case_size@?$output_processor@DV?$string_output_adapter@D@__crt_stdio_output@@V?$standard_base@DV?$string_output_adapter@D@__crt_stdio_output@@@2@@__crt_stdio_output@@AAE_NXZ 100073f8 f i libucrt:output.obj
 0001:00006546       ?state_case_type@?$output_processor@DV?$stream_output_adapter@D@__crt_stdio_output@@V?$standard_base@DV?$stream_output_adapter@D@__crt_stdio_output@@@2@@__crt_stdio_output@@AAE_NXZ 10007546 f i libucrt:output.obj
 0001:0000677a       ?state_case_type@?$output_processor@DV?$string_output_adapter@D@__crt_stdio_output@@V?$standard_base@DV?$string_output_adapter@D@__crt_stdio_output@@@2@@__crt_stdio_output@@AAE_NXZ 1000777a f i libucrt:output.obj
 0001:0000677a       ?state_case_type@?$output_processor@DV?$string_output_adapter@D@__crt_stdio_output@@V?$format_validation_base@DV?$string_output_adapter@D@__crt_stdio_output@@@2@@__crt_stdio_output@@AAE_NXZ 1000777a f i libucrt:output.obj
 0001:000069ae       ?state_case_width@?$output_processor@DV?$stream_output_adapter@D@__crt_stdio_output@@V?$standard_base@DV?$stream_output_adapter@D@__crt_stdio_output@@@2@@__crt_stdio_output@@AAE_NXZ 100079ae f i libucrt:output.obj
 0001:000069ae       ?state_case_width@?$output_processor@DV?$string_output_adapter@D@__crt_stdio_output@@V?$standard_base@DV?$string_output_adapter@D@__crt_stdio_output@@@2@@__crt_stdio_output@@AAE_NXZ 100079ae f i libucrt:output.obj
 0001:000069ae       ?state_case_width@?$output_processor@DV?$string_output_adapter@D@__crt_stdio_output@@V?$format_validation_base@DV?$string_output_adapter@D@__crt_stdio_output@@@2@@__crt_stdio_output@@AAE_NXZ 100079ae f i libucrt:output.obj
 0001:000069d9       ?to_integer_size@__crt_stdio_output@@YAIW4length_modifier@1@@Z 100079d9 f i libucrt:output.obj
 0001:00006a2d       ?type_case_Z@?$output_processor@DV?$string_output_adapter@D@__crt_stdio_output@@V?$format_validation_base@DV?$string_output_adapter@D@__crt_stdio_output@@@2@@__crt_stdio_output@@AAE_NXZ 10007a2d f i libucrt:output.obj
 0001:00006a2d       ?type_case_Z@?$output_processor@DV?$stream_output_adapter@D@__crt_stdio_output@@V?$standard_base@DV?$stream_output_adapter@D@__crt_stdio_output@@@2@@__crt_stdio_output@@AAE_NXZ 10007a2d f i libucrt:output.obj
 0001:00006a2d       ?type_case_Z@?$output_processor@DV?$string_output_adapter@D@__crt_stdio_output@@V?$standard_base@DV?$string_output_adapter@D@__crt_stdio_output@@@2@@__crt_stdio_output@@AAE_NXZ 10007a2d f i libucrt:output.obj
 0001:00006a89       ?type_case_a@?$output_processor@DV?$string_output_adapter@D@__crt_stdio_output@@V?$standard_base@DV?$string_output_adapter@D@__crt_stdio_output@@@2@@__crt_stdio_output@@AAE_NXZ 10007a89 f i libucrt:output.obj
 0001:00006a89       ?type_case_a@?$output_processor@DV?$string_output_adapter@D@__crt_stdio_output@@V?$format_validation_base@DV?$string_output_adapter@D@__crt_stdio_output@@@2@@__crt_stdio_output@@AAE_NXZ 10007a89 f i libucrt:output.obj
 0001:00006a89       ?type_case_a@?$output_processor@DV?$stream_output_adapter@D@__crt_stdio_output@@V?$standard_base@DV?$stream_output_adapter@D@__crt_stdio_output@@@2@@__crt_stdio_output@@AAE_NXZ 10007a89 f i libucrt:output.obj
 0001:00006be2       ?type_case_c_tchar@?$output_processor@DV?$string_output_adapter@D@__crt_stdio_output@@V?$format_validation_base@DV?$string_output_adapter@D@__crt_stdio_output@@@2@@__crt_stdio_output@@AAE_ND@Z 10007be2 f i libucrt:output.obj
 0001:00006be2       ?type_case_c_tchar@?$output_processor@DV?$stream_output_adapter@D@__crt_stdio_output@@V?$standard_base@DV?$stream_output_adapter@D@__crt_stdio_output@@@2@@__crt_stdio_output@@AAE_ND@Z 10007be2 f i libucrt:output.obj
 0001:00006be2       ?type_case_c_tchar@?$output_processor@DV?$string_output_adapter@D@__crt_stdio_output@@V?$standard_base@DV?$string_output_adapter@D@__crt_stdio_output@@@2@@__crt_stdio_output@@AAE_ND@Z 10007be2 f i libucrt:output.obj
 0001:00006c72       ?type_case_integer@?$output_processor@DV?$string_output_adapter@D@__crt_stdio_output@@V?$standard_base@DV?$string_output_adapter@D@__crt_stdio_output@@@2@@__crt_stdio_output@@AAE_NI_N@Z 10007c72 f i libucrt:output.obj
 0001:00006c72       ?type_case_integer@?$output_processor@DV?$stream_output_adapter@D@__crt_stdio_output@@V?$standard_base@DV?$stream_output_adapter@D@__crt_stdio_output@@@2@@__crt_stdio_output@@AAE_NI_N@Z 10007c72 f i libucrt:output.obj
 0001:00006c72       ?type_case_integer@?$output_processor@DV?$string_output_adapter@D@__crt_stdio_output@@V?$format_validation_base@DV?$string_output_adapter@D@__crt_stdio_output@@@2@@__crt_stdio_output@@AAE_NI_N@Z 10007c72 f i libucrt:output.obj
 0001:00006dc5       ?type_case_n@?$output_processor@DV?$string_output_adapter@D@__crt_stdio_output@@V?$standard_base@DV?$string_output_adapter@D@__crt_stdio_output@@@2@@__crt_stdio_output@@AAE_NXZ 10007dc5 f i libucrt:output.obj
 0001:00006dc5       ?type_case_n@?$output_processor@DV?$string_output_adapter@D@__crt_stdio_output@@V?$format_validation_base@DV?$string_output_adapter@D@__crt_stdio_output@@@2@@__crt_stdio_output@@AAE_NXZ 10007dc5 f i libucrt:output.obj
 0001:00006dc5       ?type_case_n@?$output_processor@DV?$stream_output_adapter@D@__crt_stdio_output@@V?$standard_base@DV?$stream_output_adapter@D@__crt_stdio_output@@@2@@__crt_stdio_output@@AAE_NXZ 10007dc5 f i libucrt:output.obj
 0001:00006e39       ?type_case_o@?$output_processor@DV?$stream_output_adapter@D@__crt_stdio_output@@V?$standard_base@DV?$stream_output_adapter@D@__crt_stdio_output@@@2@@__crt_stdio_output@@AAE_NXZ 10007e39 f i libucrt:output.obj
 0001:00006e39       ?type_case_o@?$output_processor@DV?$string_output_adapter@D@__crt_stdio_output@@V?$standard_base@DV?$string_output_adapter@D@__crt_stdio_output@@@2@@__crt_stdio_output@@AAE_NXZ 10007e39 f i libucrt:output.obj
 0001:00006e39       ?type_case_o@?$output_processor@DV?$string_output_adapter@D@__crt_stdio_output@@V?$format_validation_base@DV?$string_output_adapter@D@__crt_stdio_output@@@2@@__crt_stdio_output@@AAE_NXZ 10007e39 f i libucrt:output.obj
 0001:00006e58       ?type_case_p@?$output_processor@DV?$string_output_adapter@D@__crt_stdio_output@@V?$format_validation_base@DV?$string_output_adapter@D@__crt_stdio_output@@@2@@__crt_stdio_output@@AAE_NXZ 10007e58 f i libucrt:output.obj
 0001:00006e58       ?type_case_p@?$output_processor@DV?$string_output_adapter@D@__crt_stdio_output@@V?$standard_base@DV?$string_output_adapter@D@__crt_stdio_output@@@2@@__crt_stdio_output@@AAE_NXZ 10007e58 f i libucrt:output.obj
 0001:00006e58       ?type_case_p@?$output_processor@DV?$stream_output_adapter@D@__crt_stdio_output@@V?$standard_base@DV?$stream_output_adapter@D@__crt_stdio_output@@@2@@__crt_stdio_output@@AAE_NXZ 10007e58 f i libucrt:output.obj
 0001:00006e70       ?type_case_s@?$output_processor@DV?$string_output_adapter@D@__crt_stdio_output@@V?$format_validation_base@DV?$string_output_adapter@D@__crt_stdio_output@@@2@@__crt_stdio_output@@AAE_NXZ 10007e70 f i libucrt:output.obj
 0001:00006e70       ?type_case_s@?$output_processor@DV?$string_output_adapter@D@__crt_stdio_output@@V?$standard_base@DV?$string_output_adapter@D@__crt_stdio_output@@@2@@__crt_stdio_output@@AAE_NXZ 10007e70 f i libucrt:output.obj
 0001:00006e70       ?type_case_s@?$output_processor@DV?$stream_output_adapter@D@__crt_stdio_output@@V?$standard_base@DV?$stream_output_adapter@D@__crt_stdio_output@@@2@@__crt_stdio_output@@AAE_NXZ 10007e70 f i libucrt:output.obj
 0001:00006ee1       ?validate@?$stream_output_adapter@D@__crt_stdio_output@@QBE_NXZ 10007ee1 f i libucrt:output.obj
 0001:00006f02       ?validate@?$string_output_adapter@D@__crt_stdio_output@@QBE_NXZ 10007f02 f i libucrt:output.obj
 0001:00006f02       ?validate@?$c_string_character_source@D@__crt_strtox@@QBE_NXZ 10007f02 f i libucrt:atox.obj
 0001:00006f1d       ?validate_and_update_state_at_end_of_format_string@?$format_validation_base@DV?$string_output_adapter@D@__crt_stdio_output@@@__crt_stdio_output@@IBE_NXZ 10007f1d f i libucrt:output.obj
 0001:00006f3f       ?validate_stream_is_ansi_if_required@?$__acrt_stdio_char_traits@D@@SA_NQAU_iobuf@@@Z 10007f3f f i libucrt:output.obj
 0001:00006fc6       ?write_character@?$string_output_adapter@D@__crt_stdio_output@@QBE_NDQAH@Z 10007fc6 f i libucrt:output.obj
 0001:00007008       ?write_character_without_count_update@?$stream_output_adapter@D@__crt_stdio_output@@QBE_ND@Z 10008008 f i libucrt:output.obj
 0001:0000703e       ?write_stored_string_tchar@?$output_processor@DV?$stream_output_adapter@D@__crt_stdio_output@@V?$standard_base@DV?$stream_output_adapter@D@__crt_stdio_output@@@2@@__crt_stdio_output@@AAE_ND@Z 1000803e f i libucrt:output.obj
 0001:000070e7       ?write_stored_string_tchar@?$output_processor@DV?$string_output_adapter@D@__crt_stdio_output@@V?$format_validation_base@DV?$string_output_adapter@D@__crt_stdio_output@@@2@@__crt_stdio_output@@AAE_ND@Z 100080e7 f i libucrt:output.obj
 0001:000070e7       ?write_stored_string_tchar@?$output_processor@DV?$string_output_adapter@D@__crt_stdio_output@@V?$standard_base@DV?$string_output_adapter@D@__crt_stdio_output@@@2@@__crt_stdio_output@@AAE_ND@Z 100080e7 f i libucrt:output.obj
 0001:00007190       ?write_string@?$stream_output_adapter@D@__crt_stdio_output@@QBEXQBDHQAHAAV__crt_deferred_errno_cache@@@Z 10008190 f i libucrt:output.obj
 0001:000071bc       ?write_string@?$string_output_adapter@D@__crt_stdio_output@@QBEXQBDHQAHAAV__crt_deferred_errno_cache@@@Z 100081bc f i libucrt:output.obj
 0001:00007223       ?write_string_impl@?$output_adapter_common@DV?$stream_output_adapter@D@__crt_stdio_output@@@__crt_stdio_output@@IBEXQBDHQAHAAV__crt_deferred_errno_cache@@@Z 10008223 f i libucrt:output.obj
 0001:000072c3       ___acrt_locale_get_ctype_array_value 100082c3 f i libucrt:output.obj
 0001:000072e5       ___stdio_common_vfprintf   100082e5 f   libucrt:output.obj
 0001:0000736a       ___stdio_common_vsnprintf_s 1000836a f   libucrt:output.obj
 0001:00007391       ___stdio_common_vsprintf   10008391 f   libucrt:output.obj
 0001:000073c0       _strncpy                   100083c0 f   libucrt:strncpy.obj
 0001:00007566       __close                    10008566 f   libucrt:close.obj
 0001:000075f5       __close_nolock             100085f5 f   libucrt:close.obj
 0001:00007e16       __write                    10008e16 f   libucrt:write.obj
 0001:00007efe       __write_nolock             10008efe f   libucrt:write.obj
 0001:00008167       __time64                   10009167 f   libucrt:time.obj
 0001:000081a9       __strdup                   100091a9 f   libucrt:strdup.obj
 0001:000081fd       _strcpy_s                  100091fd f   libucrt:strcpy_s.obj
 0001:00008257       _free                      10009257 f   libucrt:free.obj
 0001:00008274       _strcat_s                  10009274 f   libucrt:strcat_s.obj
 0001:000082dd       _malloc                    100092dd f   libucrt:malloc.obj
 0001:000082e8       ___ascii_stricmp           100092e8 f   libucrt:stricmp.obj
 0001:00008323       __stricmp                  10009323 f   libucrt:stricmp.obj
 0001:0000836c       __stricmp_l                1000936c f   libucrt:stricmp.obj
 0001:00008406       ___acrt_initialize_new_handler 10009406 f   libucrt:new_handler.obj
 0001:00008415       __callnewh                 10009415 f   libucrt:new_handler.obj
 0001:00008442       __query_new_handler        10009442 f   libucrt:new_handler.obj
 0001:00008494       __initterm                 10009494 f   libucrt:initterm.obj
 0001:000084db       __initterm_e               100094db f   libucrt:initterm.obj
 0001:00008509       __seh_filter_dll           10009509 f   libucrt:exception_filter.obj
 0001:00008529       __seh_filter_exe           10009529 f   libucrt:exception_filter.obj
 0001:000088e9       ___acrt_initialize_thread_local_exit_callback 100098e9 f   libucrt:exit.obj
 0001:000088f8       __cexit                    100098f8 f   libucrt:exit.obj
 0001:00008907       __exit                     10009907 f   libucrt:exit.obj
 0001:0000891d       __is_c_termination_complete 1000991d f   libucrt:exit.obj
 0001:00008bd5       ___acrt_allocate_buffer_for_argv 10009bd5 f   libucrt:argv_parsing.obj
 0001:00008c24       __configure_narrow_argv    10009c24 f   libucrt:argv_parsing.obj
 0001:00008d83       ??$uninitialize@A6AXAAPAPA_W@Z@?$dual_state_global@PAPA_W@__crt_state_management@@QAEXA6AXAAPAPA_W@Z@Z 10009d83 f i libucrt:environment_initialization.obj
 0001:00008d83       ??$uninitialize@A6AXAAPAPAD@Z@?$dual_state_global@PAPAD@__crt_state_management@@QAEXA6AXAAPAPAD@Z@Z 10009d83 f i libucrt:environment_initialization.obj
 0001:00008de2       ___dcrt_uninitialize_environments_nolock 10009de2 f   libucrt:environment_initialization.obj
 0001:00008e19       __initialize_narrow_environment 10009e19 f   libucrt:environment_initialization.obj
 0001:00008f4b       __execute_onexit_table     10009f4b f   libucrt:onexit.obj
 0001:00008f7a       __initialize_onexit_table  10009f7a f   libucrt:onexit.obj
 0001:00008fca       ___acrt_uninitialize_command_line 10009fca f   libucrt:argv_data.obj
 0001:000090a3       ___acrt_initialize         1000a0a3 f   libucrt:initialization.obj
 0001:000090b5       ___acrt_thread_attach      1000a0b5 f   libucrt:initialization.obj
 0001:000090c0       ___acrt_thread_detach      1000a0c0 f   libucrt:initialization.obj
 0001:000090c8       ___acrt_uninitialize       1000a0c8 f   libucrt:initialization.obj
 0001:000090f8       ___acrt_uninitialize_critical 1000a0f8 f   libucrt:initialization.obj
 0001:0000910a       _terminate                 1000a10a f   libucrt:terminate.obj
 0001:00009146       ??$is_overflow_condition@K@__crt_strtox@@YA_NIK@Z 1000a146 f i libucrt:atox.obj
 0001:00009177       ??$parse_integer@KV?$c_string_character_source@D@__crt_strtox@@@__crt_strtox@@YAKQAU__crt_locale_pointers@@V?$c_string_character_source@D@0@H_N@Z 1000a177 f i libucrt:atox.obj
 0001:0000939e       ?unget@?$c_string_character_source@D@__crt_strtox@@QAEXD@Z 1000a39e f i libucrt:atox.obj
 0001:000093c7       __chvalidchk_l             1000a3c7 f i libucrt:atox.obj
 0001:000093ef       __ischartype_l             1000a3ef f i libucrt:atox.obj
 0001:00009430       _strncmp                   1000a430 f   libucrt:strncmp.obj
 0001:000094a8       _abort                     1000a4a8 f   libucrt:abort.obj
 0001:000094ec       _calloc                    1000a4ec f   libucrt:calloc.obj
 0001:000094f7       _wcsncmp                   1000a4f7 f   libucrt:wcsncmp.obj
 0001:00009531       ___acrt_call_reportfault   1000a531 f   libucrt:invalid_parameter.obj
 0001:0000966c       ___acrt_initialize_invalid_parameter_handler 1000a66c f   libucrt:invalid_parameter.obj
 0001:0000967b       __invalid_parameter        1000a67b f   libucrt:invalid_parameter.obj
 0001:000096df       __invalid_parameter_noinfo 1000a6df f   libucrt:invalid_parameter.obj
 0001:000096ef       __invoke_watson            1000a6ef f   libucrt:invalid_parameter.obj
 0001:00009723       ___acrt_errno_from_os_error 1000a723 f   libucrt:errno.obj
 0001:00009766       ___acrt_errno_map_os_error 1000a766 f   libucrt:errno.obj
 0001:00009789       ___doserrno                1000a789 f   libucrt:errno.obj
 0001:0000979c       __errno                    1000a79c f   libucrt:errno.obj
 0001:000097af       __calloc_base              1000a7af f   libucrt:calloc_base.obj
 0001:0000980c       __free_base                1000a80c f   libucrt:free_base.obj
 0001:000099e0       ___acrt_AppPolicyGetProcessTerminationMethodInternal@4 1000a9e0 f   libucrt:winapi_thunks.obj
 0001:00009a20       ___acrt_AreFileApisANSI@0  1000aa20 f   libucrt:winapi_thunks.obj
 0001:00009a3f       ___acrt_FlsAlloc@4         1000aa3f f   libucrt:winapi_thunks.obj
 0001:00009a7e       ___acrt_FlsFree@4          1000aa7e f   libucrt:winapi_thunks.obj
 0001:00009abd       ___acrt_FlsGetValue@4      1000aabd f   libucrt:winapi_thunks.obj
 0001:00009afc       ___acrt_FlsSetValue@8      1000aafc f   libucrt:winapi_thunks.obj
 0001:00009b3e       ___acrt_GetSystemTimePreciseAsFileTime@4 1000ab3e f   libucrt:winapi_thunks.obj
 0001:00009b7d       ___acrt_InitializeCriticalSectionEx@12 1000ab7d f   libucrt:winapi_thunks.obj
 0001:00009bc8       ___acrt_LCMapStringEx@36   1000abc8 f   libucrt:winapi_thunks.obj
 0001:00009c25       ___acrt_LocaleNameToLCID@8 1000ac25 f   libucrt:winapi_thunks.obj
 0001:00009c56       ___acrt_initialize_winapi_thunks 1000ac56 f   libucrt:winapi_thunks.obj
 0001:00009c81       ___acrt_uninitialize_winapi_thunks 1000ac81 f   libucrt:winapi_thunks.obj
 0001:00009cb7       __fcloseall                1000acb7 f   libucrt:closeall.obj
 0001:00009f23       ___acrt_stdio_flush_nolock 1000af23 f   libucrt:fflush.obj
 0001:00009f88       __fflush_nolock            1000af88 f   libucrt:fflush.obj
 0001:00009fd0       __flushall                 1000afd0 f   libucrt:fflush.obj
 0001:00009fd9       ___acrt_stdio_free_buffer_nolock 1000afd9 f   libucrt:_freebuf.obj
 0001:0000a185       ___acrt_initialize_lowio   1000b185 f   libucrt:ioinit.obj
 0001:0000a1db       ___acrt_uninitialize_lowio 1000b1db f   libucrt:ioinit.obj
 0001:0000a207       __malloc_base              1000b207 f   libucrt:malloc_base.obj
 0001:0000a255       __get_fmode                1000b255 f   libucrt:setmode.obj
 0001:0000a282       __setmode_nolock           1000b282 f   libucrt:setmode.obj
 0001:0000a353       ___acrt_MultiByteToWideChar 1000b353 f   libucrt:multibytetowidechar.obj
 0001:0000a6e9       ___acrt_freeptd            1000b6e9 f   libucrt:per_thread_data.obj
 0001:0000a715       ___acrt_getptd             1000b715 f   libucrt:per_thread_data.obj
 0001:0000a7d2       ___acrt_getptd_head        1000b7d2 f   libucrt:per_thread_data.obj
 0001:0000a86c       ___acrt_getptd_noexit      1000b86c f   libucrt:per_thread_data.obj
 0001:0000a921       ___acrt_initialize_ptd     1000b921 f   libucrt:per_thread_data.obj
 0001:0000a94d       ___acrt_uninitialize_ptd   1000b94d f   libucrt:per_thread_data.obj
 0001:0000a967       ___acrt_update_locale_info 1000b967 f   libucrt:locale_update.obj
 0001:0000a994       ___acrt_update_multibyte_info 1000b994 f   libucrt:locale_update.obj
 0001:0000a9c1       ___acrt_lowio_create_handle_array 1000b9c1 f   libucrt:osfinfo.obj
 0001:0000aa3e       ___acrt_lowio_destroy_handle_array 1000ba3e f   libucrt:osfinfo.obj
 0001:0000aa73       ___acrt_lowio_ensure_fh_exists 1000ba73 f   libucrt:osfinfo.obj
 0001:0000ab07       ___acrt_lowio_lock_fh      1000bb07 f   libucrt:osfinfo.obj
 0001:0000ab2a       ___acrt_lowio_set_os_handle 1000bb2a f   libucrt:osfinfo.obj
 0001:0000abbe       ___acrt_lowio_unlock_fh    1000bbbe f   libucrt:osfinfo.obj
 0001:0000abe1       __alloc_osfhnd             1000bbe1 f   libucrt:osfinfo.obj
 0001:0000acea       __free_osfhnd              1000bcea f   libucrt:osfinfo.obj
 0001:0000ad7b       __get_osfhandle            1000bd7b f   libucrt:osfinfo.obj
 0001:0000ade5       ??0__crt_seek_guard@@QAE@H_J@Z 1000bde5 f i libucrt:chsize.obj
 0001:0000ae32       __chsize_nolock            1000be32 f   libucrt:chsize.obj
 0001:0000b49c       __read_nolock              1000c49c f   libucrt:read.obj
 0001:0000b9ce       __lseeki64                 1000c9ce f   libucrt:lseek.obj
 0001:0000b9e9       __lseeki64_nolock          1000c9e9 f   libucrt:lseek.obj
 0001:0000ba68       ___acrt_set_locale_changed 1000ca68 f   libucrt:wsetlocale.obj
 0001:0000ba73       ___acrt_uninitialize_locale 1000ca73 f   libucrt:wsetlocale.obj
 0001:0000ba9c       __isdigit_l                1000ca9c f i libucrt:_ctype.obj
 0001:0000bad4       _isdigit                   1000cad4 f i libucrt:_ctype.obj
 0001:0000bc68       __tolower_l                1000cc68 f   libucrt:tolower_toupper.obj
 0001:0000bc82       _tolower                   1000cc82 f   libucrt:tolower_toupper.obj
 0001:0000bcb2       ??$make_c_string_character_source@DPAPAD@__crt_strtox@@YA?AV?$c_string_character_source@D@0@QBDQAPAD@Z 1000ccb2 f i libucrt:strtox.obj
 0001:0000bccd       _strtol                    1000cccd f   libucrt:strtox.obj
 0001:0000bcf9       __mbtowc_l                 1000ccf9 f   libucrt:mbtowc.obj
 0001:0000be3d       _mbtowc                    1000ce3d f   libucrt:mbtowc.obj
 0001:0000be57       __wctomb_s_l               1000ce57 f   libucrt:wctomb.obj
 0001:0000bfb4       _wctomb_s                  1000cfb4 f   libucrt:wctomb.obj
 0001:0000bfd1       _strnlen                   1000cfd1 f   libucrt:strnlen.obj
 0001:0000c0f3       _wcsnlen                   1000d0f3 f   libucrt:strnlen.obj
 0001:0000c2a3       ?__acrt_fp_classify@@YA?AW4__acrt_fp_class@@ABN@Z 1000d2a3 f i libucrt:cvt.obj
 0001:0000cb5a       ___acrt_fp_format          1000db5a f   libucrt:cvt.obj
 0001:0000cc97       __fileno                   1000dc97 f   libucrt:fileno.obj
 0001:0000ccbe       __fputc_nolock             1000dcbe f   libucrt:fputc.obj
 0001:0000cce7       __get_printf_count_output  1000dce7 f   libucrt:printf_count_output.obj
 0001:0000ccfc       ___acrt_stdio_begin_temporary_buffering_nolock 1000dcfc f   libucrt:_sftbuf.obj
 0001:0000cdaf       ___acrt_stdio_end_temporary_buffering_nolock 1000ddaf f   libucrt:_sftbuf.obj
 0001:0000cde9       __isatty                   1000dde9 f   libucrt:isatty.obj
 0001:0000ce3f       ___pctype_func             1000de3f f   libucrt:ctype.obj
 0001:0000ce65       ___acrt_WideCharToMultiByte 1000de65 f   libucrt:widechartomultibyte.obj
 0001:0000cf3e       ?__mbrtowc_utf8@__crt_mbstring@@YAIPA_WPBDIPAU_Mbstatet@@@Z 1000df3e f   libucrt:mbrtowc.obj
 0001:0000cf80       ?__mbsrtowcs_utf8@__crt_mbstring@@YAIPA_WPAPBDIPAU_Mbstatet@@@Z 1000df80 f   libucrt:mbrtowc.obj
 0001:0000d07d       __putwch_nolock            1000e07d f   libucrt:putwch.obj
 0001:0000d0b1       ___acrt_initialize_locks   1000e0b1 f   libucrt:locks.obj
 0001:0000d0f2       ___acrt_lock               1000e0f2 f   libucrt:locks.obj
 0001:0000d109       ___acrt_uninitialize_locks 1000e109 f   libucrt:locks.obj
 0001:0000d13a       ___acrt_unlock             1000e13a f   libucrt:locks.obj
 0001:0000d151       ___acrt_get_process_end_policy 1000e151 f   libucrt:win_policies.obj
 0001:0000d768       ?allocate@?$__crt_win32_buffer@DU__crt_win32_buffer_internal_dynamic_resizing@@@@QAEHI@Z 1000e768 f i libucrt:argv_wildcards.obj
 0001:0000d82b       ___acrt_expand_narrow_argv_wildcards 1000e82b f   libucrt:argv_wildcards.obj
 0001:0000d8fd       ?allocate@?$__crt_win32_buffer@DU__crt_win32_buffer_no_resizing@@@@QAEHI@Z 1000e8fd f i libucrt:getmodulefilenamea.obj
 0001:0000d924       ?set_to_nullptr@?$__crt_win32_buffer@DU__crt_win32_buffer_no_resizing@@@@QAEXXZ 1000e924 f i libucrt:getmodulefilenamea.obj
 0001:0000d938       ___acrt_GetModuleFileNameA 1000e938 f   libucrt:getmodulefilenamea.obj
 0001:0000deeb       ___acrt_initialize_multibyte 1000eeeb f   libucrt:mbctype.obj
 0001:0000df33       ___acrt_update_thread_multibyte_data 1000ef33 f   libucrt:mbctype.obj
 0001:0000df46       __setmbcp_nolock           1000ef46 f   libucrt:mbctype.obj
 0001:0000e215       __ismbblead                1000f215 f   libucrt:ismbbyte.obj
 0001:0000e22d       ___acrt_initialize_command_line 1000f22d f   libucrt:argv_data.obj
 0001:0000e27d       ___dcrt_get_narrow_environment_from_os 1000f27d f   libucrt:get_environment_from_os.obj
 0001:0000e303       __recalloc_base            1000f303 f   libucrt:recalloc.obj
 0001:0000e370       ___acrt_initialize_heap    1000f370 f   libucrt:heap_handle.obj
 0001:0000e381       ___acrt_uninitialize_heap  1000f381 f   libucrt:heap_handle.obj
 0001:0000e38b       ___acrt_execute_initializers 1000f38b f   libucrt:shared_initialization.obj
 0001:0000e3f3       ___acrt_execute_uninitializers 1000f3f3 f   libucrt:shared_initialization.obj
 0001:0000e4e8       ___acrt_get_sigabrt_handler 1000f4e8 f   libucrt:signal.obj
 0001:0000e511       ___acrt_initialize_signal_handlers 1000f511 f   libucrt:signal.obj
 0001:0000e52f       ___fpecode                 1000f52f f   libucrt:signal.obj
 0001:0000e538       _raise                     1000f538 f   libucrt:signal.obj
 0001:0000e71f       ___acrt_has_user_matherr   1000f71f f   libucrt:matherr.obj
 0001:0000e737       ___acrt_initialize_user_matherr 1000f737 f   libucrt:matherr.obj
 0001:0000e746       ___acrt_invoke_user_matherr 1000f746 f   libucrt:matherr.obj
 0001:0000e778       __isctype_l                1000f778 f   libucrt:isctype.obj
 0001:0000e84d       __query_new_mode           1000f84d f   libucrt:new_mode.obj
 0001:0000e908       ___acrt_DownlevelLocaleNameToLCID 1000f908 f   libucrt:lcidtoname_downlevel.obj
 0001:0000e934       __fclose_nolock            1000f934 f   libucrt:fclose.obj
 0001:0000e9ab       _fclose                    1000f9ab f   libucrt:fclose.obj
 0001:0000eabd       __commit                   1000fabd f   libucrt:commit.obj
 0001:0000eb3c       ___acrt_add_locale_ref     1000fb3c f   libucrt:locale_refcounting.obj
 0001:0000ebb9       ___acrt_free_locale        1000fbb9 f   libucrt:locale_refcounting.obj
 0001:0000ed03       ___acrt_locale_add_lc_time_reference 1000fd03 f   libucrt:locale_refcounting.obj
 0001:0000ed2c       ___acrt_locale_free_lc_time_if_unreferenced 1000fd2c f   libucrt:locale_refcounting.obj
 0001:0000ed5d       ___acrt_locale_release_lc_time_reference 1000fd5d f   libucrt:locale_refcounting.obj
 0001:0000ed86       ___acrt_release_locale_ref 1000fd86 f   libucrt:locale_refcounting.obj
 0001:0000ee07       ___acrt_update_thread_locale_data 1000fe07 f   libucrt:locale_refcounting.obj
 0001:0000ee7e       __updatetlocinfoEx_nolock  1000fe7e f   libucrt:locale_refcounting.obj
 0001:0000eece       __query_app_type           1000fece f   libucrt:report_runtime_error.obj
 0001:0000eed4       ___acrt_locale_free_monetary 1000fed4 f   libucrt:initmon.obj
 0001:0000efd2       ___acrt_locale_free_numeric 1000ffd2 f   libucrt:initnum.obj
 0001:0000f073       ___acrt_locale_free_time   10010073 f   libucrt:inittime.obj
 0001:0000f157       ___acrt_GetStringTypeA     10010157 f   libucrt:getstringtypea.obj
 0001:0000f25c       __freea_crt                1001025c f i libucrt:getstringtypea.obj
 0001:0000f27c       __isleadbyte_l             1001027c f i libucrt:_wctype.obj
 0001:0000f4a4       ___acrt_LCMapStringA       100104a4 f   libucrt:lcmapstringa.obj
 0001:0000f4ef       ?__c32rtomb_utf8@__crt_mbstring@@YAIPAD_UPAU_Mbstatet@@@Z 100104ef f   libucrt:c32rtomb.obj
 0001:0000f59e       ?return_illegal_sequence@__crt_mbstring@@YAIPAU_Mbstatet@@@Z 1001059e f i libucrt:c32rtomb.obj
 0001:0000f5bd       ___acrt_fp_strflt_to_string 100105bd f   libucrt:_fptostr.obj
 0001:0000f680       ?divide@__crt_strtox@@YA_KAAUbig_integer@1@ABU21@@Z 10010680 f i libucrt:cfout.obj
 0001:0000fb18       ___acrt_fltout             10010b18 f   libucrt:cfout.obj
 0001:000110dc       ___acrt_stdio_flush_and_write_narrow_nolock 100120dc f   libucrt:_flsbuf.obj
 0001:000110e7       ?__mbrtoc32_utf8@__crt_mbstring@@YAIPA_UPBDIPAU_Mbstatet@@@Z 100120e7 f   libucrt:mbrtoc32.obj
 0001:000112ba       ___dcrt_lowio_ensure_console_output_initialized 100122ba f   libucrt:initcon.obj
 0001:000112d9       ___dcrt_terminate_console_output 100122d9 f   libucrt:initcon.obj
 0001:000112f0       ___dcrt_write_console      100122f0 f   libucrt:initcon.obj
 0001:00011390       _qsort                     10012390 f   libucrt:qsort.obj
 0001:00011887       _strncpy_s                 10012887 f   libucrt:strncpy_s.obj
 0001:000118a0       _strpbrk                   100128a0 f   libucrt:strpbrk.obj
 0001:000118e0       __mbsdec                   100128e0 f   libucrt:mbsdec.obj
 0001:000118f7       __mbsdec_l                 100128f7 f   libucrt:mbsdec.obj
 0001:00011995       __msize_base               10012995 f   libucrt:msize.obj
 0001:000119c8       __realloc_base             100129c8 f   libucrt:realloc_base.obj
 0001:00011a31       ?__acrt_stdio_free_stream@@YAXV__crt_stdio_stream@@@Z 10012a31 f   libucrt:stream.obj
 0001:00011a6c       ___strncnt                 10012a6c f   libucrt:strncnt.obj
 0001:00011a88       _fegetenv                  10012a88 f   libucrt:fegetenv.obj
 0001:00011aa5       _fesetenv                  10012aa5 f   libucrt:fesetenv.obj
 0001:00011af2       _feholdexcept              10012af2 f   libucrt:feholdexcept.obj
 0001:00011b50       __CIlog10                  10012b50 f   libucrt:log10_impl.obj
 0001:00011b8b       __CIlog10_default          10012b8b f   libucrt:log10_impl.obj
 0001:00011b9f       __log10_default            10012b9f     libucrt:log10_impl.obj
 0001:00011c60       _ceil                      10012c60 f   libucrt:ceil_pentium4.obj
 0001:00011ca0       __ceil_pentium4            10012ca0 f   libucrt:ceil_pentium4.obj
 0001:00011d7d       ___acrt_stdio_allocate_buffer_nolock 10012d7d f   libucrt:_getbuf.obj
 0001:000120e7       ___acrt_fenv_get_control   100130e7 f   libucrt:_fenvutils.obj
 0001:00012169       ___acrt_fenv_get_status    10013169 f   libucrt:_fenvutils.obj
 0001:00012223       ___acrt_fenv_set_control   10013223 f   libucrt:_fenvutils.obj
 0001:0001228d       ___acrt_fenv_set_status    1001328d f   libucrt:_fenvutils.obj
 0001:00012386       __clearfp                  10013386 f   libucrt:ieee87.obj
 0001:00012466       ___acrt_initialize_sse2    10013466 f   libucrt:mathfcns.obj
 0001:00012480       __CIlog10_pentium4         10013480 f   libucrt:log10_pentium4.obj
 0001:00012498       __log10_pentium4           10013498     libucrt:log10_pentium4.obj
 0001:00012730       __fFEXP                    10013730 f   libucrt:87tran.obj
 0001:00012787       __rtinfpopse               10013787     libucrt:87tran.obj
 0001:00012789       __rtinfnpopse              10013789     libucrt:87tran.obj
 0001:00012799       __fFLN                     10013799     libucrt:87tran.obj
 0001:0001284e       __rtinfpop                 1001384e     libucrt:87tran.obj
 0001:00012850       __rtinfnpop                10013850     libucrt:87tran.obj
 0001:00012860       __rtforexpinf              10013860 f   libucrt:87tran.obj
 0001:0001286d       __ffexpm1                  1001386d     libucrt:87tran.obj
 0001:00012920       __trandisp1                10013920 f   libucrt:87disp.obj
 0001:00012995       __trandisp2                10013995 f   libucrt:87disp.obj
 0001:00012a2f       __rttospopde               10013a2f     libucrt:87disp.obj
 0001:00012a34       __rttospop                 10013a34     libucrt:87disp.obj
 0001:00012a40       __rtnospop                 10013a40 f   libucrt:87disp.obj
 0001:00012a50       __rttosnpop                10013a50 f   libucrt:87disp.obj
 0001:00012a51       __rtnospopde               10013a51     libucrt:87disp.obj
 0001:00012a58       __rtzeropop                10013a58     libucrt:87disp.obj
 0001:00012a5a       __rtzeronpop               10013a5a     libucrt:87disp.obj
 0001:00012a60       __rtzerospop               10013a60 f   libucrt:87disp.obj
 0001:00012a6d       __rtonepop                 10013a6d     libucrt:87disp.obj
 0001:00012a70       __rtonenpop                10013a70 f   libucrt:87disp.obj
 0001:00012a80       __tosnan1                  10013a80 f   libucrt:87disp.obj
 0001:00012ab0       __nosnan2                  10013ab0 f   libucrt:87disp.obj
 0001:00012ac0       __tosnan2                  10013ac0 f   libucrt:87disp.obj
 0001:00012af0       __nan2                     10013af0 f   libucrt:87disp.obj
 0001:00012b30       __rtindfpop                10013b30 f   libucrt:87disp.obj
 0001:00012b32       __rtindfnpop               10013b32     libucrt:87disp.obj
 0001:00012b43       __rttosnpopde              10013b43     libucrt:87disp.obj
 0001:00012b50       __rtatan2inf               10013b50 f   libucrt:87disp.obj
 0001:00012b6d       __rtchsifneg               10013b6d     libucrt:87disp.obj
 0001:00012b80       __twoToTOS                 10013b80 f   libucrt:common.obj
 0001:00012b95       __load_CW                  10013b95 f   libucrt:common.obj
 0001:00012bac       __convertTOStoQNaN         10013bac f   libucrt:common.obj
 0001:00012bc5       __fload_withFB             10013bc5 f   libucrt:common.obj
 0001:00012c08       __checkTOS_withFB          10013c08 f   libucrt:common.obj
 0001:00012c1e       __fast_exit                10013c1e f   libucrt:common.obj
 0001:00012c2b       __math_exit                10013c2b f   libucrt:common.obj
 0001:00012c55       __check_overflow_exit      10013c55 f   libucrt:common.obj
 0001:00012c69       __check_range_exit         10013c69 f   libucrt:common.obj
 0001:00012d10       __startTwoArgErrorHandling 10013d10 f   libucrt:genexcep.obj
 0001:00012d27       __startOneArgErrorHandling 10013d27 f   libucrt:genexcep.obj
 0001:00012d63       ___libm_error_support      10013d63 f   libucrt:libm_error.obj
 0001:00012f59       __ceil_default             10013f59 f   libucrt:ceil.obj
 0001:00013010       ___ascii_strnicmp          10014010 f   libucrt:_strnicm.obj
 0001:00013071       __clrfp                    10014071 f   libucrt:fpctrl.obj
 0001:00013084       __ctrlfp                   10014084 f   libucrt:fpctrl.obj
 0001:000130b0       __set_statfp               100140b0 f   libucrt:fpctrl.obj
 0001:0001310b       __statfp                   1001410b f   libucrt:fpctrl.obj
 0001:0001311d       __d_inttype                1001411d f   libucrt:powhlp.obj
 0001:00013187       __powhlp                   10014187 f   libucrt:powhlp.obj
 0001:000132b2       __87except                 100142b2 f   libucrt:87except.obj
 0001:000133bc       __frnd                     100143bc f   libucrt:frnd.obj
 0001:000133d2       __errcode                  100143d2 f   libucrt:fpexcept.obj
 0001:00013406       __except1                  10014406 f   libucrt:fpexcept.obj
 0001:000134d4       __handle_exc               100144d4 f   libucrt:fpexcept.obj
 0001:000136c1       __raise_exc                100146c1 f   libucrt:fpexcept.obj
 0001:000136e4       __raise_exc_ex             100146e4 f   libucrt:fpexcept.obj
 0001:000139da       __set_errno_from_matherr   100149da f   libucrt:fpexcept.obj
 0001:00013a09       __umatherr                 10014a09 f   libucrt:fpexcept.obj
 0001:00013aab       __decomp                   10014aab f   libucrt:util.obj
 0001:00013b89       __set_exp                  10014b89 f   libucrt:util.obj
 0001:00013bb8       __sptype                   10014bb8 f   libucrt:util.obj
 0001:00013c16       __fpclass                  10014c16 f   libucrt:ieeemisc.obj
 0001:00013cba       _IsProcessorFeaturePresent@4 10014cba f   kernel32:KERNEL32.dll
 0001:00013cc0       ?DloadAcquireSectionWriteAccess@@YGXXZ 10014cc0 f i DelayImp:delayhlp.obj
 0001:00013cf3       ?DloadGetSRWLockFunctionPointers@@YGEXZ 10014cf3 f i DelayImp:delayhlp.obj
 0001:00013d66       ?DloadLock@@YGXXZ          10014d66 f i DelayImp:delayhlp.obj
 0001:00013da5       ?DloadMakePermanentImageCommit@@YGXPAXK@Z 10014da5 f i DelayImp:delayhlp.obj
 0001:00013e14       ?DloadObtainSection@@YGPAXPAK0@Z 10014e14 f i DelayImp:delayhlp.obj
 0001:00013e8f       ?DloadProtectSection@@YGXKPAK@Z 10014e8f f i DelayImp:delayhlp.obj
 0001:00013efd       ?DloadReleaseSectionWriteAccess@@YGXXZ 10014efd f i DelayImp:delayhlp.obj
 0001:00013f33       ?DloadUnlock@@YGXXZ        10014f33 f i DelayImp:delayhlp.obj
 0001:00013f5f       ___delayLoadHelper2@8      10014f5f f   DelayImp:delayhlp.obj
 0001:000141d0       __FindPESection            100151d0 f   LIBCMT:pesect.obj
 0001:00014220       __IsNonwritableInCurrentImage 10015220 f   LIBCMT:pesect.obj
 0001:000142e0       __ValidateImageBase        100152e0 f   LIBCMT:pesect.obj
 0001:00014320       __aulldvrm                 10015320 f   LIBCMT:ulldvrm.obj
 0001:000143c0       __alloca_probe             100153c0 f   LIBCMT:chkstk.obj
 0001:000143c0       __chkstk                   100153c0 f   LIBCMT:chkstk.obj
 0001:000143f0       __alldiv                   100153f0 f   LIBCMT:lldiv.obj
 0001:000144a0       __alldvrm                  100154a0 f   LIBCMT:lldvrm.obj
 0001:00014580       __allrem                   10015580 f   LIBCMT:llrem.obj
 0001:00014640       __allmul                   10015640 f   LIBCMT:llmul.obj
 0001:00014680       __aullshr                  10015680 f   LIBCMT:ullshr.obj
 0001:000146a0       __alloca_probe_16          100156a0 f   LIBCMT:alloca16.obj
 0001:000146b6       __alloca_probe_8           100156b6     LIBCMT:alloca16.obj
 0001:000146d0       __allshl                   100156d0 f   LIBCMT:llshl.obj
 0001:000146f0       __ftol2_sse                100156f0 f   LIBCMT:ftol2.obj
 0001:000146f9       __ftol2_pentium4           100156f9 f   LIBCMT:ftol2.obj
 0001:0001470c       __ftol2_sse_excpt          1001570c f   LIBCMT:ftol2.obj
 0001:00014730       __ftol2                    10015730 f   LIBCMT:ftol2.obj
 0001:000147b0       _strrchr                   100157b0 f   libvcruntime:strrchr.obj
 0001:000148f0       _strchr                    100158f0 f   libvcruntime:strchr.obj
 0001:0001495e       ___from_strstr_to_strchr   1001595e     libvcruntime:strchr.obj
 0002:00000000       __imp__GetUserNameA@8      10016000     advapi32:ADVAPI32.dll
 0002:00000004       \177ADVAPI32_NULL_THUNK_DATA 10016004     advapi32:ADVAPI32.dll
 0002:00000008       __imp__AddVectoredExceptionHandler@8 10016008     kernel32:KERNEL32.dll
 0002:0000000c       __imp__GetCurrentProcessId@0 1001600c     kernel32:KERNEL32.dll
 0002:00000010       __imp__GetModuleFileNameA@12 10016010     kernel32:KERNEL32.dll
 0002:00000014       __imp__SetLastError@4      10016014     kernel32:KERNEL32.dll
 0002:00000018       __imp__GetEnvironmentVariableA@12 10016018     kernel32:KERNEL32.dll
 0002:0000001c       __imp__SuspendThread@4     1001601c     kernel32:KERNEL32.dll
 0002:00000020       __imp__GetCurrentDirectoryA@8 10016020     kernel32:KERNEL32.dll
 0002:00000024       __imp__ResumeThread@4      10016024     kernel32:KERNEL32.dll
 0002:00000028       __imp__GetLastError@0      10016028     kernel32:KERNEL32.dll
 0002:0000002c       __imp__GetCurrentThread@0  1001602c     kernel32:KERNEL32.dll
 0002:00000030       __imp__LoadLibraryA@4      10016030     kernel32:KERNEL32.dll
 0002:00000034       __imp__GetVersionExA@4     10016034     kernel32:KERNEL32.dll
 0002:00000038       __imp__CloseHandle@4       10016038     kernel32:KERNEL32.dll
 0002:0000003c       __imp__GetThreadContext@8  1001603c     kernel32:KERNEL32.dll
 0002:00000040       __imp__GetProcAddress@8    10016040     kernel32:KERNEL32.dll
 0002:00000044       __imp__ReadProcessMemory@20 10016044     kernel32:KERNEL32.dll
 0002:00000048       __imp__FreeLibrary@4       10016048     kernel32:KERNEL32.dll
 0002:0000004c       __imp__GetModuleHandleA@4  1001604c     kernel32:KERNEL32.dll
 0002:00000050       __imp__VirtualQuery@12     10016050     kernel32:KERNEL32.dll
 0002:00000054       __imp__GetFileAttributesA@4 10016054     kernel32:KERNEL32.dll
 0002:00000058       __imp__GetCurrentProcess@0 10016058     kernel32:KERNEL32.dll
 0002:0000005c       __imp__VirtualProtect@16   1001605c     kernel32:KERNEL32.dll
 0002:00000060       __imp__GetSystemInfo@4     10016060     kernel32:KERNEL32.dll
 0002:00000064       __imp__DecodePointer@4     10016064     kernel32:KERNEL32.dll
 0002:00000068       __imp__UnhandledExceptionFilter@4 10016068     kernel32:KERNEL32.dll
 0002:0000006c       __imp__SetUnhandledExceptionFilter@4 1001606c     kernel32:KERNEL32.dll
 0002:00000070       __imp__TerminateProcess@8  10016070     kernel32:KERNEL32.dll
 0002:00000074       __imp__IsProcessorFeaturePresent@4 10016074     kernel32:KERNEL32.dll
 0002:00000078       __imp__QueryPerformanceCounter@4 10016078     kernel32:KERNEL32.dll
 0002:0000007c       __imp__GetCurrentThreadId@0 1001607c     kernel32:KERNEL32.dll
 0002:00000080       __imp__GetSystemTimeAsFileTime@4 10016080     kernel32:KERNEL32.dll
 0002:00000084       __imp__InitializeSListHead@4 10016084     kernel32:KERNEL32.dll
 0002:00000088       __imp__IsDebuggerPresent@0 10016088     kernel32:KERNEL32.dll
 0002:0000008c       __imp__GetStartupInfoW@4   1001608c     kernel32:KERNEL32.dll
 0002:00000090       __imp__GetModuleHandleW@4  10016090     kernel32:KERNEL32.dll
 0002:00000094       __imp__RaiseException@16   10016094     kernel32:KERNEL32.dll
 0002:00000098       __imp__InterlockedFlushSList@4 10016098     kernel32:KERNEL32.dll
 0002:0000009c       __imp__RtlUnwind@16        1001609c     kernel32:KERNEL32.dll
 0002:000000a0       __imp__EnterCriticalSection@4 100160a0     kernel32:KERNEL32.dll
 0002:000000a4       __imp__LeaveCriticalSection@4 100160a4     kernel32:KERNEL32.dll
 0002:000000a8       __imp__DeleteCriticalSection@4 100160a8     kernel32:KERNEL32.dll
 0002:000000ac       __imp__InitializeCriticalSectionAndSpinCount@8 100160ac     kernel32:KERNEL32.dll
 0002:000000b0       __imp__TlsAlloc@0          100160b0     kernel32:KERNEL32.dll
 0002:000000b4       __imp__TlsGetValue@4       100160b4     kernel32:KERNEL32.dll
 0002:000000b8       __imp__TlsSetValue@8       100160b8     kernel32:KERNEL32.dll
 0002:000000bc       __imp__TlsFree@4           100160bc     kernel32:KERNEL32.dll
 0002:000000c0       __imp__LoadLibraryExW@12   100160c0     kernel32:KERNEL32.dll
 0002:000000c4       __imp__CreateFileW@28      100160c4     kernel32:KERNEL32.dll
 0002:000000c8       __imp__GetFileType@4       100160c8     kernel32:KERNEL32.dll
 0002:000000cc       __imp__WriteFile@20        100160cc     kernel32:KERNEL32.dll
 0002:000000d0       __imp__GetConsoleCP@0      100160d0     kernel32:KERNEL32.dll
 0002:000000d4       __imp__GetConsoleMode@8    100160d4     kernel32:KERNEL32.dll
 0002:000000d8       __imp__ExitProcess@4       100160d8     kernel32:KERNEL32.dll
 0002:000000dc       __imp__GetModuleHandleExW@12 100160dc     kernel32:KERNEL32.dll
 0002:000000e0       __imp__GetModuleFileNameW@12 100160e0     kernel32:KERNEL32.dll
 0002:000000e4       __imp__HeapAlloc@12        100160e4     kernel32:KERNEL32.dll
 0002:000000e8       __imp__HeapFree@12         100160e8     kernel32:KERNEL32.dll
 0002:000000ec       __imp__LCMapStringW@24     100160ec     kernel32:KERNEL32.dll
 0002:000000f0       __imp__GetStdHandle@4      100160f0     kernel32:KERNEL32.dll
 0002:000000f4       __imp__MultiByteToWideChar@24 100160f4     kernel32:KERNEL32.dll
 0002:000000f8       __imp__SetStdHandle@8      100160f8     kernel32:KERNEL32.dll
 0002:000000fc       __imp__SetEndOfFile@4      100160fc     kernel32:KERNEL32.dll
 0002:00000100       __imp__ReadFile@20         10016100     kernel32:KERNEL32.dll
 0002:00000104       __imp__ReadConsoleW@20     10016104     kernel32:KERNEL32.dll
 0002:00000108       __imp__SetFilePointerEx@20 10016108     kernel32:KERNEL32.dll
 0002:0000010c       __imp__WideCharToMultiByte@32 1001610c     kernel32:KERNEL32.dll
 0002:00000110       __imp__FindClose@4         10016110     kernel32:KERNEL32.dll
 0002:00000114       __imp__FindFirstFileExW@24 10016114     kernel32:KERNEL32.dll
 0002:00000118       __imp__FindNextFileW@8     10016118     kernel32:KERNEL32.dll
 0002:0000011c       __imp__IsValidCodePage@4   1001611c     kernel32:KERNEL32.dll
 0002:00000120       __imp__GetACP@0            10016120     kernel32:KERNEL32.dll
 0002:00000124       __imp__GetOEMCP@0          10016124     kernel32:KERNEL32.dll
 0002:00000128       __imp__GetCPInfo@8         10016128     kernel32:KERNEL32.dll
 0002:0000012c       __imp__GetCommandLineA@0   1001612c     kernel32:KERNEL32.dll
 0002:00000130       __imp__GetCommandLineW@0   10016130     kernel32:KERNEL32.dll
 0002:00000134       __imp__GetEnvironmentStringsW@0 10016134     kernel32:KERNEL32.dll
 0002:00000138       __imp__FreeEnvironmentStringsW@4 10016138     kernel32:KERNEL32.dll
 0002:0000013c       __imp__GetProcessHeap@0    1001613c     kernel32:KERNEL32.dll
 0002:00000140       __imp__FlushFileBuffers@4  10016140     kernel32:KERNEL32.dll
 0002:00000144       __imp__GetStringTypeW@16   10016144     kernel32:KERNEL32.dll
 0002:00000148       __imp__GetFileSizeEx@8     10016148     kernel32:KERNEL32.dll
 0002:0000014c       __imp__WriteConsoleW@20    1001614c     kernel32:KERNEL32.dll
 0002:00000150       __imp__HeapSize@12         10016150     kernel32:KERNEL32.dll
 0002:00000154       __imp__HeapReAlloc@16      10016154     kernel32:KERNEL32.dll
 0002:00000158       __imp__LoadLibraryExA@12   10016158     kernel32:KERNEL32.dll
 0002:0000015c       \177KERNEL32_NULL_THUNK_DATA 1001615c     kernel32:KERNEL32.dll
 0002:00000160       __imp__GetFileVersionInfoSizeA@8 10016160     version:VERSION.dll
 0002:00000164       __imp__VerQueryValueA@16   10016164     version:VERSION.dll
 0002:00000168       __imp__GetFileVersionInfoA@16 10016168     version:VERSION.dll
 0002:0000016c       \177VERSION_NULL_THUNK_DATA 1001616c     version:VERSION.dll
 0002:00000170       ___guard_check_icall_fptr  10016170     LIBCMT:guard_support.obj
 0002:00000174       ___xc_a                    10016174     LIBCMT:initializers.obj
 0002:00000178       __register_segfault_handler_ 10016178     segfault-handler.obj
 0002:0000017c       ___xc_z                    1001617c     LIBCMT:initializers.obj
 0002:00000180       ___xi_a                    10016180     LIBCMT:initializers.obj
 0002:00000184       ___acrt_stdio_initializer  10016184     libucrt:stdio_initializer.obj
 0002:00000188       ___acrt_multibyte_initializer 10016188     libucrt:multibyte_initializer.obj
 0002:0000018c       ___acrt_tran_sse2_initializer 1001618c     libucrt:sse2_initializer.obj
 0002:00000190       ___xi_z                    10016190     LIBCMT:initializers.obj
 0002:00000194       ___xp_a                    10016194     LIBCMT:initializers.obj
 0002:00000198       ___acrt_locale_terminator  10016198     libucrt:locale_initializer.obj
 0002:0000019c       ___dcrt_console_output_terminator 1001619c     libucrt:console_output_initializer.obj
 0002:000001a0       ___acrt_stdio_terminator   100161a0     libucrt:stdio_initializer.obj
 0002:000001a4       ___xp_z                    100161a4     LIBCMT:initializers.obj
 0002:000001a8       ___xt_a                    100161a8     LIBCMT:initializers.obj
 0002:000001ac       ___xt_z                    100161ac     LIBCMT:initializers.obj
 0002:000001b0       __sz_node_exe              100161b0     node:node.exe
 0002:000001c4       __pDefaultRawDllMain       100161c4     LIBCMT:dll_dllmain.obj
 0002:000001c4       __pRawDllMain              100161c4     LIBCMT:dll_dllmain.obj
 0002:000001cc       ??_7exception@std@@6B@     100161cc     LIBCMT:throw_bad_alloc.obj
 0002:000001d4       ??_C@_0BC@EOODALEL@Unknown?5exception@ 100161d4     LIBCMT:throw_bad_alloc.obj
 0002:000001ec       ??_7bad_alloc@std@@6B@     100161ec     LIBCMT:throw_bad_alloc.obj
 0002:000001f4       ??_C@_0P@GHFPNOJB@bad?5allocation@ 100161f4     LIBCMT:throw_bad_alloc.obj
 0002:00000208       ??_7bad_array_new_length@std@@6B@ 10016208     LIBCMT:throw_bad_alloc.obj
 0002:00000210       ??_C@_0BF@KINCDENJ@bad?5array?5new?5length@ 10016210     LIBCMT:throw_bad_alloc.obj
 0002:0000022c       ??_7type_info@@6B@         1001622c     LIBCMT:std_type_info_static.obj
 0002:000003ec       ??_C@_08EHJDFFNH@__based?$CI@ 100163ec     libvcruntime:undname.obj
 0002:000003f8       ??_C@_07KOLFKCDI@__cdecl@  100163f8     libvcruntime:undname.obj
 0002:00000400       ??_C@_08GHMPAG@__pascal@   10016400     libvcruntime:undname.obj
 0002:0000040c       ??_C@_09IFJBGAPI@__stdcall@ 1001640c     libvcruntime:undname.obj
 0002:00000418       ??_C@_0L@NPHFGOKO@__thiscall@ 10016418     libvcruntime:undname.obj
 0002:00000424       ??_C@_0L@JMKHOMEK@__fastcall@ 10016424     libvcruntime:undname.obj
 0002:00000430       ??_C@_0N@BCKKPABJ@__vectorcall@ 10016430     libvcruntime:undname.obj
 0002:00000440       ??_C@_09HIJEGCPM@__clrcall@ 10016440     libvcruntime:undname.obj
 0002:0000044c       ??_C@_06GHPCKEAG@__eabi@   1001644c     libvcruntime:undname.obj
 0002:00000454       ??_C@_09IOPIDJLG@__swift_1@ 10016454     libvcruntime:undname.obj
 0002:00000460       ??_C@_09KFNFGKHF@__swift_2@ 10016460     libvcruntime:undname.obj
 0002:0000046c       ??_C@_07JOMMBBKO@__ptr64@  1001646c     libvcruntime:undname.obj
 0002:00000474       ??_C@_0L@PILCLIHE@__restrict@ 10016474     libvcruntime:undname.obj
 0002:00000480       ??_C@_0M@GFIIJFMG@__unaligned@ 10016480     libvcruntime:undname.obj
 0002:0000048c       ??_C@_09DHDLOLLB@restrict?$CI@ 1001648c     libvcruntime:undname.obj
 0002:00000496       ??_C@_00CNPNBAHC@@         10016496     libvcruntime:undname.obj
 0002:00000498       ??_C@_04NIHEBCM@?5new@     10016498     libvcruntime:undname.obj
 0002:000004a0       ??_C@_07FPCDHGMM@?5delete@ 100164a0     libvcruntime:undname.obj
 0002:000004a8       ??_C@_01NEMOKFLO@?$DN@     100164a8     libvcruntime:undname.obj
 0002:000004ac       ??_C@_02GPIOPFAK@?$DO?$DO@ 100164ac     libvcruntime:undname.obj
 0002:000004b0       ??_C@_02FODMEDOG@?$DM?$DM@ 100164b0     libvcruntime:undname.obj
 0002:000004b4       ??_C@_01DCLJPIOD@?$CB@     100164b4     libvcruntime:undname.obj
 0002:000004b8       ??_C@_02EGOFBIJA@?$DN?$DN@ 100164b8     libvcruntime:undname.obj
 0002:000004bc       ??_C@_02FDNJECIE@?$CB?$DN@ 100164bc     libvcruntime:undname.obj
 0002:000004c0       ??_C@_02GPECMEKF@?$FL?$FN@ 100164c0     libvcruntime:undname.obj
 0002:000004c4       ??_C@_08LHJFAFGD@operator@ 100164c4     libvcruntime:undname.obj
 0002:000004d0       ??_C@_02HBOOOICD@?9?$DO@   100164d0     libvcruntime:undname.obj
 0002:000004d4       ??_C@_01NBENCBCI@?$CK@     100164d4     libvcruntime:undname.obj
 0002:000004d8       ??_C@_02ECNGHCIF@?$CL?$CL@ 100164d8     libvcruntime:undname.obj
 0002:000004dc       ??_C@_02BAABKJLB@?9?9@     100164dc     libvcruntime:undname.obj
 0002:000004e0       ??_C@_01JOAMLHOP@?9@       100164e0     libvcruntime:undname.obj
 0002:000004e4       ??_C@_01MIFGBAGJ@?$CL@     100164e4     libvcruntime:undname.obj
 0002:000004e8       ??_C@_01HNPIGOCE@?$CG@     100164e8     libvcruntime:undname.obj
 0002:000004ec       ??_C@_03MNHNFDLC@?9?$DO?$CK@ 100164ec     libvcruntime:undname.obj
 0002:000004f0       ??_C@_01KMDKNFGN@?1@       100164f0     libvcruntime:undname.obj
 0002:000004f4       ??_C@_01FGNFDNOH@?$CF@     100164f4     libvcruntime:undname.obj
 0002:000004f8       ??_C@_01MNNFJEPP@?$DM@     100164f8     libvcruntime:undname.obj
 0002:000004fc       ??_C@_02EHCHHCKH@?$DM?$DN@ 100164fc     libvcruntime:undname.obj
 0002:00000500       ??_C@_01PPODPGHN@?$DO@     10016500     libvcruntime:undname.obj
 0002:00000504       ??_C@_02EEKDKGMJ@?$DO?$DN@ 10016504     libvcruntime:undname.obj
 0002:00000508       ??_C@_01IHBHIGKO@?0@       10016508     libvcruntime:undname.obj
 0002:0000050c       ??_C@_02HCKGKOFO@?$CI?$CJ@ 1001650c     libvcruntime:undname.obj
 0002:00000510       ??_C@_01PJKLJHI@?$HO@      10016510     libvcruntime:undname.obj
 0002:00000514       ??_C@_01JKBOJNNK@?$FO@     10016514     libvcruntime:undname.obj
 0002:00000518       ??_C@_01DNKMNLPK@?$HM@     10016518     libvcruntime:undname.obj
 0002:0000051c       ??_C@_02PPKAJPJL@?$CG?$CG@ 1001651c     libvcruntime:undname.obj
 0002:00000520       ??_C@_02NONPIBCD@?$HM?$HM@ 10016520     libvcruntime:undname.obj
 0002:00000524       ??_C@_02FPIMKNGF@?$CK?$DN@ 10016524     libvcruntime:undname.obj
 0002:00000528       ??_C@_02FOEOMHFC@?$CL?$DN@ 10016528     libvcruntime:undname.obj
 0002:0000052c       ??_C@_02FKMDLLOA@?9?$DN@   1001652c     libvcruntime:undname.obj
 0002:00000530       ??_C@_02FJEHGPIO@?1?$DN@   10016530     libvcruntime:undname.obj
 0002:00000534       ??_C@_02FENAOKFI@?$CF?$DN@ 10016534     libvcruntime:undname.obj
 0002:00000538       ??_C@_03IKFCCPFF@?$DO?$DO?$DN@ 10016538     libvcruntime:undname.obj
 0002:0000053c       ??_C@_03CDNPDDLA@?$DM?$DM?$DN@ 1001653c     libvcruntime:undname.obj
 0002:00000540       ??_C@_02FGJGFEAB@?$CG?$DN@ 10016540     libvcruntime:undname.obj
 0002:00000544       ??_C@_02DHLNPPGH@?$HM?$DN@ 10016544     libvcruntime:undname.obj
 0002:00000548       ??_C@_02MHEGNOJ@?$FO?$DN@  10016548     libvcruntime:undname.obj
 0002:0000054c       ??_C@_09IFPLHPGF@?$GAvftable?8@ 1001654c     libvcruntime:undname.obj
 0002:00000558       ??_C@_09BLBHBJP@?$GAvbtable?8@ 10016558     libvcruntime:undname.obj
 0002:00000564       ??_C@_07FEEIOKP@?$GAvcall?8@ 10016564     libvcruntime:undname.obj
 0002:0000056c       ??_C@_08LLFFHHDJ@?$GAtypeof?8@ 1001656c     libvcruntime:undname.obj
 0002:00000578       ??_C@_0BF@KDPPACIK@?$GAlocal?5static?5guard?8@ 10016578     libvcruntime:undname.obj
 0002:00000590       ??_C@_08OBABFOLI@?$GAstring?8@ 10016590     libvcruntime:undname.obj
 0002:0000059c       ??_C@_0BD@JDLKDPAB@?$GAvbase?5destructor?8@ 1001659c     libvcruntime:undname.obj
 0002:000005b0       ??_C@_0BN@DEGPLNFK@?$GAvector?5deleting?5destructor?8@ 100165b0     libvcruntime:undname.obj
 0002:000005d0       ??_C@_0BO@OBMKPJIG@?$GAdefault?5constructor?5closure?8@ 100165d0     libvcruntime:undname.obj
 0002:000005f0       ??_C@_0BN@IMDCHIKM@?$GAscalar?5deleting?5destructor?8@ 100165f0     libvcruntime:undname.obj
 0002:00000610       ??_C@_0BO@PFGOCPJJ@?$GAvector?5constructor?5iterator?8@ 10016610     libvcruntime:undname.obj
 0002:00000630       ??_C@_0BN@LFPFMEDL@?$GAvector?5destructor?5iterator?8@ 10016630     libvcruntime:undname.obj
 0002:00000650       ??_C@_0CE@IKBNEHA@?$GAvector?5vbase?5constructor?5itera@ 10016650     libvcruntime:undname.obj
 0002:00000674       ??_C@_0BL@NILFHHPC@?$GAvirtual?5displacement?5map?8@ 10016674     libvcruntime:undname.obj
 0002:00000690       ??_C@_0CB@JONCMFFK@?$GAeh?5vector?5constructor?5iterator@ 10016690     libvcruntime:undname.obj
 0002:000006b4       ??_C@_0CA@GCEOPDGL@?$GAeh?5vector?5destructor?5iterator?8@ 100166b4     libvcruntime:undname.obj
 0002:000006d4       ??_C@_0CH@OOJPLCPH@?$GAeh?5vector?5vbase?5constructor?5it@ 100166d4     libvcruntime:undname.obj
 0002:000006fc       ??_C@_0BL@LLKPOHJI@?$GAcopy?5constructor?5closure?8@ 100166fc     libvcruntime:undname.obj
 0002:00000718       ??_C@_0BA@KBCDOMBN@?$GAudt?5returning?8@ 10016718     libvcruntime:undname.obj
 0002:00000728       ??_C@_03KLGMFNMG@?$GAEH@   10016728     libvcruntime:undname.obj
 0002:0000072c       ??_C@_05KHLCHHI@?$GARTTI@  1001672c     libvcruntime:undname.obj
 0002:00000734       ??_C@_0BA@KKLDJDLB@?$GAlocal?5vftable?8@ 10016734     libvcruntime:undname.obj
 0002:00000744       ??_C@_0CE@IIHCMGGL@?$GAlocal?5vftable?5constructor?5clos@ 10016744     libvcruntime:undname.obj
 0002:00000768       ??_C@_06FHBGPFGH@?5new?$FL?$FN@ 10016768     libvcruntime:undname.obj
 0002:00000770       ??_C@_09LBNFPBCA@?5delete?$FL?$FN@ 10016770     libvcruntime:undname.obj
 0002:0000077c       ??_C@_0P@HJKNJFNN@?$GAomni?5callsig?8@ 1001677c     libvcruntime:undname.obj
 0002:0000078c       ??_C@_0BL@CNOONJFP@?$GAplacement?5delete?5closure?8@ 1001678c     libvcruntime:undname.obj
 0002:000007a8       ??_C@_0BN@CKNJLHMB@?$GAplacement?5delete?$FL?$FN?5closure?8@ 100167a8     libvcruntime:undname.obj
 0002:000007c8       ??_C@_0CG@CFDHKGGD@?$GAmanaged?5vector?5constructor?5ite@ 100167c8     libvcruntime:undname.obj
 0002:000007f0       ??_C@_0CF@IMGKMJNO@?$GAmanaged?5vector?5destructor?5iter@ 100167f0     libvcruntime:undname.obj
 0002:00000818       ??_C@_0CG@HLDDJMAG@?$GAeh?5vector?5copy?5constructor?5ite@ 10016818     libvcruntime:undname.obj
 0002:00000840       ??_C@_0CM@FCBBDIGB@?$GAeh?5vector?5vbase?5copy?5construct@ 10016840     libvcruntime:undname.obj
 0002:0000086c       ??_C@_0BL@CLIPGLGB@?$GAdynamic?5initializer?5for?5?8@ 1001686c     libvcruntime:undname.obj
 0002:00000888       ??_C@_0CB@PDBIFEP@?$GAdynamic?5atexit?5destructor?5for?5@ 10016888     libvcruntime:undname.obj
 0002:000008ac       ??_C@_0CD@CGAJBKEJ@?$GAvector?5copy?5constructor?5iterat@ 100168ac     libvcruntime:undname.obj
 0002:000008d0       ??_C@_0CJ@GJELGAMM@?$GAvector?5vbase?5copy?5constructor?5@ 100168d0     libvcruntime:undname.obj
 0002:000008fc       ??_C@_0CL@FGIJHLCE@?$GAmanaged?5vector?5copy?5constructo@ 100168fc     libvcruntime:undname.obj
 0002:00000928       ??_C@_0BM@PMGGMLDN@?$GAlocal?5static?5thread?5guard?8@ 10016928     libvcruntime:undname.obj
 0002:00000944       ??_C@_0N@BDNMDMOL@operator?5?$CC?$CC?5@ 10016944     libvcruntime:undname.obj
 0002:00000954       ??_C@_0BC@GGEBGALA@operator?5co_await@ 10016954     libvcruntime:undname.obj
 0002:00000968       ??_C@_0BC@DAFEJGAK@?5Type?5Descriptor?8@ 10016968     libvcruntime:undname.obj
 0002:0000097c       ??_C@_0BM@LDKODKLH@?5Base?5Class?5Descriptor?5at?5?$CI@ 1001697c     libvcruntime:undname.obj
 0002:00000998       ??_C@_0BD@LGICGFMM@?5Base?5Class?5Array?8@ 10016998     libvcruntime:undname.obj
 0002:000009ac       ??_C@_0BN@MECKDCOJ@?5Class?5Hierarchy?5Descriptor?8@ 100169ac     libvcruntime:undname.obj
 0002:000009cc       ??_C@_0BK@CFCOFLF@?5Complete?5Object?5Locator?8@ 100169cc     libvcruntime:undname.obj
 0002:000009f4       ??_C@_1DM@KHCHBNEB@?$AAa?$AAp?$AAi?$AA?9?$AAm?$AAs?$AA?9?$AAw?$AAi?$AAn?$AA?9?$AAc?$AAo?$AAr?$AAe@ 100169f4     libvcruntime:winapi_downlevel.obj
 0002:00000a30       ??_C@_1DK@LPPGFMPP@?$AAa?$AAp?$AAi?$AA?9?$AAm?$AAs?$AA?9?$AAw?$AAi?$AAn?$AA?9?$AAc?$AAo?$AAr?$AAe@ 10016a30     libvcruntime:winapi_downlevel.obj
 0002:00000a6c       ??_C@_1BC@GDMECMAK@?$AAk?$AAe?$AAr?$AAn?$AAe?$AAl?$AA3?$AA2@ 10016a6c     libvcruntime:winapi_downlevel.obj
 0002:00000a80       ??_C@_1BA@PFFKHIOG@?$AAa?$AAp?$AAi?$AA?9?$AAm?$AAs?$AA?9@ 10016a80     libvcruntime:winapi_downlevel.obj
 0002:00000a90       ??_C@_1BA@IAIFMGEF@?$AAe?$AAx?$AAt?$AA?9?$AAm?$AAs?$AA?9@ 10016a90     libvcruntime:winapi_downlevel.obj
 0002:00000aa8       ??_C@_08KNHFBNJ@FlsAlloc@  10016aa8     libvcruntime:winapi_downlevel.obj
 0002:00000abc       ??_C@_07PEJMOBNF@FlsFree@  10016abc     libvcruntime:winapi_downlevel.obj
 0002:00000acc       ??_C@_0M@GDNOONDI@FlsGetValue@ 10016acc     libvcruntime:winapi_downlevel.obj
 0002:00000ae0       ??_C@_0M@JCPCPOEF@FlsSetValue@ 10016ae0     libvcruntime:winapi_downlevel.obj
 0002:00000af4       ??_C@_0BM@HCFOFFN@InitializeCriticalSectionEx@ 10016af4     libvcruntime:winapi_downlevel.obj
 0002:00000b10       __pDestructExceptionObject 10016b10     libvcruntime:ehhelpers.obj
 0002:00000b18       _standard_lookup_table     10016b18     libucrt:output.obj
 0002:00000b78       _format_validation_lookup_table 10016b78     libucrt:output.obj
 0002:00000bd4       ??_C@_1O@CEDCILHN@?$AA?$CI?$AAn?$AAu?$AAl?$AAl?$AA?$CJ?$AA?$AA@ 10016bd4     libucrt:output.obj
 0002:00000be4       ??_C@_06OJHGLDPL@?$CInull?$CJ?$AA@ 10016be4     libucrt:output.obj
 0002:00000bf0       ___acrt_exception_action_table 10016bf0     libucrt:exception_filter.obj
 0002:00000c80       ___acrt_signal_action_table_count 10016c80     libucrt:exception_filter.obj
 0002:00000c84       ___acrt_signal_action_first_fpe_index 10016c84     libucrt:exception_filter.obj
 0002:00000c88       ___acrt_signal_action_fpe_count 10016c88     libucrt:exception_filter.obj
 0002:00000c8c       ??_C@_1BI@BGOHAHKC@?$AAm?$AAs?$AAc?$AAo?$AAr?$AAe?$AAe?$AA?4?$AAd?$AAl?$AAl?$AA?$AA@ 10016c8c     libucrt:exit.obj
 0002:00000ca4       ??_C@_0P@MIGLKIOC@CorExitProcess?$AA@ 10016ca4     libucrt:exit.obj
 0002:00000ef0       ??_C@_1EA@JGEFHKEI@?$AAa?$AAp?$AAi?$AA?9?$AAm?$AAs?$AA?9?$AAw?$AAi?$AAn?$AA?9?$AAc?$AAo?$AAr?$AAe?$AA?9?$AAd?$AAa?$AAt?$AAe?$AAt?$AAi?$AAm?$AAe?$AA?9?$AAl?$AA1?$AA?9?$AA1?$AA?9?$AA1?$AA?$AA@ 10016ef0     libucrt:winapi_thunks.obj
 0002:00000f30       ??_C@_1DM@KHCHBNEB@?$AAa?$AAp?$AAi?$AA?9?$AAm?$AAs?$AA?9?$AAw?$AAi?$AAn?$AA?9?$AAc?$AAo?$AAr?$AAe?$AA?9?$AAf?$AAi?$AAb?$AAe?$AAr?$AAs?$AA?9?$AAl?$AA1?$AA?9?$AA1?$AA?9?$AA1?$AA?$AA@ 10016f30     libucrt:winapi_thunks.obj
 0002:00000f6c       ??_C@_1DI@IJCEHOCB@?$AAa?$AAp?$AAi?$AA?9?$AAm?$AAs?$AA?9?$AAw?$AAi?$AAn?$AA?9?$AAc?$AAo?$AAr?$AAe?$AA?9?$AAf?$AAi?$AAl?$AAe?$AA?9?$AAl?$AA1?$AA?9?$AA2?$AA?9?$AA2?$AA?$AA@ 10016f6c     libucrt:winapi_thunks.obj
 0002:00000fa8       ??_C@_1EI@MPIAOHOC@?$AAa?$AAp?$AAi?$AA?9?$AAm?$AAs?$AA?9?$AAw?$AAi?$AAn?$AA?9?$AAc?$AAo?$AAr?$AAe?$AA?9?$AAl?$AAo?$AAc?$AAa?$AAl?$AAi?$AAz?$AAa?$AAt?$AAi?$AAo?$AAn?$AA?9?$AAl?$AA1?$AA?9@ 10016fa8     libucrt:winapi_thunks.obj
 0002:00000ff0       ??_C@_1FK@FPHCKFIE@?$AAa?$AAp?$AAi?$AA?9?$AAm?$AAs?$AA?9?$AAw?$AAi?$AAn?$AA?9?$AAc?$AAo?$AAr?$AAe?$AA?9?$AAl?$AAo?$AAc?$AAa?$AAl?$AAi?$AAz?$AAa?$AAt?$AAi?$AAo?$AAn?$AA?9?$AAo?$AAb?$AAs@ 10016ff0     libucrt:winapi_thunks.obj
 0002:00001050       ??_C@_1EM@DILCGIIO@?$AAa?$AAp?$AAi?$AA?9?$AAm?$AAs?$AA?9?$AAw?$AAi?$AAn?$AA?9?$AAc?$AAo?$AAr?$AAe?$AA?9?$AAp?$AAr?$AAo?$AAc?$AAe?$AAs?$AAs?$AAt?$AAh?$AAr?$AAe?$AAa?$AAd?$AAs?$AA?9?$AAl@ 10017050     libucrt:winapi_thunks.obj
 0002:0000109c       ??_C@_1DM@LNCGDDPN@?$AAa?$AAp?$AAi?$AA?9?$AAm?$AAs?$AA?9?$AAw?$AAi?$AAn?$AA?9?$AAc?$AAo?$AAr?$AAe?$AA?9?$AAs?$AAt?$AAr?$AAi?$AAn?$AAg?$AA?9?$AAl?$AA1?$AA?9?$AA1?$AA?9?$AA0?$AA?$AA@ 1001709c     libucrt:winapi_thunks.obj
 0002:000010d8       ??_C@_1DK@LPPGFMPP@?$AAa?$AAp?$AAi?$AA?9?$AAm?$AAs?$AA?9?$AAw?$AAi?$AAn?$AA?9?$AAc?$AAo?$AAr?$AAe?$AA?9?$AAs?$AAy?$AAn?$AAc?$AAh?$AA?9?$AAl?$AA1?$AA?9?$AA2?$AA?9?$AA0?$AA?$AA@ 100170d8     libucrt:winapi_thunks.obj
 0002:00001114       ??_C@_1DO@FPAPJEMD@?$AAa?$AAp?$AAi?$AA?9?$AAm?$AAs?$AA?9?$AAw?$AAi?$AAn?$AA?9?$AAc?$AAo?$AAr?$AAe?$AA?9?$AAs?$AAy?$AAs?$AAi?$AAn?$AAf?$AAo?$AA?9?$AAl?$AA1?$AA?9?$AA2?$AA?9?$AA1?$AA?$AA@ 10017114     libucrt:winapi_thunks.obj
 0002:00001154       ??_C@_1DK@NDHNAHIO@?$AAa?$AAp?$AAi?$AA?9?$AAm?$AAs?$AA?9?$AAw?$AAi?$AAn?$AA?9?$AAc?$AAo?$AAr?$AAe?$AA?9?$AAw?$AAi?$AAn?$AAr?$AAt?$AA?9?$AAl?$AA1?$AA?9?$AA1?$AA?9?$AA0?$AA?$AA@ 10017154     libucrt:winapi_thunks.obj
 0002:00001190       ??_C@_1DM@KGHDGBCM@?$AAa?$AAp?$AAi?$AA?9?$AAm?$AAs?$AA?9?$AAw?$AAi?$AAn?$AA?9?$AAc?$AAo?$AAr?$AAe?$AA?9?$AAx?$AAs?$AAt?$AAa?$AAt?$AAe?$AA?9?$AAl?$AA2?$AA?9?$AA1?$AA?9?$AA0?$AA?$AA@ 10017190     libucrt:winapi_thunks.obj
 0002:000011d0       ??_C@_1EO@IJIOEFOH@?$AAa?$AAp?$AAi?$AA?9?$AAm?$AAs?$AA?9?$AAw?$AAi?$AAn?$AA?9?$AAr?$AAt?$AAc?$AAo?$AAr?$AAe?$AA?9?$AAn?$AAt?$AAu?$AAs?$AAe?$AAr?$AA?9?$AAw?$AAi?$AAn?$AAd?$AAo?$AAw?$AA?9@ 100171d0     libucrt:winapi_thunks.obj
 0002:00001220       ??_C@_1FG@HHGEKANL@?$AAa?$AAp?$AAi?$AA?9?$AAm?$AAs?$AA?9?$AAw?$AAi?$AAn?$AA?9?$AAs?$AAe?$AAc?$AAu?$AAr?$AAi?$AAt?$AAy?$AA?9?$AAs?$AAy?$AAs?$AAt?$AAe?$AAm?$AAf?$AAu?$AAn?$AAc?$AAt?$AAi@ 10017220     libucrt:winapi_thunks.obj
 0002:00001278       ??_C@_1EG@DBIOJECG@?$AAe?$AAx?$AAt?$AA?9?$AAm?$AAs?$AA?9?$AAw?$AAi?$AAn?$AA?9?$AAn?$AAt?$AAu?$AAs?$AAe?$AAr?$AA?9?$AAd?$AAi?$AAa?$AAl?$AAo?$AAg?$AAb?$AAo?$AAx?$AA?9?$AAl?$AA1?$AA?9?$AA1@ 10017278     libucrt:winapi_thunks.obj
 0002:000012c0       ??_C@_1EO@FIHMJCLF@?$AAe?$AAx?$AAt?$AA?9?$AAm?$AAs?$AA?9?$AAw?$AAi?$AAn?$AA?9?$AAn?$AAt?$AAu?$AAs?$AAe?$AAr?$AA?9?$AAw?$AAi?$AAn?$AAd?$AAo?$AAw?$AAs?$AAt?$AAa?$AAt?$AAi?$AAo?$AAn?$AA?9@ 100172c0     libucrt:winapi_thunks.obj
 0002:00001310       ??_C@_1BC@DNHGCMLG@?$AAa?$AAd?$AAv?$AAa?$AAp?$AAi?$AA3?$AA2?$AA?$AA@ 10017310     libucrt:winapi_thunks.obj
 0002:00001324       ??_C@_1BC@GDMECMAK@?$AAk?$AAe?$AAr?$AAn?$AAe?$AAl?$AA3?$AA2?$AA?$AA@ 10017324     libucrt:winapi_thunks.obj
 0002:00001338       ??_C@_1M@OAIMIKLP@?$AAn?$AAt?$AAd?$AAl?$AAl?$AA?$AA@ 10017338     libucrt:winapi_thunks.obj
 0002:00001348       ??_C@_1EG@DPGNFKGC@?$AAa?$AAp?$AAi?$AA?9?$AAm?$AAs?$AA?9?$AAw?$AAi?$AAn?$AA?9?$AAa?$AAp?$AAp?$AAm?$AAo?$AAd?$AAe?$AAl?$AA?9?$AAr?$AAu?$AAn?$AAt?$AAi?$AAm?$AAe?$AA?9?$AAl?$AA1?$AA?9?$AA1@ 10017348     libucrt:winapi_thunks.obj
 0002:00001390       ??_C@_1O@BCCLBEOE@?$AAu?$AAs?$AAe?$AAr?$AA3?$AA2?$AA?$AA@ 10017390     libucrt:winapi_thunks.obj
 0002:000013a0       ??_C@_1BA@PFFKHIOG@?$AAa?$AAp?$AAi?$AA?9?$AAm?$AAs?$AA?9?$AA?$AA@ 100173a0     libucrt:winapi_thunks.obj
 0002:000013b0       ??_C@_1BA@IAIFMGEF@?$AAe?$AAx?$AAt?$AA?9?$AAm?$AAs?$AA?9?$AA?$AA@ 100173b0     libucrt:winapi_thunks.obj
 0002:000013c4       ??_C@_0BA@FHFNEAED@AreFileApisANSI?$AA@ 100173c4     libucrt:winapi_thunks.obj
 0002:000013dc       ??_C@_08KNHFBNJ@FlsAlloc?$AA@ 100173dc     libucrt:winapi_thunks.obj
 0002:000013f0       ??_C@_07PEJMOBNF@FlsFree?$AA@ 100173f0     libucrt:winapi_thunks.obj
 0002:00001400       ??_C@_0M@GDNOONDI@FlsGetValue?$AA@ 10017400     libucrt:winapi_thunks.obj
 0002:00001414       ??_C@_0M@JCPCPOEF@FlsSetValue?$AA@ 10017414     libucrt:winapi_thunks.obj
 0002:00001424       ??_C@_0BP@FPNJPEJC@GetSystemTimePreciseAsFileTime?$AA@ 10017424     libucrt:winapi_thunks.obj
 0002:0000144c       ??_C@_0BM@HCFOFFN@InitializeCriticalSectionEx?$AA@ 1001744c     libucrt:winapi_thunks.obj
 0002:00001470       ??_C@_0O@KKBNKAPF@LCMapStringEx?$AA@ 10017470     libucrt:winapi_thunks.obj
 0002:00001488       ??_C@_0BB@HBDEELFH@LocaleNameToLCID?$AA@ 10017488     libucrt:winapi_thunks.obj
 0002:000014a0       ??_C@_0CF@OJOFEIGO@AppPolicyGetProcessTerminationMe@ 100174a0     libucrt:winapi_thunks.obj
 0002:000014c8       ___lc_time_c               100174c8     libucrt:nlsdata.obj
 0002:0000162c       ??_C@_03KOEHGMDN@Sun?$AA@  1001762c     libucrt:nlsdata.obj
 0002:00001630       ??_C@_03PDAGKDH@Mon?$AA@   10017630     libucrt:nlsdata.obj
 0002:00001634       ??_C@_03NAGEINEP@Tue?$AA@  10017634     libucrt:nlsdata.obj
 0002:00001638       ??_C@_03MHOMLAJA@Wed?$AA@  10017638     libucrt:nlsdata.obj
 0002:0000163c       ??_C@_03IOFIKPDN@Thu?$AA@  1001763c     libucrt:nlsdata.obj
 0002:00001640       ??_C@_03IDIOELNC@Fri?$AA@  10017640     libucrt:nlsdata.obj
 0002:00001644       ??_C@_03FEFJNEK@Sat?$AA@   10017644     libucrt:nlsdata.obj
 0002:00001648       ??_C@_06OOPIFAJ@Sunday?$AA@ 10017648     libucrt:nlsdata.obj
 0002:00001650       ??_C@_06JLEDEDGH@Monday?$AA@ 10017650     libucrt:nlsdata.obj
 0002:00001658       ??_C@_07BAAGCFCM@Tuesday?$AA@ 10017658     libucrt:nlsdata.obj
 0002:00001660       ??_C@_09DLIGFAKA@Wednesday?$AA@ 10017660     libucrt:nlsdata.obj
 0002:0000166c       ??_C@_08HACCIKIA@Thursday?$AA@ 1001766c     libucrt:nlsdata.obj
 0002:00001678       ??_C@_06JECMNKMI@Friday?$AA@ 10017678     libucrt:nlsdata.obj
 0002:00001680       ??_C@_08INBOOONO@Saturday?$AA@ 10017680     libucrt:nlsdata.obj
 0002:0000168c       ??_C@_03JIHJHPIE@Jan?$AA@  1001768c     libucrt:nlsdata.obj
 0002:00001690       ??_C@_03HJBDCHOM@Feb?$AA@  10017690     libucrt:nlsdata.obj
 0002:00001694       ??_C@_03ODNJBKGA@Mar?$AA@  10017694     libucrt:nlsdata.obj
 0002:00001698       ??_C@_03LEOLGMJP@Apr?$AA@  10017698     libucrt:nlsdata.obj
 0002:0000169c       ??_C@_03CNMDKL@May?$AA@    1001769c     libucrt:nlsdata.obj
 0002:000016a0       ??_C@_03IDFGHECI@Jun?$AA@  100176a0     libucrt:nlsdata.obj
 0002:000016a4       ??_C@_03LBGABGKK@Jul?$AA@  100176a4     libucrt:nlsdata.obj
 0002:000016a8       ??_C@_03IFJFEIGA@Aug?$AA@  100176a8     libucrt:nlsdata.obj
 0002:000016ac       ??_C@_03GGCAPAJC@Sep?$AA@  100176ac     libucrt:nlsdata.obj
 0002:000016b0       ??_C@_03BMAOKBAD@Oct?$AA@  100176b0     libucrt:nlsdata.obj
 0002:000016b4       ??_C@_03JPJOFNIA@Nov?$AA@  100176b4     libucrt:nlsdata.obj
 0002:000016b8       ??_C@_03MKABNOCG@Dec?$AA@  100176b8     libucrt:nlsdata.obj
 0002:000016bc       ??_C@_07CGJPFGJA@January?$AA@ 100176bc     libucrt:nlsdata.obj
 0002:000016c4       ??_C@_08GNJGEPFN@February?$AA@ 100176c4     libucrt:nlsdata.obj
 0002:000016d0       ??_C@_05HPCKOFNC@March?$AA@ 100176d0     libucrt:nlsdata.obj
 0002:000016d8       ??_C@_05DMJDNLEJ@April?$AA@ 100176d8     libucrt:nlsdata.obj
 0002:000016e0       ??_C@_04CNLMGBGM@June?$AA@ 100176e0     libucrt:nlsdata.obj
 0002:000016e8       ??_C@_04MIEPOIFP@July?$AA@ 100176e8     libucrt:nlsdata.obj
 0002:000016f0       ??_C@_06LBBHFDDG@August?$AA@ 100176f0     libucrt:nlsdata.obj
 0002:000016f8       ??_C@_09BHHEALKD@September?$AA@ 100176f8     libucrt:nlsdata.obj
 0002:00001704       ??_C@_07JJNFCEND@October?$AA@ 10017704     libucrt:nlsdata.obj
 0002:0000170c       ??_C@_08HCHEGEOA@November?$AA@ 1001770c     libucrt:nlsdata.obj
 0002:00001718       ??_C@_08EDHMEBNP@December?$AA@ 10017718     libucrt:nlsdata.obj
 0002:00001724       ??_C@_02DEDBPAFC@AM?$AA@   10017724     libucrt:nlsdata.obj
 0002:00001728       ??_C@_02CJNFDJBF@PM?$AA@   10017728     libucrt:nlsdata.obj
 0002:0000172c       ??_C@_08BPBNCDIB@MM?1dd?1yy?$AA@ 1001772c     libucrt:nlsdata.obj
 0002:00001738       ??_C@_0BE@CKGJFCPC@dddd?0?5MMMM?5dd?0?5yyyy?$AA@ 10017738     libucrt:nlsdata.obj
 0002:0000174c       ??_C@_08JCCMCCIL@HH?3mm?3ss?$AA@ 1001774c     libucrt:nlsdata.obj
 0002:00001758       ??_C@_17MBGCMIPB@?$AAS?$AAu?$AAn?$AA?$AA@ 10017758     libucrt:nlsdata.obj
 0002:00001760       ??_C@_17KBOMKBF@?$AAM?$AAo?$AAn?$AA?$AA@ 10017760     libucrt:nlsdata.obj
 0002:00001768       ??_C@_17BMKGEGOJ@?$AAT?$AAu?$AAe?$AA?$AA@ 10017768     libucrt:nlsdata.obj
 0002:00001770       ??_C@_17CJEDCEPE@?$AAW?$AAe?$AAd?$AA?$AA@ 10017770     libucrt:nlsdata.obj
 0002:00001778       ??_C@_17PDPHAADD@?$AAT?$AAh?$AAu?$AA?$AA@ 10017778     libucrt:nlsdata.obj
 0002:00001780       ??_C@_17HFOLPPLP@?$AAF?$AAr?$AAi?$AA?$AA@ 10017780     libucrt:nlsdata.obj
 0002:00001788       ??_C@_17GGIBDPIH@?$AAS?$AAa?$AAt?$AA?$AA@ 10017788     libucrt:nlsdata.obj
 0002:00001790       ??_C@_1O@IHNHDHPB@?$AAS?$AAu?$AAn?$AAd?$AAa?$AAy?$AA?$AA@ 10017790     libucrt:nlsdata.obj
 0002:000017a0       ??_C@_1O@MMNBFLIA@?$AAM?$AAo?$AAn?$AAd?$AAa?$AAy?$AA?$AA@ 100177a0     libucrt:nlsdata.obj
 0002:000017b0       ??_C@_1BA@ENFBFFEK@?$AAT?$AAu?$AAe?$AAs?$AAd?$AAa?$AAy?$AA?$AA@ 100177b0     libucrt:nlsdata.obj
 0002:000017c0       ??_C@_1BE@EBOGMDOH@?$AAW?$AAe?$AAd?$AAn?$AAe?$AAs?$AAd?$AAa?$AAy?$AA?$AA@ 100177c0     libucrt:nlsdata.obj
 0002:000017d4       ??_C@_1BC@HHMNLIHE@?$AAT?$AAh?$AAu?$AAr?$AAs?$AAd?$AAa?$AAy?$AA?$AA@ 100177d4     libucrt:nlsdata.obj
 0002:000017e8       ??_C@_1O@PDICJHAG@?$AAF?$AAr?$AAi?$AAd?$AAa?$AAy?$AA?$AA@ 100177e8     libucrt:nlsdata.obj
 0002:000017f8       ??_C@_1BC@ENMNNPAJ@?$AAS?$AAa?$AAt?$AAu?$AAr?$AAd?$AAa?$AAy?$AA?$AA@ 100177f8     libucrt:nlsdata.obj
 0002:0000180c       ??_C@_17DKNBKCHM@?$AAJ?$AAa?$AAn?$AA?$AA@ 1001780c     libucrt:nlsdata.obj
 0002:00001814       ??_C@_17LMDJEKJN@?$AAF?$AAe?$AAb?$AA?$AA@ 10017814     libucrt:nlsdata.obj
 0002:0000181c       ??_C@_17CKNLEDEC@?$AAM?$AAa?$AAr?$AA?$AA@ 1001781c     libucrt:nlsdata.obj
 0002:00001824       ??_C@_17LFPOIHDD@?$AAA?$AAp?$AAr?$AA?$AA@ 10017824     libucrt:nlsdata.obj
 0002:0000182c       ??_C@_17PNNKMEED@?$AAM?$AAa?$AAy?$AA?$AA@ 1001782c     libucrt:nlsdata.obj
 0002:00001834       ??_C@_17KCJGOCPB@?$AAJ?$AAu?$AAn?$AA?$AA@ 10017834     libucrt:nlsdata.obj
 0002:0000183c       ??_C@_17IJPCKHK@?$AAJ?$AAu?$AAl?$AA?$AA@ 1001783c     libucrt:nlsdata.obj
 0002:00001844       ??_C@_17ICPELBCN@?$AAA?$AAu?$AAg?$AA?$AA@ 10017844     libucrt:nlsdata.obj
 0002:0000184c       ??_C@_17HCHCOKMG@?$AAS?$AAe?$AAp?$AA?$AA@ 1001784c     libucrt:nlsdata.obj
 0002:00001854       ??_C@_17FNLKOI@?$AAO?$AAc?$AAt?$AA?$AA@ 10017854     libucrt:nlsdata.obj
 0002:0000185c       ??_C@_17BBDMLCIG@?$AAN?$AAo?$AAv?$AA?$AA@ 1001785c     libucrt:nlsdata.obj
 0002:00001864       ??_C@_17EGKACKIF@?$AAD?$AAe?$AAc?$AA?$AA@ 10017864     libucrt:nlsdata.obj
 0002:0000186c       ??_C@_1BA@EFMEIEBA@?$AAJ?$AAa?$AAn?$AAu?$AAa?$AAr?$AAy?$AA?$AA@ 1001786c     libucrt:nlsdata.obj
 0002:0000187c       ??_C@_1BC@JGDDFFAM@?$AAF?$AAe?$AAb?$AAr?$AAu?$AAa?$AAr?$AAy?$AA?$AA@ 1001787c     libucrt:nlsdata.obj
 0002:00001890       ??_C@_1M@IKEENEDF@?$AAM?$AAa?$AAr?$AAc?$AAh?$AA?$AA@ 10017890     libucrt:nlsdata.obj
 0002:0000189c       ??_C@_1M@GJNLMHFD@?$AAA?$AAp?$AAr?$AAi?$AAl?$AA?$AA@ 1001789c     libucrt:nlsdata.obj
 0002:000018a8       ??_C@_19EPFLPGAP@?$AAJ?$AAu?$AAn?$AAe?$AA?$AA@ 100178a8     libucrt:nlsdata.obj
 0002:000018b4       ??_C@_19BIFMLPCD@?$AAJ?$AAu?$AAl?$AAy?$AA?$AA@ 100178b4     libucrt:nlsdata.obj
 0002:000018c0       ??_C@_1O@PAHLKOAC@?$AAA?$AAu?$AAg?$AAu?$AAs?$AAt?$AA?$AA@ 100178c0     libucrt:nlsdata.obj
 0002:000018d0       ??_C@_1BE@DKAAMBJL@?$AAS?$AAe?$AAp?$AAt?$AAe?$AAm?$AAb?$AAe?$AAr?$AA?$AA@ 100178d0     libucrt:nlsdata.obj
 0002:000018e4       ??_C@_1BA@EPANDLNG@?$AAO?$AAc?$AAt?$AAo?$AAb?$AAe?$AAr?$AA?$AA@ 100178e4     libucrt:nlsdata.obj
 0002:000018f4       ??_C@_1BC@BGLIFPF@?$AAN?$AAo?$AAv?$AAe?$AAm?$AAb?$AAe?$AAr?$AA?$AA@ 100178f4     libucrt:nlsdata.obj
 0002:00001908       ??_C@_1BC@FEMKIFH@?$AAD?$AAe?$AAc?$AAe?$AAm?$AAb?$AAe?$AAr?$AA?$AA@ 10017908     libucrt:nlsdata.obj
 0002:0000191c       ??_C@_15ODEHAHHF@?$AAA?$AAM?$AA?$AA@ 1001791c     libucrt:nlsdata.obj
 0002:00001924       ??_C@_15CLMNNGEL@?$AAP?$AAM?$AA?$AA@ 10017924     libucrt:nlsdata.obj
 0002:0000192c       ??_C@_1BC@IEBCMHCM@?$AAM?$AAM?$AA?1?$AAd?$AAd?$AA?1?$AAy?$AAy?$AA?$AA@ 1001792c     libucrt:nlsdata.obj
 0002:00001940       ??_C@_1CI@KNAKOEBC@?$AAd?$AAd?$AAd?$AAd?$AA?0?$AA?5?$AAM?$AAM?$AAM?$AAM?$AA?5?$AAd?$AAd?$AA?0?$AA?5?$AAy?$AAy?$AAy?$AAy?$AA?$AA@ 10017940     libucrt:nlsdata.obj
 0002:00001968       ??_C@_1BC@GDGBMEMK@?$AAH?$AAH?$AA?3?$AAm?$AAm?$AA?3?$AAs?$AAs?$AA?$AA@ 10017968     libucrt:nlsdata.obj
 0002:0000197c       ??_C@_1M@BMHNFIME@?$AAe?$AAn?$AA?9?$AAU?$AAS?$AA?$AA@ 1001797c     libucrt:nlsdata.obj
 0002:00001988       ??_C@_03OEIAHPBN@INF?$AA@  10017988     libucrt:cvt.obj
 0002:0000198c       ??_C@_03OJHLLCGB@inf?$AA@  1001798c     libucrt:cvt.obj
 0002:00001990       ??_C@_03LKNCIKJB@NAN?$AA@  10017990     libucrt:cvt.obj
 0002:00001994       ??_C@_03LHCJEHON@nan?$AA@  10017994     libucrt:cvt.obj
 0002:00001998       ??_C@_09OFJJIMPC@NAN?$CISNAN?$CJ?$AA@ 10017998     libucrt:cvt.obj
 0002:000019a4       ??_C@_09IPFBKMDL@nan?$CIsnan?$CJ?$AA@ 100179a4     libucrt:cvt.obj
 0002:000019b0       ??_C@_08IKHNHAJ@NAN?$CIIND?$CJ?$AA@ 100179b0     libucrt:cvt.obj
 0002:000019bc       ??_C@_08OFCDMILK@nan?$CIind?$CJ?$AA@ 100179bc     libucrt:cvt.obj
 0002:000019c8       ??_C@_05KLBDPFGC@e?$CL000?$AA@ 100179c8     libucrt:cvt.obj
 0002:000019d0       ___newctype                100179d0     libucrt:ctype.obj
 0002:00001cd0       ___newclmap                10017cd0     libucrt:ctype.obj
 0002:00001e50       ___newcumap                10017e50     libucrt:ctype.obj
 0002:00001fd0       ??_C@_00CNPNBAHC@?$AA@     10017fd0     libucrt:mbrtowc.obj
 0002:00001fe4       ??_C@_1M@HPNHIDJI@?$AAj?$AAa?$AA?9?$AAJ?$AAP?$AA?$AA@ 10017fe4     libucrt:mbctype.obj
 0002:00001ff0       ??_C@_1M@BIBDDEMK@?$AAz?$AAh?$AA?9?$AAC?$AAN?$AA?$AA@ 10017ff0     libucrt:mbctype.obj
 0002:00001ffc       ??_C@_1M@JLOOOEGK@?$AAk?$AAo?$AA?9?$AAK?$AAR?$AA?$AA@ 10017ffc     libucrt:mbctype.obj
 0002:00002008       ??_C@_1M@CLNBBOPM@?$AAz?$AAh?$AA?9?$AAT?$AAW?$AA?$AA@ 10018008     libucrt:mbctype.obj
 0002:00002738       ??_C@_15EMKDOKLE@?$AAa?$AAr?$AA?$AA@ 10018738     libucrt:lcidtoname_downlevel.obj
 0002:00002740       ??_C@_15KNPADPLH@?$AAb?$AAg?$AA?$AA@ 10018740     libucrt:lcidtoname_downlevel.obj
 0002:00002748       ??_C@_15EDMHLDMO@?$AAc?$AAa?$AA?$AA@ 10018748     libucrt:lcidtoname_downlevel.obj
 0002:00002750       ??_C@_1O@BPEAJADD@?$AAz?$AAh?$AA?9?$AAC?$AAH?$AAS?$AA?$AA@ 10018750     libucrt:lcidtoname_downlevel.obj
 0002:00002760       ??_C@_15LJNHCMNK@?$AAc?$AAs?$AA?$AA@ 10018760     libucrt:lcidtoname_downlevel.obj
 0002:00002768       ??_C@_15FOMCIDHG@?$AAd?$AAa?$AA?$AA@ 10018768     libucrt:lcidtoname_downlevel.obj
 0002:00002770       ??_C@_15NBKABECB@?$AAd?$AAe?$AA?$AA@ 10018770     libucrt:lcidtoname_downlevel.obj
 0002:00002778       ??_C@_15GHPEIIAO@?$AAe?$AAl?$AA?$AA@ 10018778     libucrt:lcidtoname_downlevel.obj
 0002:00002780       ??_C@_15MNPNEAIF@?$AAe?$AAn?$AA?$AA@ 10018780     libucrt:lcidtoname_downlevel.obj
 0002:00002788       ??_C@_15GPIOMPMH@?$AAe?$AAs?$AA?$AA@ 10018788     libucrt:lcidtoname_downlevel.obj
 0002:00002790       ??_C@_15NGLOAKJC@?$AAf?$AAi?$AA?$AA@ 10018790     libucrt:lcidtoname_downlevel.obj
 0002:00002798       ??_C@_15FBKGNKAM@?$AAf?$AAr?$AA?$AA@ 10018798     libucrt:lcidtoname_downlevel.obj
 0002:000027a0       ??_C@_15KGGCNEFK@?$AAh?$AAe?$AA?$AA@ 100187a0     libucrt:lcidtoname_downlevel.obj
 0002:000027a8       ??_C@_15PGHLIDMF@?$AAh?$AAu?$AA?$AA@ 100187a8     libucrt:lcidtoname_downlevel.obj
 0002:000027b0       ??_C@_15BIEMAPLM@?$AAi?$AAs?$AA?$AA@ 100187b0     libucrt:lcidtoname_downlevel.obj
 0002:000027b8       ??_C@_15IFJLDHAF@?$AAi?$AAt?$AA?$AA@ 100187b8     libucrt:lcidtoname_downlevel.obj
 0002:000027c0       ??_C@_15GEMIOCAG@?$AAj?$AAa?$AA?$AA@ 100187c0     libucrt:lcidtoname_downlevel.obj
 0002:000027c8       ??_C@_15EPELEGJA@?$AAk?$AAo?$AA?$AA@ 100187c8     libucrt:lcidtoname_downlevel.obj
 0002:000027d0       ??_C@_15NDDHIMN@?$AAn?$AAl?$AA?$AA@ 100187d0     libucrt:lcidtoname_downlevel.obj
 0002:000027d8       ??_C@_15BPIGNHCD@?$AAn?$AAo?$AA?$AA@ 100187d8     libucrt:lcidtoname_downlevel.obj
 0002:000027e0       ??_C@_15DEOPBLCG@?$AAp?$AAl?$AA?$AA@ 100187e0     libucrt:lcidtoname_downlevel.obj
 0002:000027e8       ??_C@_15KBECGEFG@?$AAp?$AAt?$AA?$AA@ 100187e8     libucrt:lcidtoname_downlevel.obj
 0002:000027f0       ??_C@_15GLJCBFMD@?$AAr?$AAo?$AA?$AA@ 100187f0     libucrt:lcidtoname_downlevel.obj
 0002:000027f8       ??_C@_15FEDGKCDI@?$AAr?$AAu?$AA?$AA@ 100187f8     libucrt:lcidtoname_downlevel.obj
 0002:00002800       ??_C@_15GLKMLLHM@?$AAh?$AAr?$AA?$AA@ 10018800     libucrt:lcidtoname_downlevel.obj
 0002:00002808       ??_C@_15CPKMFBDB@?$AAs?$AAk?$AA?$AA@ 10018808     libucrt:lcidtoname_downlevel.obj
 0002:00002810       ??_C@_15BAAIOGMK@?$AAs?$AAq?$AA?$AA@ 10018810     libucrt:lcidtoname_downlevel.obj
 0002:00002818       ??_C@_15INNPNOHD@?$AAs?$AAv?$AA?$AA@ 10018818     libucrt:lcidtoname_downlevel.obj
 0002:00002820       ??_C@_15CABMMOGH@?$AAt?$AAh?$AA?$AA@ 10018820     libucrt:lcidtoname_downlevel.obj
 0002:00002828       ??_C@_15BPLIHJJM@?$AAt?$AAr?$AA?$AA@ 10018828     libucrt:lcidtoname_downlevel.obj
 0002:00002830       ??_C@_15NEOEKKDJ@?$AAu?$AAr?$AA?$AA@ 10018830     libucrt:lcidtoname_downlevel.obj
 0002:00002838       ??_C@_15NFICGAJK@?$AAi?$AAd?$AA?$AA@ 10018838     libucrt:lcidtoname_downlevel.obj
 0002:00002840       ??_C@_15PJPFLCCM@?$AAu?$AAk?$AA?$AA@ 10018840     libucrt:lcidtoname_downlevel.obj
 0002:00002848       ??_C@_15HPJPHDM@?$AAb?$AAe?$AA?$AA@ 10018848     libucrt:lcidtoname_downlevel.obj
 0002:00002850       ??_C@_15LCHLGJII@?$AAs?$AAl?$AA?$AA@ 10018850     libucrt:lcidtoname_downlevel.obj
 0002:00002858       ??_C@_15PCFJPHHO@?$AAe?$AAt?$AA?$AA@ 10018858     libucrt:lcidtoname_downlevel.obj
 0002:00002860       ??_C@_15HPFPGODN@?$AAl?$AAv?$AA?$AA@ 10018860     libucrt:lcidtoname_downlevel.obj
 0002:00002868       ??_C@_15NFFGKGLG@?$AAl?$AAt?$AA?$AA@ 10018868     libucrt:lcidtoname_downlevel.obj
 0002:00002870       ??_C@_15BDAKCCHN@?$AAf?$AAa?$AA?$AA@ 10018870     libucrt:lcidtoname_downlevel.obj
 0002:00002878       ??_C@_15NFGIAIAJ@?$AAv?$AAi?$AA?$AA@ 10018878     libucrt:lcidtoname_downlevel.obj
 0002:00002880       ??_C@_15LMKNDMHN@?$AAh?$AAy?$AA?$AA@ 10018880     libucrt:lcidtoname_downlevel.obj
 0002:00002888       ??_C@_15IJBHMCFL@?$AAa?$AAz?$AA?$AA@ 10018888     libucrt:lcidtoname_downlevel.obj
 0002:00002890       ??_C@_15EKOFJABL@?$AAe?$AAu?$AA?$AA@ 10018890     libucrt:lcidtoname_downlevel.obj
 0002:00002898       ??_C@_15BGHADCNK@?$AAm?$AAk?$AA?$AA@ 10018898     libucrt:lcidtoname_downlevel.obj
 0002:000028a0       ??_C@_15JDNICKHM@?$AAa?$AAf?$AA?$AA@ 100188a0     libucrt:lcidtoname_downlevel.obj
 0002:000028a8       ??_C@_15KPJEDBKD@?$AAk?$AAa?$AA?$AA@ 100188a8     libucrt:lcidtoname_downlevel.obj
 0002:000028b0       ??_C@_15PDNFFFEO@?$AAf?$AAo?$AA?$AA@ 100188b0     libucrt:lcidtoname_downlevel.obj
 0002:000028b8       ??_C@_15OMLEGLOC@?$AAh?$AAi?$AA?$AA@ 100188b8     libucrt:lcidtoname_downlevel.obj
 0002:000028c0       ??_C@_15IDNNENKK@?$AAm?$AAs?$AA?$AA@ 100188c0     libucrt:lcidtoname_downlevel.obj
 0002:000028c8       ??_C@_15MACJNBMH@?$AAk?$AAk?$AA?$AA@ 100188c8     libucrt:lcidtoname_downlevel.obj
 0002:000028d0       ??_C@_15DKDJEOND@?$AAk?$AAy?$AA?$AA@ 100188d0     libucrt:lcidtoname_downlevel.obj
 0002:000028d8       ??_C@_15DFGDLJBG@?$AAs?$AAw?$AA?$AA@ 100188d8     libucrt:lcidtoname_downlevel.obj
 0002:000028e0       ??_C@_15BBFAICNG@?$AAu?$AAz?$AA?$AA@ 100188e0     libucrt:lcidtoname_downlevel.obj
 0002:000028e8       ??_C@_15DKNDCGEA@?$AAt?$AAt?$AA?$AA@ 100188e8     libucrt:lcidtoname_downlevel.obj
 0002:000028f0       ??_C@_15MGIFMDPL@?$AAp?$AAa?$AA?$AA@ 100188f0     libucrt:lcidtoname_downlevel.obj
 0002:000028f8       ??_C@_15HCNDBBA@?$AAg?$AAu?$AA?$AA@ 100188f8     libucrt:lcidtoname_downlevel.obj
 0002:00002900       ??_C@_15FNBEIBON@?$AAt?$AAa?$AA?$AA@ 10018900     libucrt:lcidtoname_downlevel.obj
 0002:00002908       ??_C@_15NCHGBGLK@?$AAt?$AAe?$AA?$AA@ 10018908     libucrt:lcidtoname_downlevel.obj
 0002:00002910       ??_C@_15PHPHCBPF@?$AAk?$AAn?$AA?$AA@ 10018910     libucrt:lcidtoname_downlevel.obj
 0002:00002918       ??_C@_15DLGBCKMP@?$AAm?$AAr?$AA?$AA@ 10018918     libucrt:lcidtoname_downlevel.obj
 0002:00002920       ??_C@_15EABBLBFF@?$AAs?$AAa?$AA?$AA@ 10018920     libucrt:lcidtoname_downlevel.obj
 0002:00002928       ??_C@_15CBKOMCOI@?$AAm?$AAn?$AA?$AA@ 10018928     libucrt:lcidtoname_downlevel.obj
 0002:00002930       ??_C@_15CKDMCJAF@?$AAg?$AAl?$AA?$AA@ 10018930     libucrt:lcidtoname_downlevel.obj
 0002:00002938       ??_C@_17CNJFBPG@?$AAk?$AAo?$AAk?$AA?$AA@ 10018938     libucrt:lcidtoname_downlevel.obj
 0002:00002940       ??_C@_17FFBJICPL@?$AAs?$AAy?$AAr?$AA?$AA@ 10018940     libucrt:lcidtoname_downlevel.obj
 0002:00002948       ??_C@_17KPNDCPAF@?$AAd?$AAi?$AAv?$AA?$AA@ 10018948     libucrt:lcidtoname_downlevel.obj
 0002:00002950       ??_C@_11LOCGONAA@?$AA?$AA@ 10018950     libucrt:lcidtoname_downlevel.obj
 0002:00002954       ??_C@_1M@OKAHONE@?$AAa?$AAr?$AA?9?$AAS?$AAA?$AA?$AA@ 10018954     libucrt:lcidtoname_downlevel.obj
 0002:00002960       ??_C@_1M@FFFIGIGK@?$AAb?$AAg?$AA?9?$AAB?$AAG?$AA?$AA@ 10018960     libucrt:lcidtoname_downlevel.obj
 0002:0000296c       ??_C@_1M@BJNKEDC@?$AAc?$AAa?$AA?9?$AAE?$AAS?$AA?$AA@ 1001896c     libucrt:lcidtoname_downlevel.obj
 0002:00002978       ??_C@_1M@IJJHFJHA@?$AAc?$AAs?$AA?9?$AAC?$AAZ?$AA?$AA@ 10018978     libucrt:lcidtoname_downlevel.obj
 0002:00002984       ??_C@_1M@CLPEOBGI@?$AAd?$AAa?$AA?9?$AAD?$AAK?$AA?$AA@ 10018984     libucrt:lcidtoname_downlevel.obj
 0002:00002990       ??_C@_1M@MCMADGCB@?$AAd?$AAe?$AA?9?$AAD?$AAE?$AA?$AA@ 10018990     libucrt:lcidtoname_downlevel.obj
 0002:0000299c       ??_C@_1M@OOCKEMAM@?$AAe?$AAl?$AA?9?$AAG?$AAR?$AA?$AA@ 1001899c     libucrt:lcidtoname_downlevel.obj
 0002:000029a8       ??_C@_1M@DDNJFGID@?$AAf?$AAi?$AA?9?$AAF?$AAI?$AA?$AA@ 100189a8     libucrt:lcidtoname_downlevel.obj
 0002:000029b4       ??_C@_1M@GLIPPMAC@?$AAf?$AAr?$AA?9?$AAF?$AAR?$AA?$AA@ 100189b4     libucrt:lcidtoname_downlevel.obj
 0002:000029c0       ??_C@_1M@GFMCHPE@?$AAh?$AAe?$AA?9?$AAI?$AAL?$AA?$AA@ 100189c0     libucrt:lcidtoname_downlevel.obj
 0002:000029cc       ??_C@_1M@MHLPGNKM@?$AAh?$AAu?$AA?9?$AAH?$AAU?$AA?$AA@ 100189cc     libucrt:lcidtoname_downlevel.obj
 0002:000029d8       ??_C@_1M@LPDDNNPN@?$AAi?$AAs?$AA?9?$AAI?$AAS?$AA?$AA@ 100189d8     libucrt:lcidtoname_downlevel.obj
 0002:000029e4       ??_C@_1M@MADIPODN@?$AAi?$AAt?$AA?9?$AAI?$AAT?$AA?$AA@ 100189e4     libucrt:lcidtoname_downlevel.obj
 0002:000029f0       ??_C@_1M@IHBJJGG@?$AAn?$AAl?$AA?9?$AAN?$AAL?$AA?$AA@ 100189f0     libucrt:lcidtoname_downlevel.obj
 0002:000029fc       ??_C@_1M@EANAGDL@?$AAn?$AAb?$AA?9?$AAN?$AAO?$AA?$AA@ 100189fc     libucrt:lcidtoname_downlevel.obj
 0002:00002a08       ??_C@_1M@NEIEMEGP@?$AAp?$AAl?$AA?9?$AAP?$AAL?$AA?$AA@ 10018a08     libucrt:lcidtoname_downlevel.obj
 0002:00002a14       ??_C@_1M@BOCFIGEP@?$AAp?$AAt?$AA?9?$AAB?$AAR?$AA?$AA@ 10018a14     libucrt:lcidtoname_downlevel.obj
 0002:00002a20       ??_C@_1M@IMPFOPBG@?$AAr?$AAo?$AA?9?$AAR?$AAO?$AA?$AA@ 10018a20     libucrt:lcidtoname_downlevel.obj
 0002:00002a2c       ??_C@_1M@IDNNEJMM@?$AAr?$AAu?$AA?9?$AAR?$AAU?$AA?$AA@ 10018a2c     libucrt:lcidtoname_downlevel.obj
 0002:00002a38       ??_C@_1M@LILEEOGM@?$AAh?$AAr?$AA?9?$AAH?$AAR?$AA?$AA@ 10018a38     libucrt:lcidtoname_downlevel.obj
 0002:00002a44       ??_C@_1M@FKIFEHPB@?$AAs?$AAk?$AA?9?$AAS?$AAK?$AA?$AA@ 10018a44     libucrt:lcidtoname_downlevel.obj
 0002:00002a50       ??_C@_1M@LJMAMNPJ@?$AAs?$AAq?$AA?9?$AAA?$AAL?$AA?$AA@ 10018a50     libucrt:lcidtoname_downlevel.obj
 0002:00002a5c       ??_C@_1M@GIAKDKJK@?$AAs?$AAv?$AA?9?$AAS?$AAE?$AA?$AA@ 10018a5c     libucrt:lcidtoname_downlevel.obj
 0002:00002a68       ??_C@_1M@MKJKIKCL@?$AAt?$AAh?$AA?9?$AAT?$AAH?$AA?$AA@ 10018a68     libucrt:lcidtoname_downlevel.obj
 0002:00002a74       ??_C@_1M@MFLCCMPB@?$AAt?$AAr?$AA?9?$AAT?$AAR?$AA?$AA@ 10018a74     libucrt:lcidtoname_downlevel.obj
 0002:00002a80       ??_C@_1M@OIJHDKJN@?$AAu?$AAr?$AA?9?$AAP?$AAK?$AA?$AA@ 10018a80     libucrt:lcidtoname_downlevel.obj
 0002:00002a8c       ??_C@_1M@LHIPCIEK@?$AAi?$AAd?$AA?9?$AAI?$AAD?$AA?$AA@ 10018a8c     libucrt:lcidtoname_downlevel.obj
 0002:00002a98       ??_C@_1M@MFMOBGI@?$AAu?$AAk?$AA?9?$AAU?$AAA?$AA?$AA@ 10018a98     libucrt:lcidtoname_downlevel.obj
 0002:00002aa4       ??_C@_1M@OBGLJIPL@?$AAb?$AAe?$AA?9?$AAB?$AAY?$AA?$AA@ 10018aa4     libucrt:lcidtoname_downlevel.obj
 0002:00002ab0       ??_C@_1M@BCFAJEAD@?$AAs?$AAl?$AA?9?$AAS?$AAI?$AA?$AA@ 10018ab0     libucrt:lcidtoname_downlevel.obj
 0002:00002abc       ??_C@_1M@FKFFEDDN@?$AAe?$AAt?$AA?9?$AAE?$AAE?$AA?$AA@ 10018abc     libucrt:lcidtoname_downlevel.obj
 0002:00002ac8       ??_C@_1M@KGKKAACI@?$AAl?$AAv?$AA?9?$AAL?$AAV?$AA?$AA@ 10018ac8     libucrt:lcidtoname_downlevel.obj
 0002:00002ad4       ??_C@_1M@IFGBIJO@?$AAl?$AAt?$AA?9?$AAL?$AAT?$AA?$AA@ 10018ad4     libucrt:lcidtoname_downlevel.obj
 0002:00002ae0       ??_C@_1M@FGEAHEDM@?$AAf?$AAa?$AA?9?$AAI?$AAR?$AA?$AA@ 10018ae0     libucrt:lcidtoname_downlevel.obj
 0002:00002aec       ??_C@_1M@KBMAIBFN@?$AAv?$AAi?$AA?9?$AAV?$AAN?$AA?$AA@ 10018aec     libucrt:lcidtoname_downlevel.obj
 0002:00002af8       ??_C@_1M@GPCBKDJK@?$AAh?$AAy?$AA?9?$AAA?$AAM?$AA?$AA@ 10018af8     libucrt:lcidtoname_downlevel.obj
 0002:00002b04       ??_C@_1BG@BECMDDJB@?$AAa?$AAz?$AA?9?$AAA?$AAZ?$AA?9?$AAL?$AAa?$AAt?$AAn?$AA?$AA@ 10018b04     libucrt:lcidtoname_downlevel.obj
 0002:00002b1c       ??_C@_1M@MAOFCAEA@?$AAe?$AAu?$AA?9?$AAE?$AAS?$AA?$AA@ 10018b1c     libucrt:lcidtoname_downlevel.obj
 0002:00002b28       ??_C@_1M@IGHABKPI@?$AAm?$AAk?$AA?9?$AAM?$AAK?$AA?$AA@ 10018b28     libucrt:lcidtoname_downlevel.obj
 0002:00002b34       ??_C@_1M@IAIGNEJG@?$AAt?$AAn?$AA?9?$AAZ?$AAA?$AA?$AA@ 10018b34     libucrt:lcidtoname_downlevel.obj
 0002:00002b40       ??_C@_1M@IIJCOJFA@?$AAx?$AAh?$AA?9?$AAZ?$AAA?$AA?$AA@ 10018b40     libucrt:lcidtoname_downlevel.obj
 0002:00002b4c       ??_C@_1M@LGPJHNJH@?$AAz?$AAu?$AA?9?$AAZ?$AAA?$AA?$AA@ 10018b4c     libucrt:lcidtoname_downlevel.obj
 0002:00002b58       ??_C@_1M@HOKAOIO@?$AAa?$AAf?$AA?9?$AAZ?$AAA?$AA?$AA@ 10018b58     libucrt:lcidtoname_downlevel.obj
 0002:00002b64       ??_C@_1M@DPCLHLIE@?$AAk?$AAa?$AA?9?$AAG?$AAE?$AA?$AA@ 10018b64     libucrt:lcidtoname_downlevel.obj
 0002:00002b70       ??_C@_1M@BLKMHJBI@?$AAf?$AAo?$AA?9?$AAF?$AAO?$AA?$AA@ 10018b70     libucrt:lcidtoname_downlevel.obj
 0002:00002b7c       ??_C@_1M@LGGJAPPB@?$AAh?$AAi?$AA?9?$AAI?$AAN?$AA?$AA@ 10018b7c     libucrt:lcidtoname_downlevel.obj
 0002:00002b88       ??_C@_1M@FIKPIHFE@?$AAm?$AAt?$AA?9?$AAM?$AAT?$AA?$AA@ 10018b88     libucrt:lcidtoname_downlevel.obj
 0002:00002b94       ??_C@_1M@HEGGPBFA@?$AAs?$AAe?$AA?9?$AAN?$AAO?$AA?$AA@ 10018b94     libucrt:lcidtoname_downlevel.obj
 0002:00002ba0       ??_C@_1M@EIBJEEPA@?$AAm?$AAs?$AA?9?$AAM?$AAY?$AA?$AA@ 10018ba0     libucrt:lcidtoname_downlevel.obj
 0002:00002bac       ??_C@_1M@FHLBGMPP@?$AAk?$AAk?$AA?9?$AAK?$AAZ?$AA?$AA@ 10018bac     libucrt:lcidtoname_downlevel.obj
 0002:00002bb8       ??_C@_1M@NGJJLCGI@?$AAk?$AAy?$AA?9?$AAK?$AAG?$AA?$AA@ 10018bb8     libucrt:lcidtoname_downlevel.obj
 0002:00002bc4       ??_C@_1M@GIENNBFC@?$AAs?$AAw?$AA?9?$AAK?$AAE?$AA?$AA@ 10018bc4     libucrt:lcidtoname_downlevel.obj
 0002:00002bd0       ??_C@_1BG@NDGMJIMJ@?$AAu?$AAz?$AA?9?$AAU?$AAZ?$AA?9?$AAL?$AAa?$AAt?$AAn?$AA?$AA@ 10018bd0     libucrt:lcidtoname_downlevel.obj
 0002:00002be8       ??_C@_1M@IDCCIHBC@?$AAt?$AAt?$AA?9?$AAR?$AAU?$AA?$AA@ 10018be8     libucrt:lcidtoname_downlevel.obj
 0002:00002bf4       ??_C@_1M@LOICPMOJ@?$AAb?$AAn?$AA?9?$AAI?$AAN?$AA?$AA@ 10018bf4     libucrt:lcidtoname_downlevel.obj
 0002:00002c00       ??_C@_1M@KPKKNEAH@?$AAp?$AAa?$AA?9?$AAI?$AAN?$AA?$AA@ 10018c00     libucrt:lcidtoname_downlevel.obj
 0002:00002c0c       ??_C@_1M@PJGPPBOG@?$AAg?$AAu?$AA?9?$AAI?$AAN?$AA?$AA@ 10018c0c     libucrt:lcidtoname_downlevel.obj
 0002:00002c18       ??_C@_1M@KMKMOPHI@?$AAt?$AAa?$AA?9?$AAI?$AAN?$AA?$AA@ 10018c18     libucrt:lcidtoname_downlevel.obj
 0002:00002c24       ??_C@_1M@KFEHEPAC@?$AAt?$AAe?$AA?9?$AAI?$AAN?$AA?$AA@ 10018c24     libucrt:lcidtoname_downlevel.obj
 0002:00002c30       ??_C@_1M@CDCLMGHI@?$AAk?$AAn?$AA?9?$AAI?$AAN?$AA?$AA@ 10018c30     libucrt:lcidtoname_downlevel.obj
 0002:00002c3c       ??_C@_1M@MIODLDKF@?$AAm?$AAl?$AA?9?$AAI?$AAN?$AA?$AA@ 10018c3c     libucrt:lcidtoname_downlevel.obj
 0002:00002c48       ??_C@_1M@PBIEACPO@?$AAm?$AAr?$AA?9?$AAI?$AAN?$AA?$AA@ 10018c48     libucrt:lcidtoname_downlevel.obj
 0002:00002c54       ??_C@_1M@NIDEAGPH@?$AAs?$AAa?$AA?9?$AAI?$AAN?$AA?$AA@ 10018c54     libucrt:lcidtoname_downlevel.obj
 0002:00002c60       ??_C@_1M@FHIHCBIO@?$AAm?$AAn?$AA?9?$AAM?$AAN?$AA?$AA@ 10018c60     libucrt:lcidtoname_downlevel.obj
 0002:00002c6c       ??_C@_1M@JAIJPENP@?$AAc?$AAy?$AA?9?$AAG?$AAB?$AA?$AA@ 10018c6c     libucrt:lcidtoname_downlevel.obj
 0002:00002c78       ??_C@_1M@PHGFBEPN@?$AAg?$AAl?$AA?9?$AAE?$AAS?$AA?$AA@ 10018c78     libucrt:lcidtoname_downlevel.obj
 0002:00002c84       ??_C@_1O@KPIPDNCP@?$AAk?$AAo?$AAk?$AA?9?$AAI?$AAN?$AA?$AA@ 10018c84     libucrt:lcidtoname_downlevel.obj
 0002:00002c94       ??_C@_1O@KNHJLDJA@?$AAs?$AAy?$AAr?$AA?9?$AAS?$AAY?$AA?$AA@ 10018c94     libucrt:lcidtoname_downlevel.obj
 0002:00002ca4       ??_C@_1O@MKEKBLAH@?$AAd?$AAi?$AAv?$AA?9?$AAM?$AAV?$AA?$AA@ 10018ca4     libucrt:lcidtoname_downlevel.obj
 0002:00002cb4       ??_C@_1O@OHDCKDDF@?$AAq?$AAu?$AAz?$AA?9?$AAB?$AAO?$AA?$AA@ 10018cb4     libucrt:lcidtoname_downlevel.obj
 0002:00002cc4       ??_C@_1M@LEPJNLFD@?$AAn?$AAs?$AA?9?$AAZ?$AAA?$AA?$AA@ 10018cc4     libucrt:lcidtoname_downlevel.obj
 0002:00002cd0       ??_C@_1M@OMLEIIJB@?$AAm?$AAi?$AA?9?$AAN?$AAZ?$AA?$AA@ 10018cd0     libucrt:lcidtoname_downlevel.obj
 0002:00002cdc       ??_C@_1M@PMPEAILG@?$AAa?$AAr?$AA?9?$AAI?$AAQ?$AA?$AA@ 10018cdc     libucrt:lcidtoname_downlevel.obj
 0002:00002ce8       ??_C@_1M@CNKPNOEE@?$AAd?$AAe?$AA?9?$AAC?$AAH?$AA?$AA@ 10018ce8     libucrt:lcidtoname_downlevel.obj
 0002:00002cf4       ??_C@_1M@LKMGMLKO@?$AAe?$AAn?$AA?9?$AAG?$AAB?$AA?$AA@ 10018cf4     libucrt:lcidtoname_downlevel.obj
 0002:00002d00       ??_C@_1M@PGKJFFGL@?$AAe?$AAs?$AA?9?$AAM?$AAX?$AA?$AA@ 10018d00     libucrt:lcidtoname_downlevel.obj
 0002:00002d0c       ??_C@_1M@DNNANBDC@?$AAf?$AAr?$AA?9?$AAB?$AAE?$AA?$AA@ 10018d0c     libucrt:lcidtoname_downlevel.obj
 0002:00002d18       ??_C@_1M@HLGMDFHM@?$AAi?$AAt?$AA?9?$AAC?$AAH?$AA?$AA@ 10018d18     libucrt:lcidtoname_downlevel.obj
 0002:00002d24       ??_C@_1M@CLLBGJH@?$AAn?$AAl?$AA?9?$AAB?$AAE?$AA?$AA@ 10018d24     libucrt:lcidtoname_downlevel.obj
 0002:00002d30       ??_C@_1M@BODBOGLF@?$AAn?$AAn?$AA?9?$AAN?$AAO?$AA?$AA@ 10018d30     libucrt:lcidtoname_downlevel.obj
 0002:00002d3c       ??_C@_1M@HFFAHKAD@?$AAp?$AAt?$AA?9?$AAP?$AAT?$AA?$AA@ 10018d3c     libucrt:lcidtoname_downlevel.obj
 0002:00002d48       ??_C@_1BG@LNOAKHIE@?$AAs?$AAr?$AA?9?$AAS?$AAP?$AA?9?$AAL?$AAa?$AAt?$AAn?$AA?$AA@ 10018d48     libucrt:lcidtoname_downlevel.obj
 0002:00002d60       ??_C@_1M@HBMHBGAK@?$AAs?$AAv?$AA?9?$AAF?$AAI?$AA?$AA@ 10018d60     libucrt:lcidtoname_downlevel.obj
 0002:00002d6c       ??_C@_1BG@DGCJGJBE@?$AAa?$AAz?$AA?9?$AAA?$AAZ?$AA?9?$AAC?$AAy?$AAr?$AAl?$AA?$AA@ 10018d6c     libucrt:lcidtoname_downlevel.obj
 0002:00002d84       ??_C@_1M@KEJDAAHB@?$AAs?$AAe?$AA?9?$AAS?$AAE?$AA?$AA@ 10018d84     libucrt:lcidtoname_downlevel.obj
 0002:00002d90       ??_C@_1M@HEIBJJAD@?$AAm?$AAs?$AA?9?$AAB?$AAN?$AA?$AA@ 10018d90     libucrt:lcidtoname_downlevel.obj
 0002:00002d9c       ??_C@_1BG@PBGJMCEM@?$AAu?$AAz?$AA?9?$AAU?$AAZ?$AA?9?$AAC?$AAy?$AAr?$AAl?$AA?$AA@ 10018d9c     libucrt:lcidtoname_downlevel.obj
 0002:00002db4       ??_C@_1O@LAOBCMDF@?$AAq?$AAu?$AAz?$AA?9?$AAE?$AAC?$AA?$AA@ 10018db4     libucrt:lcidtoname_downlevel.obj
 0002:00002dc4       ??_C@_1M@POEEMAIO@?$AAa?$AAr?$AA?9?$AAE?$AAG?$AA?$AA@ 10018dc4     libucrt:lcidtoname_downlevel.obj
 0002:00002dd0       ??_C@_1M@EFAKDEDL@?$AAz?$AAh?$AA?9?$AAH?$AAK?$AA?$AA@ 10018dd0     libucrt:lcidtoname_downlevel.obj
 0002:00002ddc       ??_C@_1M@HKKIJHGI@?$AAd?$AAe?$AA?9?$AAA?$AAT?$AA?$AA@ 10018ddc     libucrt:lcidtoname_downlevel.obj
 0002:00002de8       ??_C@_1M@KBFBEHJF@?$AAe?$AAn?$AA?9?$AAA?$AAU?$AA?$AA@ 10018de8     libucrt:lcidtoname_downlevel.obj
 0002:00002df4       ??_C@_1M@MNPLFAAH@?$AAe?$AAs?$AA?9?$AAE?$AAS?$AA?$AA@ 10018df4     libucrt:lcidtoname_downlevel.obj
 0002:00002e00       ??_C@_1M@HJOOJFMA@?$AAf?$AAr?$AA?9?$AAC?$AAA?$AA?$AA@ 10018e00     libucrt:lcidtoname_downlevel.obj
 0002:00002e0c       ??_C@_1BG@JPOFPNAB@?$AAs?$AAr?$AA?9?$AAS?$AAP?$AA?9?$AAC?$AAy?$AAr?$AAl?$AA?$AA@ 10018e0c     libucrt:lcidtoname_downlevel.obj
 0002:00002e24       ??_C@_1M@LNFOCMOB@?$AAs?$AAe?$AA?9?$AAF?$AAI?$AA?$AA@ 10018e24     libucrt:lcidtoname_downlevel.obj
 0002:00002e30       ??_C@_1O@MGJBOAMB@?$AAq?$AAu?$AAz?$AA?9?$AAP?$AAE?$AA?$AA@ 10018e30     libucrt:lcidtoname_downlevel.obj
 0002:00002e40       ??_C@_1M@GJINLBOK@?$AAa?$AAr?$AA?9?$AAL?$AAY?$AA?$AA@ 10018e40     libucrt:lcidtoname_downlevel.obj
 0002:00002e4c       ??_C@_1M@GGMNHJNL@?$AAz?$AAh?$AA?9?$AAS?$AAG?$AA?$AA@ 10018e4c     libucrt:lcidtoname_downlevel.obj
 0002:00002e58       ??_C@_1M@HOIKODND@?$AAd?$AAe?$AA?9?$AAL?$AAU?$AA?$AA@ 10018e58     libucrt:lcidtoname_downlevel.obj
 0002:00002e64       ??_C@_1M@DDOCCGFG@?$AAe?$AAn?$AA?9?$AAC?$AAA?$AA?$AA@ 10018e64     libucrt:lcidtoname_downlevel.obj
 0002:00002e70       ??_C@_1M@BNOEMJLF@?$AAe?$AAs?$AA?9?$AAG?$AAT?$AA?$AA@ 10018e70     libucrt:lcidtoname_downlevel.obj
 0002:00002e7c       ??_C@_1M@EOGNKEK@?$AAf?$AAr?$AA?9?$AAC?$AAH?$AA?$AA@ 10018e7c     libucrt:lcidtoname_downlevel.obj
 0002:00002e88       ??_C@_1M@FLIDJFHL@?$AAh?$AAr?$AA?9?$AAB?$AAA?$AA?$AA@ 10018e88     libucrt:lcidtoname_downlevel.obj
 0002:00002e94       ??_C@_1O@FMCELNAJ@?$AAs?$AAm?$AAj?$AA?9?$AAN?$AAO?$AA?$AA@ 10018e94     libucrt:lcidtoname_downlevel.obj
 0002:00002ea4       ??_C@_1M@JHGLJMGJ@?$AAa?$AAr?$AA?9?$AAD?$AAZ?$AA?$AA@ 10018ea4     libucrt:lcidtoname_downlevel.obj
 0002:00002eb0       ??_C@_1M@JKKFDCNP@?$AAz?$AAh?$AA?9?$AAM?$AAO?$AA?$AA@ 10018eb0     libucrt:lcidtoname_downlevel.obj
 0002:00002ebc       ??_C@_1M@GEEFALPE@?$AAd?$AAe?$AA?9?$AAL?$AAI?$AA?$AA@ 10018ebc     libucrt:lcidtoname_downlevel.obj
 0002:00002ec8       ??_C@_1M@IGEOFBG@?$AAe?$AAn?$AA?9?$AAN?$AAZ?$AA?$AA@ 10018ec8     libucrt:lcidtoname_downlevel.obj
 0002:00002ed4       ??_C@_1M@KDBONEHP@?$AAe?$AAs?$AA?9?$AAC?$AAR?$AA?$AA@ 10018ed4     libucrt:lcidtoname_downlevel.obj
 0002:00002ee0       ??_C@_1M@FHMDOHNN@?$AAf?$AAr?$AA?9?$AAL?$AAU?$AA?$AA@ 10018ee0     libucrt:lcidtoname_downlevel.obj
 0002:00002eec       ??_C@_1BG@NFKKMAFG@?$AAb?$AAs?$AA?9?$AAB?$AAA?$AA?9?$AAL?$AAa?$AAt?$AAn?$AA?$AA@ 10018eec     libucrt:lcidtoname_downlevel.obj
 0002:00002f04       ??_C@_1O@IMNBEMCI@?$AAs?$AAm?$AAj?$AA?9?$AAS?$AAE?$AA?$AA@ 10018f04     libucrt:lcidtoname_downlevel.obj
 0002:00002f14       ??_C@_1M@DHHMBNDP@?$AAa?$AAr?$AA?9?$AAM?$AAA?$AA?$AA@ 10018f14     libucrt:lcidtoname_downlevel.obj
 0002:00002f20       ??_C@_1M@BNBLJCGH@?$AAe?$AAn?$AA?9?$AAI?$AAE?$AA?$AA@ 10018f20     libucrt:lcidtoname_downlevel.obj
 0002:00002f2c       ??_C@_1M@GEPAFMDL@?$AAe?$AAs?$AA?9?$AAP?$AAA?$AA?$AA@ 10018f2c     libucrt:lcidtoname_downlevel.obj
 0002:00002f38       ??_C@_1M@OJONDMDL@?$AAf?$AAr?$AA?9?$AAM?$AAC?$AA?$AA@ 10018f38     libucrt:lcidtoname_downlevel.obj
 0002:00002f44       ??_C@_1BG@OBCNFJB@?$AAs?$AAr?$AA?9?$AAB?$AAA?$AA?9?$AAL?$AAa?$AAt?$AAn?$AA?$AA@ 10018f44     libucrt:lcidtoname_downlevel.obj
 0002:00002f5c       ??_C@_1O@KEMEEGPO@?$AAs?$AAm?$AAa?$AA?9?$AAN?$AAO?$AA?$AA@ 10018f5c     libucrt:lcidtoname_downlevel.obj
 0002:00002f6c       ??_C@_1M@ELMGFODK@?$AAa?$AAr?$AA?9?$AAT?$AAN?$AA?$AA@ 10018f6c     libucrt:lcidtoname_downlevel.obj
 0002:00002f78       ??_C@_1M@BHDLHFAF@?$AAe?$AAn?$AA?9?$AAZ?$AAA?$AA?$AA@ 10018f78     libucrt:lcidtoname_downlevel.obj
 0002:00002f84       ??_C@_1M@BMGIGLIF@?$AAe?$AAs?$AA?9?$AAD?$AAO?$AA?$AA@ 10018f84     libucrt:lcidtoname_downlevel.obj
 0002:00002f90       ??_C@_1BG@CMBHIPBE@?$AAs?$AAr?$AA?9?$AAB?$AAA?$AA?9?$AAC?$AAy?$AAr?$AAl?$AA?$AA@ 10018f90     libucrt:lcidtoname_downlevel.obj
 0002:00002fa8       ??_C@_1O@HEDBLHNP@?$AAs?$AAm?$AAa?$AA?9?$AAS?$AAE?$AA?$AA@ 10018fa8     libucrt:lcidtoname_downlevel.obj
 0002:00002fb8       ??_C@_1M@DAGCADIM@?$AAa?$AAr?$AA?9?$AAO?$AAM?$AA?$AA@ 10018fb8     libucrt:lcidtoname_downlevel.obj
 0002:00002fc4       ??_C@_1M@FODLMICG@?$AAe?$AAn?$AA?9?$AAJ?$AAM?$AA?$AA@ 10018fc4     libucrt:lcidtoname_downlevel.obj
 0002:00002fd0       ??_C@_1M@DNMLCIHB@?$AAe?$AAs?$AA?9?$AAV?$AAE?$AA?$AA@ 10018fd0     libucrt:lcidtoname_downlevel.obj
 0002:00002fdc       ??_C@_1O@EOKHMKJK@?$AAs?$AAm?$AAs?$AA?9?$AAF?$AAI?$AA?$AA@ 10018fdc     libucrt:lcidtoname_downlevel.obj
 0002:00002fec       ??_C@_1M@CAFJMKOF@?$AAa?$AAr?$AA?9?$AAY?$AAE?$AA?$AA@ 10018fec     libucrt:lcidtoname_downlevel.obj
 0002:00002ff8       ??_C@_1M@CBFHIJLI@?$AAe?$AAn?$AA?9?$AAC?$AAB?$AA?$AA@ 10018ff8     libucrt:lcidtoname_downlevel.obj
 0002:00003004       ??_C@_1M@BGNFLDN@?$AAe?$AAs?$AA?9?$AAC?$AAO?$AA?$AA@ 10019004     libucrt:lcidtoname_downlevel.obj
 0002:00003010       ??_C@_1O@JMPHMAMC@?$AAs?$AAm?$AAn?$AA?9?$AAF?$AAI?$AA?$AA@ 10019010     libucrt:lcidtoname_downlevel.obj
 0002:00003020       ??_C@_1M@JLANABKE@?$AAa?$AAr?$AA?9?$AAS?$AAY?$AA?$AA@ 10019020     libucrt:lcidtoname_downlevel.obj
 0002:0000302c       ??_C@_1M@HPKGCFGN@?$AAe?$AAn?$AA?9?$AAB?$AAZ?$AA?$AA@ 1001902c     libucrt:lcidtoname_downlevel.obj
 0002:00003038       ??_C@_1M@OLJCMLGM@?$AAe?$AAs?$AA?9?$AAP?$AAE?$AA?$AA@ 10019038     libucrt:lcidtoname_downlevel.obj
 0002:00003044       ??_C@_1M@MKKGFKLE@?$AAa?$AAr?$AA?9?$AAJ?$AAO?$AA?$AA@ 10019044     libucrt:lcidtoname_downlevel.obj
 0002:00003050       ??_C@_1M@EKPGLDNI@?$AAe?$AAn?$AA?9?$AAT?$AAT?$AA?$AA@ 10019050     libucrt:lcidtoname_downlevel.obj
 0002:0000305c       ??_C@_1M@OONGHFHE@?$AAe?$AAs?$AA?9?$AAA?$AAR?$AA?$AA@ 1001905c     libucrt:lcidtoname_downlevel.obj
 0002:00003068       ??_C@_1M@OOJFGBHE@?$AAa?$AAr?$AA?9?$AAL?$AAB?$AA?$AA@ 10019068     libucrt:lcidtoname_downlevel.obj
 0002:00003074       ??_C@_1M@GCEJHNEG@?$AAe?$AAn?$AA?9?$AAZ?$AAW?$AA?$AA@ 10019074     libucrt:lcidtoname_downlevel.obj
 0002:00003080       ??_C@_1M@JNOCAHJI@?$AAe?$AAs?$AA?9?$AAE?$AAC?$AA?$AA@ 10019080     libucrt:lcidtoname_downlevel.obj
 0002:0000308c       ??_C@_1M@JEFHPGGB@?$AAa?$AAr?$AA?9?$AAK?$AAW?$AA?$AA@ 1001908c     libucrt:lcidtoname_downlevel.obj
 0002:00003098       ??_C@_1M@MLKIBJOJ@?$AAe?$AAn?$AA?9?$AAP?$AAH?$AA?$AA@ 10019098     libucrt:lcidtoname_downlevel.obj
 0002:000030a4       ??_C@_1M@BDNIPEND@?$AAe?$AAs?$AA?9?$AAC?$AAL?$AA?$AA@ 100190a4     libucrt:lcidtoname_downlevel.obj
 0002:000030b0       ??_C@_1M@MPNMEKBD@?$AAa?$AAr?$AA?9?$AAA?$AAE?$AA?$AA@ 100190b0     libucrt:lcidtoname_downlevel.obj
 0002:000030bc       ??_C@_1M@KBJALCPI@?$AAe?$AAs?$AA?9?$AAU?$AAY?$AA?$AA@ 100190bc     libucrt:lcidtoname_downlevel.obj
 0002:000030c8       ??_C@_1M@LLCCOAGA@?$AAa?$AAr?$AA?9?$AAB?$AAH?$AA?$AA@ 100190c8     libucrt:lcidtoname_downlevel.obj
 0002:000030d4       ??_C@_1M@PBFNCDEL@?$AAe?$AAs?$AA?9?$AAP?$AAY?$AA?$AA@ 100190d4     libucrt:lcidtoname_downlevel.obj
 0002:000030e0       ??_C@_1M@EDGINPNP@?$AAa?$AAr?$AA?9?$AAQ?$AAA?$AA?$AA@ 100190e0     libucrt:lcidtoname_downlevel.obj
 0002:000030ec       ??_C@_1M@MKDBIIJI@?$AAe?$AAs?$AA?9?$AAB?$AAO?$AA?$AA@ 100190ec     libucrt:lcidtoname_downlevel.obj
 0002:000030f8       ??_C@_1M@CPKKEBLD@?$AAe?$AAs?$AA?9?$AAS?$AAV?$AA?$AA@ 100190f8     libucrt:lcidtoname_downlevel.obj
 0002:00003104       ??_C@_1M@NDBGMMJL@?$AAe?$AAs?$AA?9?$AAH?$AAN?$AA?$AA@ 10019104     libucrt:lcidtoname_downlevel.obj
 0002:00003110       ??_C@_1M@JIJIBHDP@?$AAe?$AAs?$AA?9?$AAN?$AAI?$AA?$AA@ 10019110     libucrt:lcidtoname_downlevel.obj
 0002:0000311c       ??_C@_1M@CGFMKEEK@?$AAe?$AAs?$AA?9?$AAP?$AAR?$AA?$AA@ 1001911c     libucrt:lcidtoname_downlevel.obj
 0002:00003128       ??_C@_1O@ICJHKIIK@?$AAz?$AAh?$AA?9?$AAC?$AAH?$AAT?$AA?$AA@ 10019128     libucrt:lcidtoname_downlevel.obj
 0002:00003138       ??_C@_15CLNEJCE@?$AAs?$AAr?$AA?$AA@ 10019138     libucrt:lcidtoname_downlevel.obj
 0002:00003860       ??_C@_1M@KAHEKEIG@?$AAa?$AAf?$AA?9?$AAz?$AAa?$AA?$AA@ 10019860     libucrt:lcidtoname_downlevel.obj
 0002:0000386c       ??_C@_1M@GIECOABL@?$AAa?$AAr?$AA?9?$AAa?$AAe?$AA?$AA@ 1001986c     libucrt:lcidtoname_downlevel.obj
 0002:00003878       ??_C@_1M@BMLMEKGI@?$AAa?$AAr?$AA?9?$AAb?$AAh?$AA?$AA@ 10019878     libucrt:lcidtoname_downlevel.obj
 0002:00003884       ??_C@_1M@DAPFDGGB@?$AAa?$AAr?$AA?9?$AAd?$AAz?$AA?$AA@ 10019884     libucrt:lcidtoname_downlevel.obj
 0002:00003890       ??_C@_1M@FJNKGKIG@?$AAa?$AAr?$AA?9?$AAe?$AAg?$AA?$AA@ 10019890     libucrt:lcidtoname_downlevel.obj
 0002:0000389c       ??_C@_1M@FLGKKCLO@?$AAa?$AAr?$AA?9?$AAi?$AAq?$AA?$AA@ 1001989c     libucrt:lcidtoname_downlevel.obj
 0002:000038a8       ??_C@_1M@GNDIPALM@?$AAa?$AAr?$AA?9?$AAj?$AAo?$AA?$AA@ 100198a8     libucrt:lcidtoname_downlevel.obj
 0002:000038b4       ??_C@_1M@DDMJFMGJ@?$AAa?$AAr?$AA?9?$AAk?$AAw?$AA?$AA@ 100198b4     libucrt:lcidtoname_downlevel.obj
 0002:000038c0       ??_C@_1M@EJALMLHM@?$AAa?$AAr?$AA?9?$AAl?$AAb?$AA?$AA@ 100198c0     libucrt:lcidtoname_downlevel.obj
 0002:000038cc       ??_C@_1M@MOBDBLOC@?$AAa?$AAr?$AA?9?$AAl?$AAy?$AA?$AA@ 100198cc     libucrt:lcidtoname_downlevel.obj
 0002:000038d8       ??_C@_1M@JAOCLHDH@?$AAa?$AAr?$AA?9?$AAm?$AAa?$AA?$AA@ 100198d8     libucrt:lcidtoname_downlevel.obj
 0002:000038e4       ??_C@_1M@JHPMKJIE@?$AAa?$AAr?$AA?9?$AAo?$AAm?$AA?$AA@ 100198e4     libucrt:lcidtoname_downlevel.obj
 0002:000038f0       ??_C@_1M@OEPGHFNH@?$AAa?$AAr?$AA?9?$AAq?$AAa?$AA?$AA@ 100198f0     libucrt:lcidtoname_downlevel.obj
 0002:000038fc       ??_C@_1M@KJDONENM@?$AAa?$AAr?$AA?9?$AAs?$AAa?$AA?$AA@ 100198fc     libucrt:lcidtoname_downlevel.obj
 0002:00003908       ??_C@_1M@DMJDKLKM@?$AAa?$AAr?$AA?9?$AAs?$AAy?$AA?$AA@ 10019908     libucrt:lcidtoname_downlevel.obj
 0002:00003914       ??_C@_1M@OMFIPEDC@?$AAa?$AAr?$AA?9?$AAt?$AAn?$AA?$AA@ 10019914     libucrt:lcidtoname_downlevel.obj
 0002:00003920       ??_C@_1M@IHMHGAON@?$AAa?$AAr?$AA?9?$AAy?$AAe?$AA?$AA@ 10019920     libucrt:lcidtoname_downlevel.obj
 0002:0000392c       ??_C@_1BG@KDCPGJGB@?$AAa?$AAz?$AA?9?$AAa?$AAz?$AA?9?$AAc?$AAy?$AAr?$AAl?$AA?$AA@ 1001992c     libucrt:lcidtoname_downlevel.obj
 0002:00003944       ??_C@_1BG@IBCKDDOE@?$AAa?$AAz?$AA?9?$AAa?$AAz?$AA?9?$AAl?$AAa?$AAt?$AAn?$AA?$AA@ 10019944     libucrt:lcidtoname_downlevel.obj
 0002:0000395c       ??_C@_1M@EGPFDCPD@?$AAb?$AAe?$AA?9?$AAb?$AAy?$AA?$AA@ 1001995c     libucrt:lcidtoname_downlevel.obj
 0002:00003968       ??_C@_1M@PCMGMCGC@?$AAb?$AAg?$AA?9?$AAb?$AAg?$AA?$AA@ 10019968     libucrt:lcidtoname_downlevel.obj
 0002:00003974       ??_C@_1M@BJBMFGOB@?$AAb?$AAn?$AA?9?$AAi?$AAn?$AA?$AA@ 10019974     libucrt:lcidtoname_downlevel.obj
 0002:00003980       ??_C@_1BG@EAKMMACD@?$AAb?$AAs?$AA?9?$AAb?$AAa?$AA?9?$AAl?$AAa?$AAt?$AAn?$AA?$AA@ 10019980     libucrt:lcidtoname_downlevel.obj
 0002:00003998       ??_C@_1M@KGADAODK@?$AAc?$AAa?$AA?9?$AAe?$AAs?$AA?$AA@ 10019998     libucrt:lcidtoname_downlevel.obj
 0002:000039a4       ??_C@_1M@COAJPDHI@?$AAc?$AAs?$AA?9?$AAc?$AAz?$AA?$AA@ 100199a4     libucrt:lcidtoname_downlevel.obj
 0002:000039b0       ??_C@_1M@DHBHFONH@?$AAc?$AAy?$AA?9?$AAg?$AAb?$AA?$AA@ 100199b0     libucrt:lcidtoname_downlevel.obj
 0002:000039bc       ??_C@_1M@IMGKELGA@?$AAd?$AAa?$AA?9?$AAd?$AAk?$AA?$AA@ 100199bc     libucrt:lcidtoname_downlevel.obj
 0002:000039c8       ??_C@_1M@NNDGDNGA@?$AAd?$AAe?$AA?9?$AAa?$AAt?$AA?$AA@ 100199c8     libucrt:lcidtoname_downlevel.obj
 0002:000039d4       ??_C@_1M@IKDBHEEM@?$AAd?$AAe?$AA?9?$AAc?$AAh?$AA?$AA@ 100199d4     libucrt:lcidtoname_downlevel.obj
 0002:000039e0       ??_C@_1M@GFFOJMCJ@?$AAd?$AAe?$AA?9?$AAd?$AAe?$AA?$AA@ 100199e0     libucrt:lcidtoname_downlevel.obj
 0002:000039ec       ??_C@_1M@MDNLKBPM@?$AAd?$AAe?$AA?9?$AAl?$AAi?$AA?$AA@ 100199ec     libucrt:lcidtoname_downlevel.obj
 0002:000039f8       ??_C@_1M@NJBEEJNL@?$AAd?$AAe?$AA?9?$AAl?$AAu?$AA?$AA@ 100199f8     libucrt:lcidtoname_downlevel.obj
 0002:00003a04       ??_C@_1O@GNNELBAP@?$AAd?$AAi?$AAv?$AA?9?$AAm?$AAv?$AA?$AA@ 10019a04     libucrt:lcidtoname_downlevel.obj
 0002:00003a14       ??_C@_1M@EJLEOGAE@?$AAe?$AAl?$AA?9?$AAg?$AAr?$AA?$AA@ 10019a14     libucrt:lcidtoname_downlevel.obj
 0002:00003a20       ??_C@_1M@GMPONJN@?$AAe?$AAn?$AA?9?$AAa?$AAu?$AA?$AA@ 10019a20     libucrt:lcidtoname_downlevel.obj
 0002:00003a2c       ??_C@_1M@NIDIIPGF@?$AAe?$AAn?$AA?9?$AAb?$AAz?$AA?$AA@ 10019a2c     libucrt:lcidtoname_downlevel.obj
 0002:00003a38       ??_C@_1M@JEHMIMFO@?$AAe?$AAn?$AA?9?$AAc?$AAa?$AA?$AA@ 10019a38     libucrt:lcidtoname_downlevel.obj
 0002:00003a44       ??_C@_1M@IGMJCDLA@?$AAe?$AAn?$AA?9?$AAc?$AAb?$AA?$AA@ 10019a44     libucrt:lcidtoname_downlevel.obj
 0002:00003a50       ??_C@_1M@BNFIGBKG@?$AAe?$AAn?$AA?9?$AAg?$AAb?$AA?$AA@ 10019a50     libucrt:lcidtoname_downlevel.obj
 0002:00003a5c       ??_C@_1M@LKIFDIGP@?$AAe?$AAn?$AA?9?$AAi?$AAe?$AA?$AA@ 10019a5c     libucrt:lcidtoname_downlevel.obj
 0002:00003a68       ??_C@_1M@PJKFGCCO@?$AAe?$AAn?$AA?9?$AAj?$AAm?$AA?$AA@ 10019a68     libucrt:lcidtoname_downlevel.obj
 0002:00003a74       ??_C@_1M@KPPKEPBO@?$AAe?$AAn?$AA?9?$AAn?$AAz?$AA?$AA@ 10019a74     libucrt:lcidtoname_downlevel.obj
 0002:00003a80       ??_C@_1M@GMDGLDOB@?$AAe?$AAn?$AA?9?$AAp?$AAh?$AA?$AA@ 10019a80     libucrt:lcidtoname_downlevel.obj
 0002:00003a8c       ??_C@_1M@ONGIBJNA@?$AAe?$AAn?$AA?9?$AAt?$AAt?$AA?$AA@ 10019a8c     libucrt:lcidtoname_downlevel.obj
 0002:00003a98       ??_C@_1M@LLODPCMM@?$AAe?$AAn?$AA?9?$AAu?$AAs?$AA?$AA@ 10019a98     libucrt:lcidtoname_downlevel.obj
 0002:00003aa4       ??_C@_1M@LAKFNPAN@?$AAe?$AAn?$AA?9?$AAz?$AAa?$AA?$AA@ 10019aa4     libucrt:lcidtoname_downlevel.obj
 0002:00003ab0       ??_C@_1M@MFNHNHEO@?$AAe?$AAn?$AA?9?$AAz?$AAw?$AA?$AA@ 10019ab0     libucrt:lcidtoname_downlevel.obj
 0002:00003abc       ??_C@_1M@EJEINPHM@?$AAe?$AAs?$AA?9?$AAa?$AAr?$AA?$AA@ 10019abc     libucrt:lcidtoname_downlevel.obj
 0002:00003ac8       ??_C@_1M@GNKPCCJA@?$AAe?$AAs?$AA?9?$AAb?$AAo?$AA?$AA@ 10019ac8     libucrt:lcidtoname_downlevel.obj
 0002:00003ad4       ??_C@_1M@LEEGFONL@?$AAe?$AAs?$AA?9?$AAc?$AAl?$AA?$AA@ 10019ad4     libucrt:lcidtoname_downlevel.obj
 0002:00003ae0       ??_C@_1M@KGPDPBDF@?$AAe?$AAs?$AA?9?$AAc?$AAo?$AA?$AA@ 10019ae0     libucrt:lcidtoname_downlevel.obj
 0002:00003aec       ??_C@_1M@EIAHOHH@?$AAe?$AAs?$AA?9?$AAc?$AAr?$AA?$AA@ 10019aec     libucrt:lcidtoname_downlevel.obj
 0002:00003af8       ??_C@_1M@LLPGMBIN@?$AAe?$AAs?$AA?9?$AAd?$AAo?$AA?$AA@ 10019af8     libucrt:lcidtoname_downlevel.obj
 0002:00003b04       ??_C@_1M@DKHMKNJA@?$AAe?$AAs?$AA?9?$AAe?$AAc?$AA?$AA@ 10019b04     libucrt:lcidtoname_downlevel.obj
 0002:00003b10       ??_C@_1M@GKGFPKAP@?$AAe?$AAs?$AA?9?$AAe?$AAs?$AA?$AA@ 10019b10     libucrt:lcidtoname_downlevel.obj
 0002:00003b1c       ??_C@_1M@LKHKGDLN@?$AAe?$AAs?$AA?9?$AAg?$AAt?$AA?$AA@ 10019b1c     libucrt:lcidtoname_downlevel.obj
 0002:00003b28       ??_C@_1M@HEIIGGJD@?$AAe?$AAs?$AA?9?$AAh?$AAn?$AA?$AA@ 10019b28     libucrt:lcidtoname_downlevel.obj
 0002:00003b34       ??_C@_1M@FBDHPPGD@?$AAe?$AAs?$AA?9?$AAm?$AAx?$AA?$AA@ 10019b34     libucrt:lcidtoname_downlevel.obj
 0002:00003b40       ??_C@_1M@DPAGLNDH@?$AAe?$AAs?$AA?9?$AAn?$AAi?$AA?$AA@ 10019b40     libucrt:lcidtoname_downlevel.obj
 0002:00003b4c       ??_C@_1M@MDGOPGDD@?$AAe?$AAs?$AA?9?$AAp?$AAa?$AA?$AA@ 10019b4c     libucrt:lcidtoname_downlevel.obj
 0002:00003b58       ??_C@_1M@EMAMGBGE@?$AAe?$AAs?$AA?9?$AAp?$AAe?$AA?$AA@ 10019b58     libucrt:lcidtoname_downlevel.obj
 0002:00003b64       ??_C@_1M@IBMCAOEC@?$AAe?$AAs?$AA?9?$AAp?$AAr?$AA?$AA@ 10019b64     libucrt:lcidtoname_downlevel.obj
 0002:00003b70       ??_C@_1M@FGMDIJED@?$AAe?$AAs?$AA?9?$AAp?$AAy?$AA?$AA@ 10019b70     libucrt:lcidtoname_downlevel.obj
 0002:00003b7c       ??_C@_1M@IIDEOLLL@?$AAe?$AAs?$AA?9?$AAs?$AAv?$AA?$AA@ 10019b7c     libucrt:lcidtoname_downlevel.obj
 0002:00003b88       ??_C@_1M@GAOBIPA@?$AAe?$AAs?$AA?9?$AAu?$AAy?$AA?$AA@ 10019b88     libucrt:lcidtoname_downlevel.obj
 0002:00003b94       ??_C@_1M@JKFFICHJ@?$AAe?$AAs?$AA?9?$AAv?$AAe?$AA?$AA@ 10019b94     libucrt:lcidtoname_downlevel.obj
 0002:00003ba0       ??_C@_1M@PNMLOJDF@?$AAe?$AAt?$AA?9?$AAe?$AAe?$AA?$AA@ 10019ba0     libucrt:lcidtoname_downlevel.obj
 0002:00003bac       ??_C@_1M@GHHLIKEI@?$AAe?$AAu?$AA?9?$AAe?$AAs?$AA?$AA@ 10019bac     libucrt:lcidtoname_downlevel.obj
 0002:00003bb8       ??_C@_1M@PBNONODE@?$AAf?$AAa?$AA?9?$AAi?$AAr?$AA?$AA@ 10019bb8     libucrt:lcidtoname_downlevel.obj
 0002:00003bc4       ??_C@_1M@JEEHPMIL@?$AAf?$AAi?$AA?9?$AAf?$AAi?$AA?$AA@ 10019bc4     libucrt:lcidtoname_downlevel.obj
 0002:00003bd0       ??_C@_1M@LMDCNDBA@?$AAf?$AAo?$AA?9?$AAf?$AAo?$AA?$AA@ 10019bd0     libucrt:lcidtoname_downlevel.obj
 0002:00003bdc       ??_C@_1M@JKEOHLDK@?$AAf?$AAr?$AA?9?$AAb?$AAe?$AA?$AA@ 10019bdc     libucrt:lcidtoname_downlevel.obj
 0002:00003be8       ??_C@_1M@NOHADPMI@?$AAf?$AAr?$AA?9?$AAc?$AAa?$AA?$AA@ 10019be8     libucrt:lcidtoname_downlevel.obj
 0002:00003bf4       ??_C@_1M@KDHIHAEC@?$AAf?$AAr?$AA?9?$AAc?$AAh?$AA?$AA@ 10019bf4     libucrt:lcidtoname_downlevel.obj
 0002:00003c00       ??_C@_1M@MMBBFGAK@?$AAf?$AAr?$AA?9?$AAf?$AAr?$AA?$AA@ 10019c00     libucrt:lcidtoname_downlevel.obj
 0002:00003c0c       ??_C@_1M@PAFNENNF@?$AAf?$AAr?$AA?9?$AAl?$AAu?$AA?$AA@ 10019c0c     libucrt:lcidtoname_downlevel.obj
 0002:00003c18       ??_C@_1M@EOHDJGDD@?$AAf?$AAr?$AA?9?$AAm?$AAc?$AA?$AA@ 10019c18     libucrt:lcidtoname_downlevel.obj
 0002:00003c24       ??_C@_1M@FAPLLOPF@?$AAg?$AAl?$AA?9?$AAe?$AAs?$AA?$AA@ 10019c24     libucrt:lcidtoname_downlevel.obj
 0002:00003c30       ??_C@_1M@FOPBFLOO@?$AAg?$AAu?$AA?9?$AAi?$AAn?$AA?$AA@ 10019c30     libucrt:lcidtoname_downlevel.obj
 0002:00003c3c       ??_C@_1M@KBMCINPM@?$AAh?$AAe?$AA?9?$AAi?$AAl?$AA?$AA@ 10019c3c     libucrt:lcidtoname_downlevel.obj
 0002:00003c48       ??_C@_1M@BBPHKFPJ@?$AAh?$AAi?$AA?9?$AAi?$AAn?$AA?$AA@ 10019c48     libucrt:lcidtoname_downlevel.obj
 0002:00003c54       ??_C@_1M@PMBNDPHD@?$AAh?$AAr?$AA?9?$AAb?$AAa?$AA?$AA@ 10019c54     libucrt:lcidtoname_downlevel.obj
 0002:00003c60       ??_C@_1M@BPCKOEGE@?$AAh?$AAr?$AA?9?$AAh?$AAr?$AA?$AA@ 10019c60     libucrt:lcidtoname_downlevel.obj
 0002:00003c6c       ??_C@_1M@GACBMHKE@?$AAh?$AAu?$AA?9?$AAh?$AAu?$AA?$AA@ 10019c6c     libucrt:lcidtoname_downlevel.obj
 0002:00003c78       ??_C@_1M@MILPAJJC@?$AAh?$AAy?$AA?9?$AAa?$AAm?$AA?$AA@ 10019c78     libucrt:lcidtoname_downlevel.obj
 0002:00003c84       ??_C@_1M@BABBICEC@?$AAi?$AAd?$AA?9?$AAi?$AAd?$AA?$AA@ 10019c84     libucrt:lcidtoname_downlevel.obj
 0002:00003c90       ??_C@_1M@BIKNHHPF@?$AAi?$AAs?$AA?9?$AAi?$AAs?$AA?$AA@ 10019c90     libucrt:lcidtoname_downlevel.obj
 0002:00003c9c       ??_C@_1M@NMPCJPHE@?$AAi?$AAt?$AA?9?$AAc?$AAh?$AA?$AA@ 10019c9c     libucrt:lcidtoname_downlevel.obj
 0002:00003ca8       ??_C@_1M@GHKGFEDF@?$AAi?$AAt?$AA?9?$AAi?$AAt?$AA?$AA@ 10019ca8     libucrt:lcidtoname_downlevel.obj
 0002:00003cb4       ??_C@_1M@NIEJCJJA@?$AAj?$AAa?$AA?9?$AAj?$AAp?$AA?$AA@ 10019cb4     libucrt:lcidtoname_downlevel.obj
 0002:00003cc0       ??_C@_1M@JILFNBIM@?$AAk?$AAa?$AA?9?$AAg?$AAe?$AA?$AA@ 10019cc0     libucrt:lcidtoname_downlevel.obj
 0002:00003ccc       ??_C@_1M@PACPMGPH@?$AAk?$AAk?$AA?9?$AAk?$AAz?$AA?$AA@ 10019ccc     libucrt:lcidtoname_downlevel.obj
 0002:00003cd8       ??_C@_1M@IELFGMHA@?$AAk?$AAn?$AA?9?$AAi?$AAn?$AA?$AA@ 10019cd8     libucrt:lcidtoname_downlevel.obj
 0002:00003ce4       ??_C@_1O@IBBJHCH@?$AAk?$AAo?$AAk?$AA?9?$AAi?$AAn?$AA?$AA@ 10019ce4     libucrt:lcidtoname_downlevel.obj
 0002:00003cf4       ??_C@_1M@DMHAEOGC@?$AAk?$AAo?$AA?9?$AAk?$AAr?$AA?$AA@ 10019cf4     libucrt:lcidtoname_downlevel.obj
 0002:00003d00       ??_C@_1M@HBAHBIGA@?$AAk?$AAy?$AA?9?$AAk?$AAg?$AA?$AA@ 10019d00     libucrt:lcidtoname_downlevel.obj
 0002:00003d0c       ??_C@_1M@KPMILCJG@?$AAl?$AAt?$AA?9?$AAl?$AAt?$AA?$AA@ 10019d0c     libucrt:lcidtoname_downlevel.obj
 0002:00003d18       ??_C@_1M@BDEKKCA@?$AAl?$AAv?$AA?9?$AAl?$AAv?$AA?$AA@ 10019d18     libucrt:lcidtoname_downlevel.obj
 0002:00003d24       ??_C@_1M@ELCKCCJJ@?$AAm?$AAi?$AA?9?$AAn?$AAz?$AA?$AA@ 10019d24     libucrt:lcidtoname_downlevel.obj
 0002:00003d30       ??_C@_1M@CBOOLAPA@?$AAm?$AAk?$AA?9?$AAm?$AAk?$AA?$AA@ 10019d30     libucrt:lcidtoname_downlevel.obj
 0002:00003d3c       ??_C@_1M@GPHNBJKN@?$AAm?$AAl?$AA?9?$AAi?$AAn?$AA?$AA@ 10019d3c     libucrt:lcidtoname_downlevel.obj
 0002:00003d48       ??_C@_1M@PABJILIG@?$AAm?$AAn?$AA?9?$AAm?$AAn?$AA?$AA@ 10019d48     libucrt:lcidtoname_downlevel.obj
 0002:00003d54       ??_C@_1M@FGBKKIPG@?$AAm?$AAr?$AA?9?$AAi?$AAn?$AA?$AA@ 10019d54     libucrt:lcidtoname_downlevel.obj
 0002:00003d60       ??_C@_1M@NDBPDDAL@?$AAm?$AAs?$AA?9?$AAb?$AAn?$AA?$AA@ 10019d60     libucrt:lcidtoname_downlevel.obj
 0002:00003d6c       ??_C@_1M@OPIHOOPI@?$AAm?$AAs?$AA?9?$AAm?$AAy?$AA?$AA@ 10019d6c     libucrt:lcidtoname_downlevel.obj
 0002:00003d78       ??_C@_1M@PPDBCNFM@?$AAm?$AAt?$AA?9?$AAm?$AAt?$AA?$AA@ 10019d78     libucrt:lcidtoname_downlevel.obj
 0002:00003d84       ??_C@_1M@KDJDKMDD@?$AAn?$AAb?$AA?9?$AAn?$AAo?$AA?$AA@ 10019d84     libucrt:lcidtoname_downlevel.obj
 0002:00003d90       ??_C@_1M@KFCFLMJP@?$AAn?$AAl?$AA?9?$AAb?$AAe?$AA?$AA@ 10019d90     libucrt:lcidtoname_downlevel.obj
 0002:00003d9c       ??_C@_1M@KPOPDDGO@?$AAn?$AAl?$AA?9?$AAn?$AAl?$AA?$AA@ 10019d9c     libucrt:lcidtoname_downlevel.obj
 0002:00003da8       ??_C@_1M@LJKPEMLN@?$AAn?$AAn?$AA?9?$AAn?$AAo?$AA?$AA@ 10019da8     libucrt:lcidtoname_downlevel.obj
 0002:00003db4       ??_C@_1M@BDGHHBFL@?$AAn?$AAs?$AA?9?$AAz?$AAa?$AA?$AA@ 10019db4     libucrt:lcidtoname_downlevel.obj
 0002:00003dc0       ??_C@_1M@IDEHOAP@?$AAp?$AAa?$AA?9?$AAi?$AAn?$AA?$AA@ 10019dc0     libucrt:lcidtoname_downlevel.obj
 0002:00003dcc       ??_C@_1M@HDBKGOGH@?$AAp?$AAl?$AA?9?$AAp?$AAl?$AA?$AA@ 10019dcc     libucrt:lcidtoname_downlevel.obj
 0002:00003dd8       ??_C@_1M@LJLLCMEH@?$AAp?$AAt?$AA?9?$AAb?$AAr?$AA?$AA@ 10019dd8     libucrt:lcidtoname_downlevel.obj
 0002:00003de4       ??_C@_1M@NCMONAAL@?$AAp?$AAt?$AA?9?$AAp?$AAt?$AA?$AA@ 10019de4     libucrt:lcidtoname_downlevel.obj
 0002:00003df0       ??_C@_1O@EAKMAJDN@?$AAq?$AAu?$AAz?$AA?9?$AAb?$AAo?$AA?$AA@ 10019df0     libucrt:lcidtoname_downlevel.obj
 0002:00003e00       ??_C@_1O@BHHPIGDN@?$AAq?$AAu?$AAz?$AA?9?$AAe?$AAc?$AA?$AA@ 10019e00     libucrt:lcidtoname_downlevel.obj
 0002:00003e10       ??_C@_1O@GBAPEKMJ@?$AAq?$AAu?$AAz?$AA?9?$AAp?$AAe?$AA?$AA@ 10019e10     libucrt:lcidtoname_downlevel.obj
 0002:00003e20       ??_C@_1M@CLGLEFBO@?$AAr?$AAo?$AA?9?$AAr?$AAo?$AA?$AA@ 10019e20     libucrt:lcidtoname_downlevel.obj
 0002:00003e2c       ??_C@_1M@CEEDODME@?$AAr?$AAu?$AA?9?$AAr?$AAu?$AA?$AA@ 10019e2c     libucrt:lcidtoname_downlevel.obj
 0002:00003e38       ??_C@_1M@HPKKKMPP@?$AAs?$AAa?$AA?9?$AAi?$AAn?$AA?$AA@ 10019e38     libucrt:lcidtoname_downlevel.obj
 0002:00003e44       ??_C@_1M@BKMAIGOJ@?$AAs?$AAe?$AA?9?$AAf?$AAi?$AA?$AA@ 10019e44     libucrt:lcidtoname_downlevel.obj
 0002:00003e50       ??_C@_1M@NDPIFLFI@?$AAs?$AAe?$AA?9?$AAn?$AAo?$AA?$AA@ 10019e50     libucrt:lcidtoname_downlevel.obj
 0002:00003e5c       ??_C@_1M@DANKKHJ@?$AAs?$AAe?$AA?9?$AAs?$AAe?$AA?$AA@ 10019e5c     libucrt:lcidtoname_downlevel.obj
 0002:00003e68       ??_C@_1M@PNBLONPJ@?$AAs?$AAk?$AA?9?$AAs?$AAk?$AA?$AA@ 10019e68     libucrt:lcidtoname_downlevel.obj
 0002:00003e74       ??_C@_1M@LFMODOAL@?$AAs?$AAl?$AA?9?$AAs?$AAi?$AA?$AA@ 10019e74     libucrt:lcidtoname_downlevel.obj
 0002:00003e80       ??_C@_1O@DFKOMPG@?$AAs?$AAm?$AAa?$AA?9?$AAn?$AAo?$AA?$AA@ 10019e80     libucrt:lcidtoname_downlevel.obj
 0002:00003e90       ??_C@_1O@NDKPBNNH@?$AAs?$AAm?$AAa?$AA?9?$AAs?$AAe?$AA?$AA@ 10019e90     libucrt:lcidtoname_downlevel.obj
 0002:00003ea0       ??_C@_1O@PLLKBHAB@?$AAs?$AAm?$AAj?$AA?9?$AAn?$AAo?$AA?$AA@ 10019ea0     libucrt:lcidtoname_downlevel.obj
 0002:00003eb0       ??_C@_1O@CLEPOGCA@?$AAs?$AAm?$AAj?$AA?9?$AAs?$AAe?$AA?$AA@ 10019eb0     libucrt:lcidtoname_downlevel.obj
 0002:00003ec0       ??_C@_1O@DLGJGKMK@?$AAs?$AAm?$AAn?$AA?9?$AAf?$AAi?$AA?$AA@ 10019ec0     libucrt:lcidtoname_downlevel.obj
 0002:00003ed0       ??_C@_1O@OJDJGAJC@?$AAs?$AAm?$AAs?$AA?9?$AAf?$AAi?$AA?$AA@ 10019ed0     libucrt:lcidtoname_downlevel.obj
 0002:00003ee0       ??_C@_1M@BOFOGHPB@?$AAs?$AAq?$AA?9?$AAa?$AAl?$AA?$AA@ 10019ee0     libucrt:lcidtoname_downlevel.obj
 0002:00003eec       ??_C@_1BG@LJBBIPGB@?$AAs?$AAr?$AA?9?$AAb?$AAa?$AA?9?$AAc?$AAy?$AAr?$AAl?$AA?$AA@ 10019eec     libucrt:lcidtoname_downlevel.obj
 0002:00003f04       ??_C@_1BG@JLBENFOE@?$AAs?$AAr?$AA?9?$AAb?$AAa?$AA?9?$AAl?$AAa?$AAt?$AAn?$AA?$AA@ 10019f04     libucrt:lcidtoname_downlevel.obj
 0002:00003f1c       ??_C@_1BG@KODPNHE@?$AAs?$AAr?$AA?9?$AAs?$AAp?$AA?9?$AAc?$AAy?$AAr?$AAl?$AA?$AA@ 10019f1c     libucrt:lcidtoname_downlevel.obj
 0002:00003f34       ??_C@_1BG@CIOGKHPB@?$AAs?$AAr?$AA?9?$AAs?$AAp?$AA?9?$AAl?$AAa?$AAt?$AAn?$AA?$AA@ 10019f34     libucrt:lcidtoname_downlevel.obj
 0002:00003f4c       ??_C@_1M@NGFJLMAC@?$AAs?$AAv?$AA?9?$AAf?$AAi?$AA?$AA@ 10019f4c     libucrt:lcidtoname_downlevel.obj
 0002:00003f58       ??_C@_1M@MPJEJAJC@?$AAs?$AAv?$AA?9?$AAs?$AAe?$AA?$AA@ 10019f58     libucrt:lcidtoname_downlevel.obj
 0002:00003f64       ??_C@_1M@MPNDHLFK@?$AAs?$AAw?$AA?9?$AAk?$AAe?$AA?$AA@ 10019f64     libucrt:lcidtoname_downlevel.obj
 0002:00003f70       ??_C@_1O@KOHBJJI@?$AAs?$AAy?$AAr?$AA?9?$AAs?$AAy?$AA?$AA@ 10019f70     libucrt:lcidtoname_downlevel.obj
 0002:00003f80       ??_C@_1M@LDCEFHA@?$AAt?$AAa?$AA?9?$AAi?$AAn?$AA?$AA@ 10019f80     libucrt:lcidtoname_downlevel.obj
 0002:00003f8c       ??_C@_1M@CNJOFAK@?$AAt?$AAe?$AA?9?$AAi?$AAn?$AA?$AA@ 10019f8c     libucrt:lcidtoname_downlevel.obj
 0002:00003f98       ??_C@_1M@GNAECACD@?$AAt?$AAh?$AA?9?$AAt?$AAh?$AA?$AA@ 10019f98     libucrt:lcidtoname_downlevel.obj
 0002:00003fa4       ??_C@_1M@CHBIHOJO@?$AAt?$AAn?$AA?9?$AAz?$AAa?$AA?$AA@ 10019fa4     libucrt:lcidtoname_downlevel.obj
 0002:00003fb0       ??_C@_1M@GCCMIGPJ@?$AAt?$AAr?$AA?9?$AAt?$AAr?$AA?$AA@ 10019fb0     libucrt:lcidtoname_downlevel.obj
 0002:00003fbc       ??_C@_1M@CELMCNBK@?$AAt?$AAt?$AA?9?$AAr?$AAu?$AA?$AA@ 10019fbc     libucrt:lcidtoname_downlevel.obj
 0002:00003fc8       ??_C@_1M@KLMCELGA@?$AAu?$AAk?$AA?9?$AAu?$AAa?$AA?$AA@ 10019fc8     libucrt:lcidtoname_downlevel.obj
 0002:00003fd4       ??_C@_1M@EPAJJAJF@?$AAu?$AAr?$AA?9?$AAp?$AAk?$AA?$AA@ 10019fd4     libucrt:lcidtoname_downlevel.obj
 0002:00003fe0       ??_C@_1BG@GEGPMCDJ@?$AAu?$AAz?$AA?9?$AAu?$AAz?$AA?9?$AAc?$AAy?$AAr?$AAl?$AA?$AA@ 10019fe0     libucrt:lcidtoname_downlevel.obj
 0002:00003ff8       ??_C@_1BG@EGGKJILM@?$AAu?$AAz?$AA?9?$AAu?$AAz?$AA?9?$AAl?$AAa?$AAt?$AAn?$AA?$AA@ 10019ff8     libucrt:lcidtoname_downlevel.obj
 0002:00004010       ??_C@_1M@GFOCLFF@?$AAv?$AAi?$AA?9?$AAv?$AAn?$AA?$AA@ 1001a010     libucrt:lcidtoname_downlevel.obj
 0002:0000401c       ??_C@_1M@CPAMEDFI@?$AAx?$AAh?$AA?9?$AAz?$AAa?$AA?$AA@ 1001a01c     libucrt:lcidtoname_downlevel.obj
 0002:00004028       ??_C@_1O@EBKIFIGN@?$AAz?$AAh?$AA?9?$AAc?$AAh?$AAs?$AA?$AA@ 1001a028     libucrt:lcidtoname_downlevel.obj
 0002:00004038       ??_C@_1O@NMHPGANE@?$AAz?$AAh?$AA?9?$AAc?$AAh?$AAt?$AA?$AA@ 1001a038     libucrt:lcidtoname_downlevel.obj
 0002:00004048       ??_C@_1M@LPINJOMC@?$AAz?$AAh?$AA?9?$AAc?$AAn?$AA?$AA@ 1001a048     libucrt:lcidtoname_downlevel.obj
 0002:00004054       ??_C@_1M@OCJEJODD@?$AAz?$AAh?$AA?9?$AAh?$AAk?$AA?$AA@ 1001a054     libucrt:lcidtoname_downlevel.obj
 0002:00004060       ??_C@_1M@DNDLJINH@?$AAz?$AAh?$AA?9?$AAm?$AAo?$AA?$AA@ 1001a060     libucrt:lcidtoname_downlevel.obj
 0002:0000406c       ??_C@_1M@MBFDNDND@?$AAz?$AAh?$AA?9?$AAs?$AAg?$AA?$AA@ 1001a06c     libucrt:lcidtoname_downlevel.obj
 0002:00004078       ??_C@_1M@IMEPLEPE@?$AAz?$AAh?$AA?9?$AAt?$AAw?$AA?$AA@ 1001a078     libucrt:lcidtoname_downlevel.obj
 0002:00004084       ??_C@_1M@BBGHNHJP@?$AAz?$AAu?$AA?9?$AAz?$AAa?$AA?$AA@ 1001a084     libucrt:lcidtoname_downlevel.obj
 0002:00004090       ?large_power_data@?1??multiply_by_power_of_ten@__crt_strtox@@YA_NAAUbig_integer@2@I@Z@4QBIB 1001a090     libucrt:cfout.obj
 0002:00004998       ?large_power_indices@?1??multiply_by_power_of_ten@__crt_strtox@@YA_NAAUbig_integer@2@I@Z@4QBUunpack_index@?1??12@YA_N0I@Z@B 1001a998     libucrt:cfout.obj
 0002:00004a30       ?small_powers_of_ten@?1??multiply_by_power_of_ten@__crt_strtox@@YA_NAAUbig_integer@2@I@Z@4QBIB 1001aa30     libucrt:cfout.obj
 0002:00004a54       ??_C@_01GBGANLPD@0?$AA@    1001aa54     libucrt:cfout.obj
 0002:00004a58       ??_C@_05DNEBIAHO@1?$CDINF?$AA@ 1001aa58     libucrt:cfout.obj
 0002:00004a60       ??_C@_06IMKFLFPG@1?$CDQNAN?$AA@ 1001aa60     libucrt:cfout.obj
 0002:00004a68       ??_C@_06PGGFOGJG@1?$CDSNAN?$AA@ 1001aa68     libucrt:cfout.obj
 0002:00004a70       ??_C@_05PHHOCPM@1?$CDIND?$AA@ 1001aa70     libucrt:cfout.obj
 0002:00004a78       ??_C@_1BA@BALFACEM@?$AAC?$AAO?$AAN?$AAO?$AAU?$AAT?$AA$?$AA?$AA@ 1001aa78     libucrt:initcon.obj
 0002:00004bf0       __infinity                 1001abf0     libucrt:87tran.obj
 0002:00004bfa       __minfinity                1001abfa     libucrt:87tran.obj
 0002:00004c04       __logemax                  1001ac04     libucrt:87tran.obj
 0002:00004c2a       __OP_EXPjmptab             1001ac2a     libucrt:87tran.obj
 0002:00004c50       __indefinite               1001ac50     libucrt:87disp.obj
 0002:00004c5a       __piby2                    1001ac5a     libucrt:87disp.obj
 0002:00004c64       __piby4                    1001ac64     libucrt:87disp.obj
 0002:00004c98       __DEFAULT_CW_in_mem        1001ac98     libucrt:common.obj
 0002:00004c9a       __pi_by_2_to_61            1001ac9a     libucrt:common.obj
 0002:00004cd4       ??_C@_03MGHMBJCF@log?$AA@  1001acd4     libucrt:libm_error.obj
 0002:00004cd8       ??_C@_05HGHHAHAP@log10?$AA@ 1001acd8     libucrt:libm_error.obj
 0002:00004ce0       ??_C@_03KHJOGHMM@exp?$AA@  1001ace0     libucrt:libm_error.obj
 0002:00004ce4       ??_C@_03JGHBODFD@pow?$AA@  1001ace4     libucrt:libm_error.obj
 0002:00004ce8       ??_C@_04FIHNOPOL@asin?$AA@ 1001ace8     libucrt:libm_error.obj
 0002:00004cf0       ??_C@_04PDIFKINK@acos?$AA@ 1001acf0     libucrt:libm_error.obj
 0002:00004cf8       ??_C@_04EIAKFFMI@sqrt?$AA@ 1001acf8     libucrt:libm_error.obj
 0002:00004d00       __real@3ff0000000000000    1001ad00     libucrt:libm_error.obj
 0002:00004d20       ___acrt_log10_table_t      1001ad20     libucrt:log10_tables.obj
 0002:00005130       ___acrt_log10_table_cb     1001b130     libucrt:log10_tables.obj
 0002:00005540       __real@3fe0000000000000    1001b540     libucrt:powhlp.obj
 0002:00005630       ??_C@_04COOMCNPB@sinh?$AA@ 1001b630     libucrt:fpexcept.obj
 0002:00005638       ??_C@_04HPJJNFIM@cosh?$AA@ 1001b638     libucrt:fpexcept.obj
 0002:00005640       ??_C@_04FJHINJAO@tanh?$AA@ 1001b640     libucrt:fpexcept.obj
 0002:00005648       ??_C@_04MLLJIGOK@atan?$AA@ 1001b648     libucrt:fpexcept.obj
 0002:00005650       ??_C@_05KNGEOGJB@atan2?$AA@ 1001b650     libucrt:fpexcept.obj
 0002:00005658       ??_C@_03BLEJJJBH@sin?$AA@  1001b658     libucrt:fpexcept.obj
 0002:0000565c       ??_C@_03LALBNOCG@cos?$AA@  1001b65c     libucrt:fpexcept.obj
 0002:00005660       ??_C@_03IIINPABG@tan?$AA@  1001b660     libucrt:fpexcept.obj
 0002:00005664       ??_C@_04GFPJNGEK@ceil?$AA@ 1001b664     libucrt:fpexcept.obj
 0002:0000566c       ??_C@_05PBJFFIGL@floor?$AA@ 1001b66c     libucrt:fpexcept.obj
 0002:00005674       ??_C@_04ODHECPBC@fabs?$AA@ 1001b674     libucrt:fpexcept.obj
 0002:0000567c       ??_C@_04EHEDPDJG@modf?$AA@ 1001b67c     libucrt:fpexcept.obj
 0002:00005684       ??_C@_05CEJMAHNP@ldexp?$AA@ 1001b684     libucrt:fpexcept.obj
 0002:0000568c       ??_C@_05KBKMEMPO@_cabs?$AA@ 1001b68c     libucrt:fpexcept.obj
 0002:00005694       ??_C@_06MEIMCGCF@_hypot?$AA@ 1001b694     libucrt:fpexcept.obj
 0002:0000569c       ??_C@_04KEPJIHGP@fmod?$AA@ 1001b69c     libucrt:fpexcept.obj
 0002:000056a4       ??_C@_05GKKHEGJL@frexp?$AA@ 1001b6a4     libucrt:fpexcept.obj
 0002:000056ac       ??_C@_03MJLDFKDL@_y0?$AA@  1001b6ac     libucrt:fpexcept.obj
 0002:000056b0       ??_C@_03NAKIGLHK@_y1?$AA@  1001b6b0     libucrt:fpexcept.obj
 0002:000056b4       ??_C@_03ONILCKOB@_yn?$AA@  1001b6b4     libucrt:fpexcept.obj
 0002:000056b8       ??_C@_05JGDBENOH@_logb?$AA@ 1001b6b8     libucrt:fpexcept.obj
 0002:000056c0       ??_C@_0L@KDOEJCKC@_nextafter?$AA@ 1001b6c0     libucrt:fpexcept.obj
 0002:000056d0       __d_inf                    1001b6d0     libucrt:util.obj
 0002:000056d8       __d_max                    1001b6d8     libucrt:util.obj
 0002:000056e0       __d_mzero                  1001b6e0     libucrt:util.obj
 0002:000056e8       ??_C@_1BK@DBDEIDLH@?$AAK?$AAE?$AAR?$AAN?$AAE?$AAL?$AA3?$AA2?$AA?4?$AAD?$AAL?$AAL@ 1001b6e8     DelayImp:delayhlp.obj
 0002:00005704       ??_C@_0BI@OMNLIJDB@AcquireSRWLockExclusive@ 1001b704     DelayImp:delayhlp.obj
 0002:0000571c       ??_C@_0BI@HMIEPCNJ@ReleaseSRWLockExclusive@ 1001b71c     DelayImp:delayhlp.obj
 0002:00005734       ___pfnDliFailureHook2      1001b734     DelayImp:delayhk1.obj
 0002:00005738       __load_config_used         1001b738     LIBCMT:loadcfg.obj
 0002:000057d8       ??_C@_02DKCKIIND@?$CFs@    1001b7d8     segfault-handler.obj
 0002:000057dc       ??_C@_0BF@EDIKDHLK@stacktrace?9?$CFd?9?$CFd?4log@ 1001b7dc     segfault-handler.obj
 0002:000057f4       ??_C@_0CM@IGCIFOGD@PID?5?$CFd?5received?5SIGSEGV?5for?5add@ 1001b7f4     segfault-handler.obj
 0002:00005820       ??_C@_0DC@JFBDJOID@NodeSegfaultHandlerNative?3?5Erro@ 1001b820     segfault-handler.obj
 0002:00005858       ??_C@_0EN@KGPKHODO@NodeSegfaultHandlerNative?3?5abou@ 1001b858     segfault-handler.obj
 0002:000058a8       ??_C@_0BA@FOJABFP@registerHandler@ 1001b8a8     segfault-handler.obj
 0002:000058b8       ??_C@_0O@FADPOPJG@causeSegfault@ 1001b8b8     segfault-handler.obj
 0002:000058c8       ??_C@_0GH@MAPPNBBG@c?3?2users?2salki?2desktop?2node_glo@ 1001b8c8     segfault-handler.obj
 0002:00005930       ??_C@_0BB@NKGLAGDL@segfault_handler@ 1001b930     segfault-handler.obj
 0002:00005944       ??_C@_06DAILJAKM@?4local@  1001b944     StackWalker.obj
 0002:0000594c       ??_C@_0N@JPMPBNML@ProgramFiles@ 1001b94c     StackWalker.obj
 0002:0000595c       ??_C@_0CJ@OAOJNLPC@?2Debugging?5Tools?5for?5Windows?2db@ 1001b95c     StackWalker.obj
 0002:00005988       ??_C@_0DA@GLCFFLED@?2Debugging?5Tools?5for?5Windows?564@ 1001b988     StackWalker.obj
 0002:000059b8       ??_C@_0M@OOEJBPPK@dbghelp?4dll@ 1001b9b8     StackWalker.obj
 0002:000059c4       ??_C@_0O@MCMFENKA@SymInitialize@ 1001b9c4     StackWalker.obj
 0002:000059d4       ??_C@_0L@GDMHENGB@SymCleanup@ 1001b9d4     StackWalker.obj
 0002:000059e0       ??_C@_0M@FJINHFIC@StackWalk64@ 1001b9e0     StackWalker.obj
 0002:000059ec       ??_C@_0O@KGBKFDLO@SymGetOptions@ 1001b9ec     StackWalker.obj
 0002:000059fc       ??_C@_0O@LIDFOEPH@SymSetOptions@ 1001b9fc     StackWalker.obj
 0002:00005a0c       ??_C@_0BJ@OOGADJNM@SymFunctionTableAccess64@ 1001ba0c     StackWalker.obj
 0002:00005a28       ??_C@_0BF@GMMDJHID@SymGetLineFromAddr64@ 1001ba28     StackWalker.obj
 0002:00005a40       ??_C@_0BD@JCAKOMOK@SymGetModuleBase64@ 1001ba40     StackWalker.obj
 0002:00005a54       ??_C@_0BD@KGOGPCFD@SymGetModuleInfo64@ 1001ba54     StackWalker.obj
 0002:00005a68       ??_C@_0BE@BJGOIHCO@SymGetSymFromAddr64@ 1001ba68     StackWalker.obj
 0002:00005a7c       ??_C@_0BF@BFOGGJKE@UnDecorateSymbolName@ 1001ba7c     StackWalker.obj
 0002:00005a94       ??_C@_0BA@EEINJJDN@SymLoadModule64@ 1001ba94     StackWalker.obj
 0002:00005aa4       ??_C@_0BB@OLAHHPEK@SymGetSearchPath@ 1001baa4     StackWalker.obj
 0002:00005ab8       ??_C@_0N@MDJJJHMB@kernel32?4dll@ 1001bab8     StackWalker.obj
 0002:00005ac8       ??_C@_0N@POEJCLDI@tlhelp32?4dll@ 1001bac8     StackWalker.obj
 0002:00005ad8       ??_C@_0BJ@JEFKDHMD@CreateToolhelp32Snapshot@ 1001bad8     StackWalker.obj
 0002:00005af4       ??_C@_0O@CNMFJJGO@Module32First@ 1001baf4     StackWalker.obj
 0002:00005b04       ??_C@_0N@KIGOLBLC@Module32Next@ 1001bb04     StackWalker.obj
 0002:00005b14       ??_C@_09LOPACEED@psapi?4dll@ 1001bb14     StackWalker.obj
 0002:00005b20       ??_C@_0BD@FIEJBLME@EnumProcessModules@ 1001bb20     StackWalker.obj
 0002:00005b34       ??_C@_0BF@OFAHHCBJ@GetModuleFileNameExA@ 1001bb34     StackWalker.obj
 0002:00005b4c       ??_C@_0BD@OMILCNII@GetModuleBaseNameA@ 1001bb4c     StackWalker.obj
 0002:00005b60       ??_C@_0BF@OCLFCNKN@GetModuleInformation@ 1001bb60     StackWalker.obj
 0002:00005b78       ??_C@_09ONCFJJLD@?9unknown?9@ 1001bb78     StackWalker.obj
 0002:00005b84       ??_C@_0M@OJJJNDFL@?9nosymbols?9@ 1001bb84     StackWalker.obj
 0002:00005b90       ??_C@_04DHMNHLOB@COFF@     1001bb90     StackWalker.obj
 0002:00005b98       ??_C@_02JOIDOPKG@CV@       1001bb98     StackWalker.obj
 0002:00005b9c       ??_C@_03KAGKCHNK@PDB@      1001bb9c     StackWalker.obj
 0002:00005ba0       ??_C@_0L@FNNPFLEB@?9exported?9@ 1001bba0     StackWalker.obj
 0002:00005bac       ??_C@_0L@HOHGAHBL@?9deferred?9@ 1001bbac     StackWalker.obj
 0002:00005bb8       ??_C@_03CBLJKENI@SYM@      1001bbb8     StackWalker.obj
 0002:00005bbc       ??_C@_07IBLOOMDG@Virtual@  1001bbbc     StackWalker.obj
 0002:00005bc4       ??_C@_03FMOECHIC@DIA@      1001bbc4     StackWalker.obj
 0002:00005bc8       ??_C@_01ICJEACDI@?$DL@     1001bbc8     StackWalker.obj
 0002:00005bcc       ??_C@_02ONPKCDP@?4?$DL@    1001bbcc     StackWalker.obj
 0002:00005bd0       ??_C@_0BA@HHHENEGO@_NT_SYMBOL_PATH@ 1001bbd0     StackWalker.obj
 0002:00005be0       ??_C@_0BK@MIFNLCP@_NT_ALTERNATE_SYMBOL_PATH@ 1001bbe0     StackWalker.obj
 0002:00005bfc       ??_C@_0L@CLNGBNDK@SYSTEMROOT@ 1001bbfc     StackWalker.obj
 0002:00005c08       ??_C@_09NLJMNJNO@?2system32@ 1001bc08     StackWalker.obj
 0002:00005c14       ??_C@_0M@CADJINOI@SYSTEMDRIVE@ 1001bc14     StackWalker.obj
 0002:00005c20       ??_C@_04CADAOEPK@SRV?$CK@  1001bc20     StackWalker.obj
 0002:00005c28       ??_C@_0M@FDEMLHN@?2websymbols@ 1001bc28     StackWalker.obj
 0002:00005c34       ??_C@_0CN@BFJEBILP@?$CKhttp?3?1?1msdl?4microsoft?4com?1down@ 1001bc34     StackWalker.obj
 0002:00005c64       ??_C@_0DO@OCDHOHKO@SRV?$CKc?3?2websymbols?$CKhttp?3?1?1msdl?4m@ 1001bc64     StackWalker.obj
 0002:00005ca4       ??_C@_0DN@MLHFHHNE@?$CFs?3?$CFs?5?$CI?$CFp?$CJ?0?5size?3?5?$CFd?5?$CIresult?3?5?$CF@ 1001bca4     StackWalker.obj
 0002:00005ce8       ??_C@_0FH@IJDGKCJO@?$CFs?3?$CFs?5?$CI?$CFp?$CJ?0?5size?3?5?$CFd?5?$CIresult?3?5?$CF@ 1001bce8     StackWalker.obj
 0002:00005d40       ??_C@_0BO@INCGDHDD@?$CIfunction?9name?5not?5available?$CJ@ 1001bd40     StackWalker.obj
 0002:00005d60       ??_C@_0BJ@NHFHHCKH@?$CIfilename?5not?5available?$CJ@ 1001bd60     StackWalker.obj
 0002:00005d7c       ??_C@_0BM@DPKBEDBA@?$CImodule?9name?5not?5available?$CJ@ 1001bd7c     StackWalker.obj
 0002:00005d98       ??_C@_0BB@ILHFHNHL@?$CFp?5?$CI?$CFs?$CJ?3?5?$CFs?3?5?$CFs?6@ 1001bd98     StackWalker.obj
 0002:00005dac       ??_C@_0N@EOGOKBMO@?$CFs?5?$CI?$CFd?$CJ?3?5?$CFs?6@ 1001bdac     StackWalker.obj
 0002:00005dc0       ??_C@_0EC@OKMJHILG@SymInit?3?5Symbol?9SearchPath?3?5?8?$CFs@ 1001bdc0     StackWalker.obj
 0002:00005e04       ??_C@_0CF@NHJHAJJG@OS?9Version?3?5?$CFd?4?$CFd?4?$CFd?5?$CI?$CFs?$CJ?50x?$CFx?9@ 1001be04     StackWalker.obj
 0002:00005e2c       ??_7StackWalker@@6B@       1001be2c     StackWalker.obj
 0002:00005e40       ??_C@_08HCOMDCCD@iojs?4exe@ 1001be40     win_delay_load_hook.obj
 0002:00005e4c       ??_C@_08JDDNMFDB@node?4exe@ 1001be4c     win_delay_load_hook.obj
 0002:00005e58       ___pfnDliNotifyHook2       1001be58     win_delay_load_hook.obj
 0002:00005ed0       ??_R4exception@std@@6B@    1001bed0     LIBCMT:throw_bad_alloc.obj
 0002:00005ee4       ??_R3exception@std@@8      1001bee4     LIBCMT:throw_bad_alloc.obj
 0002:00005ef4       ??_R2exception@std@@8      1001bef4     LIBCMT:throw_bad_alloc.obj
 0002:00005efc       ??_R1A@?0A@EA@exception@std@@8 1001befc     LIBCMT:throw_bad_alloc.obj
 0002:00005f18       ??_R4bad_alloc@std@@6B@    1001bf18     LIBCMT:throw_bad_alloc.obj
 0002:00005f2c       ??_R3bad_alloc@std@@8      1001bf2c     LIBCMT:throw_bad_alloc.obj
 0002:00005f3c       ??_R2bad_alloc@std@@8      1001bf3c     LIBCMT:throw_bad_alloc.obj
 0002:00005f48       ??_R1A@?0A@EA@bad_alloc@std@@8 1001bf48     LIBCMT:throw_bad_alloc.obj
 0002:00005f64       ??_R4bad_array_new_length@std@@6B@ 1001bf64     LIBCMT:throw_bad_alloc.obj
 0002:00005f78       ??_R3bad_array_new_length@std@@8 1001bf78     LIBCMT:throw_bad_alloc.obj
 0002:00005f88       ??_R2bad_array_new_length@std@@8 1001bf88     LIBCMT:throw_bad_alloc.obj
 0002:00005f98       ??_R1A@?0A@EA@bad_array_new_length@std@@8 1001bf98     LIBCMT:throw_bad_alloc.obj
 0002:00005fb4       ??_R4type_info@@6B@        1001bfb4     LIBCMT:std_type_info_static.obj
 0002:00005fc8       ??_R3type_info@@8          1001bfc8     LIBCMT:std_type_info_static.obj
 0002:00005fd8       ??_R2type_info@@8          1001bfd8     LIBCMT:std_type_info_static.obj
 0002:00005fe0       ??_R1A@?0A@EA@type_info@@8 1001bfe0     LIBCMT:std_type_info_static.obj
 0002:00006000       ___safe_se_handler_table   1001c000     <linker-defined>
 0002:000063c0       ___rtc_iaa                 1001c3c0     LIBCMT:initsect.obj
 0002:000063c4       ___rtc_izz                 1001c3c4     LIBCMT:initsect.obj
 0002:000063c8       ___rtc_taa                 1001c3c8     LIBCMT:initsect.obj
 0002:000063cc       ___rtc_tzz                 1001c3cc     LIBCMT:initsect.obj
 0002:0000642c       __TI2?AVbad_alloc@std@@    1001c42c     LIBCMT:throw_bad_alloc.obj
 0002:0000643c       __CTA2?AVbad_alloc@std@@   1001c43c     LIBCMT:throw_bad_alloc.obj
 0002:00006448       __CT??_R0?AVbad_alloc@std@@@8??0bad_alloc@std@@QAE@ABV01@@Z12 1001c448     LIBCMT:throw_bad_alloc.obj
 0002:00006464       __CT??_R0?AVexception@std@@@8??0exception@std@@QAE@ABV01@@Z12 1001c464     LIBCMT:throw_bad_alloc.obj
 0002:00006480       __TI3?AVbad_array_new_length@std@@ 1001c480     LIBCMT:throw_bad_alloc.obj
 0002:00006490       __CTA3?AVbad_array_new_length@std@@ 1001c490     LIBCMT:throw_bad_alloc.obj
 0002:000064a0       __CT??_R0?AVbad_array_new_length@std@@@8??0bad_array_new_length@std@@QAE@ABV01@@Z12 1001c4a0     LIBCMT:throw_bad_alloc.obj
 0002:0000689c       __DELAY_IMPORT_DESCRIPTOR_node_exe 1001c89c     node:node.exe
 0002:000068bc       __NULL_DELAY_IMPORT_DESCRIPTOR 1001c8bc     node:node.exe
 0002:00006940       \177node_NULL_THUNK_DATA_DLN 1001c940     node:node.exe
 0002:00006fe4       \177node_NULL_THUNK_DATA_DLB 1001cfe4     node:node.exe
 0002:000070b4       __IMPORT_DESCRIPTOR_KERNEL32 1001d0b4     kernel32:KERNEL32.dll
 0002:000070c8       __IMPORT_DESCRIPTOR_ADVAPI32 1001d0c8     advapi32:ADVAPI32.dll
 0002:000070dc       __IMPORT_DESCRIPTOR_VERSION 1001d0dc     version:VERSION.dll
 0002:000070f0       __NULL_IMPORT_DESCRIPTOR   1001d0f0     kernel32:KERNEL32.dll
 0003:00000000       ___security_cookie_complement 1001e000     LIBCMT:gs_cookie.obj
 0003:00000004       ___security_cookie         1001e004     LIBCMT:gs_cookie.obj
 0003:00000008       ___scrt_native_dllmain_reason 1001e008     LIBCMT:utility.obj
 0003:00000010       ___isa_enabled             1001e010     LIBCMT:cpu_disp.obj
 0003:00000030       __NLG_Destination          1001e030     libvcruntime:exsup.obj
 0003:00000040       __iob                      1001e040     libucrt:_file.obj
 0003:000000f0       ___abort_behavior          1001e0f0     libucrt:abort.obj
 0003:00000100       ___badioinfo               1001e100     libucrt:ioinit.obj
 0003:00000140       __lookuptrailbytes         1001e140     libucrt:read.obj
 0003:00000240       ___acrt_initial_locale_data 1001e240     libucrt:nlsdata.obj
 0003:000002f8       ___acrt_initial_locale_pointers 1001e2f8     libucrt:nlsdata.obj
 0003:00000300       ___acrt_wide_c_locale_string 1001e300     libucrt:nlsdata.obj
 0003:00000308       ___acrt_initial_multibyte_data 1001e308     libucrt:mbctype.obj
 0003:00000828       ___globallocalestatus      1001e828     libucrt:glstatus.obj
 0003:00000830       ___acrt_lconv_c            1001e830     libucrt:localeconv.obj
 0003:00000880       ___acrt_lconv_static_decimal 1001e880     libucrt:localeconv.obj
 0003:00000884       ___acrt_lconv_static_W_decimal 1001e884     libucrt:localeconv.obj
 0003:00000890       __fltused                  1001e890     LIBCMT:fltused.obj
 0003:000008c4       ??_R0?AVbad_alloc@std@@@8  1001e8c4     LIBCMT:throw_bad_alloc.obj
 0003:000008e0       ??_R0?AVexception@std@@@8  1001e8e0     LIBCMT:throw_bad_alloc.obj
 0003:000008fc       ??_R0?AVbad_array_new_length@std@@@8 1001e8fc     LIBCMT:throw_bad_alloc.obj
 0003:00000924       ??_R0?AVtype_info@@@8      1001e924     LIBCMT:std_type_info_static.obj
 0003:0000093c       __imp_?Value@External@v8@@QBEPAXXZ 1001e93c     node:node.exe
 0003:00000940       __imp_?New@External@v8@@SA?AV?$Local@VExternal@v8@@@2@PAVIsolate@2@PAX@Z 1001e940     node:node.exe
 0003:00000944       __imp_?GetCurrentContext@Isolate@v8@@QAE?AV?$Local@VContext@v8@@@2@XZ 1001e944     node:node.exe
 0003:00000948       __imp_?GetCurrent@Isolate@v8@@SAPAV12@XZ 1001e948     node:node.exe
 0003:0000094c       __imp_?CreateHandle@HandleScope@v8@@KAPAPAVObject@internal@2@PAVIsolate@42@PAV342@@Z 1001e94c     node:node.exe
 0003:00000950       __imp_?CreateHandle@HandleScope@v8@@CAPAPAVObject@internal@2@PAVHeapObject@42@PAV342@@Z 1001e950     node:node.exe
 0003:00000954       __imp_??1HandleScope@v8@@QAE@XZ 1001e954     node:node.exe
 0003:00000958       __imp_??0HandleScope@v8@@QAE@PAVIsolate@1@@Z 1001e958     node:node.exe
 0003:0000095c       __imp_?SetClassName@FunctionTemplate@v8@@QAEXV?$Local@VString@v8@@@2@@Z 1001e95c     node:node.exe
 0003:00000960       __imp_?GetFunction@FunctionTemplate@v8@@QAE?AV?$MaybeLocal@VFunction@v8@@@2@V?$Local@VContext@v8@@@2@@Z 1001e960     node:node.exe
 0003:00000964       __imp_?New@FunctionTemplate@v8@@SA?AV?$Local@VFunctionTemplate@v8@@@2@PAVIsolate@2@P6AXABV?$FunctionCallbackInfo@VValue@v8@@@2@@ZV?$Local@VValue@v8@@@2@V?$Local@VSignature@v8@@@2@HW4ConstructorBehavior@2@W4SideEffectType@2@@Z 1001e964     node:node.exe
 0003:00000968       __imp_?ToLocalEmpty@V8@v8@@CAXXZ 1001e968     node:node.exe
 0003:0000096c       __imp_?Escape@EscapableHandleScope@v8@@AAEPAPAVObject@internal@2@PAPAV342@@Z 1001e96c     node:node.exe
 0003:00000970       __imp_??0EscapableHandleScope@v8@@QAE@PAVIsolate@1@@Z 1001e970     node:node.exe
 0003:00000974       __imp_??1Utf8Value@String@v8@@QAE@XZ 1001e974     node:node.exe
 0003:00000978       __imp_??0Utf8Value@String@v8@@QAE@V?$Local@VValue@v8@@@2@@Z 1001e978     node:node.exe
 0003:0000097c       __imp_?NewFromUtf8@String@v8@@SA?AV?$MaybeLocal@VString@v8@@@2@PAVIsolate@2@PBDW4NewStringType@2@H@Z 1001e97c     node:node.exe
 0003:00000980       __imp_?SlowGetInternalField@Object@v8@@AAE?AV?$Local@VValue@v8@@@2@H@Z 1001e980     node:node.exe
 0003:00000984       __imp_?SetInternalField@Object@v8@@QAEXHV?$Local@VValue@v8@@@2@@Z 1001e984     node:node.exe
 0003:00000988       __imp_?Set@Object@v8@@QAE_NV?$Local@VValue@v8@@@2@0@Z 1001e988     node:node.exe
 0003:0000098c       __imp_?SetInternalFieldCount@ObjectTemplate@v8@@QAEXH@Z 1001e98c     node:node.exe
 0003:00000990       __imp_?NewInstance@ObjectTemplate@v8@@QAE?AV?$MaybeLocal@VObject@v8@@@2@V?$Local@VContext@v8@@@2@@Z 1001e990     node:node.exe
 0003:00000994       __imp_?New@ObjectTemplate@v8@@SA?AV?$Local@VObjectTemplate@v8@@@2@PAVIsolate@2@V?$Local@VFunctionTemplate@v8@@@2@@Z 1001e994     node:node.exe
 0003:00000998       __imp__node_module_register 1001e998     node:node.exe
 0003:0000099c       __imp_?ToString@Value@v8@@QBE?AV?$Local@VString@v8@@@2@XZ 1001e99c     node:node.exe
 0003:000009a0       \177node_NULL_THUNK_DATA_DLA 1001e9a0     node:node.exe
 0003:000009a8       __hmod__node_exe           1001e9a8     node:node.exe
 0003:00000cd0       ?__type_info_root_node@@3U__type_info_node@@A 1001ecd0     LIBCMT:tncleanup.obj
 0003:00000cd8       ?_OptionsStorage@?1??__local_stdio_scanf_options@@9@4_KA 1001ecd8     LIBCMT:default_local_stdio_options.obj
 0003:00000ce0       ___scrt_current_native_startup_state 1001ece0     LIBCMT:utility.obj
 0003:00000ce4       ___scrt_native_startup_lock 1001ece4     LIBCMT:utility.obj
 0003:00000d04       ___scrt_debugger_hook_flag 1001ed04     LIBCMT:utility_desktop.obj
 0003:00000d08       ___isa_available           1001ed08     LIBCMT:cpu_disp.obj
 0003:00000d0c       ___favor                   1001ed0c     LIBCMT:cpu_disp.obj
 0003:00000d10       ?pArgList@UnDecorator@@0PAVReplicator@@A 1001ed10     libvcruntime:undname.obj
 0003:00000d14       ?pZNameList@UnDecorator@@0PAVReplicator@@A 1001ed14     libvcruntime:undname.obj
 0003:00000d18       ?pTemplateArgList@UnDecorator@@0PAVReplicator@@A 1001ed18     libvcruntime:undname.obj
 0003:00000d1c       ?gName@UnDecorator@@0PBDB  1001ed1c     libvcruntime:undname.obj
 0003:00000d20       ?name@UnDecorator@@0PBDB   1001ed20     libvcruntime:undname.obj
 0003:00000d24       ?disableFlags@UnDecorator@@0KA 1001ed24     libvcruntime:undname.obj
 0003:00000d28       ?fExplicitTemplateParams@UnDecorator@@0_NA 1001ed28     libvcruntime:undname.obj
 0003:00000d29       ?fGetTemplateArgumentList@UnDecorator@@0_NA 1001ed29     libvcruntime:undname.obj
 0003:00000d2c       ?m_pGetParameter@UnDecorator@@0P6APADJ@ZA 1001ed2c     libvcruntime:undname.obj
 0003:00000d30       ?m_CHPENameOffset@UnDecorator@@0KA 1001ed30     libvcruntime:undname.obj
 0003:00000d34       ?m_recursionLevel@UnDecorator@@0KA 1001ed34     libvcruntime:undname.obj
 0003:00000db0       ___pPurecall               1001edb0     libvcruntime:purevirt_data.obj
 0003:00000db4       ?__WinRTOutOfMemoryExceptionCallback@@3P6GPAXXZA 1001edb4     libvcruntime:ehhelpers.obj
 0003:00000db8       __nstream                  1001edb8     libucrt:_file.obj
 0003:00000dbc       ___piob                    1001edbc     libucrt:_file.obj
 0003:00000dc0       __cflush                   1001edc0     libucrt:_file.obj
 0003:00000dd0       ?c_exit_complete@?1???R<lambda_6e4b09c48022b2350581041d5f6b0c4c>@@QBE@XZ@4_NA 1001edd0     libucrt:exit.obj
 0003:00000ee0       __environ_table            1001eee0     libucrt:environment_initialization.obj
 0003:00000ee4       __wenviron_table           1001eee4     libucrt:environment_initialization.obj
 0003:00000ee8       ___dcrt_initial_wide_environment 1001eee8     libucrt:environment_initialization.obj
 0003:00000eec       ___dcrt_initial_narrow_environment 1001eeec     libucrt:environment_initialization.obj
 0003:00000ef0       ___acrt_atexit_table       1001eef0     libucrt:onexit.obj
 0003:00000efc       ___acrt_at_quick_exit_table 1001eefc     libucrt:onexit.obj
 0003:00000fe8       ___pioinfo                 1001efe8     libucrt:ioinit.obj
 0003:000011e8       __nhandle                  1001f1e8     libucrt:ioinit.obj
 0003:000011ec       ___acrt_locale_changed_data 1001f1ec     libucrt:wsetlocale.obj
 0003:000011f0       ___acrt_current_locale_data 1001f1f0     libucrt:nlsdata.obj
 0003:000011f4       __umaskval                 1001f1f4     libucrt:umask.obj
 0003:00001204       ___acrt_stdout_buffer      1001f204     libucrt:_sftbuf.obj
 0003:00001208       ___acrt_stderr_buffer      1001f208     libucrt:_sftbuf.obj
 0003:00001364       ___acrt_current_multibyte_data 1001f364     libucrt:mbctype.obj
 0003:00001368       __mbctype                  1001f368     libucrt:mbctype.obj
 0003:0000136c       __mbcasemap                1001f36c     libucrt:mbctype.obj
 0003:00001378       __pgmptr                   1001f378     libucrt:argv_data.obj
 0003:0000137c       ___argc                    1001f37c     libucrt:argv_data.obj
 0003:00001380       ___argv                    1001f380     libucrt:argv_data.obj
 0003:00001384       ___wargv                   1001f384     libucrt:argv_data.obj
 0003:00001388       __acmdln                   1001f388     libucrt:argv_data.obj
 0003:0000138c       __wcmdln                   1001f38c     libucrt:argv_data.obj
 0003:00001390       ___acrt_heap               1001f390     libucrt:heap_handle.obj
 0003:000013ac       __fmode                    1001f3ac     libucrt:txtmode.obj
 0003:000013b4       ___acrt_lconv_static_null  1001f3b4     libucrt:localeconv.obj
 0003:000013b8       ___acrt_lconv_static_W_null 1001f3b8     libucrt:localeconv.obj
 0003:000013c4       ___fastflag                1001f3c4     libucrt:fp_flags.obj
 0003:000013cc       ?DloadKernel32@@3PAUHINSTANCE__@@A 1001f3cc     DelayImp:delayhlp.obj
 0003:000013d0       ?DloadAcquireSRWLockExclusive@@3P6GXPAK@ZA 1001f3d0     DelayImp:delayhlp.obj
 0003:000013d4       ?DloadReleaseSRWLockExclusive@@3P6GXPAK@ZA 1001f3d4     DelayImp:delayhlp.obj
 0003:000013d8       ?DloadSrwLock@@3KA         1001f3d8     DelayImp:delayhlp.obj
 0003:000013dc       ?DloadSectionLockCount@@3KA 1001f3dc     DelayImp:delayhlp.obj
 0003:000013e0       ?DloadSectionOldProtection@@3KA 1001f3e0     DelayImp:delayhlp.obj
 0003:000013e4       ?DloadSectionCommitPermanent@@3KA 1001f3e4     DelayImp:delayhlp.obj
 0003:000013e8       ?_OptionsStorage@?1??__local_stdio_printf_options@@9@4_KA 1001f3e8     segfault-handler.obj
 0003:000013f0       ?logPath@@3PADA            1001f3f0     segfault-handler.obj
 0003:00001478       ___scrt_ucrt_dll_is_in_use 1001f478     <common>
 0003:0000147c       ___dyn_tls_init_callback   1001f47c     <common>
 0003:00001480       __pmatherr                 1001f480     <common>
 0003:00001484       ___use_sse2_mathfcns       1001f484     <common>

 entry point at        0001:00002641

 Static symbols

 0000:fffdd000       .debug$S                   10000000     kernel32:KERNEL32.dll
 0000:fffdd000       .debug$S                   10000000     version:VERSION.dll
 0000:fffdd000       .debug$S                   10000000     kernel32:KERNEL32.dll
 0000:fffdd000       .debug$S                   10000000     kernel32:KERNEL32.dll
 0000:fffdd000       .debug$S                   10000000     version:VERSION.dll
 0000:fffdd000       .debug$S                   10000000     version:VERSION.dll
 0000:fffdd000       .debug$S                   10000000     kernel32:KERNEL32.dll
 0000:fffdd000       .debug$S                   10000000     node:node.exe
 0000:fffdd000       .debug$S                   10000000     node:node.exe
 0000:fffdd000       .debug$S                   10000000     kernel32:KERNEL32.dll
 0000:fffdd000       .debug$S                   10000000     kernel32:KERNEL32.dll
 0000:fffdd000       .debug$S                   10000000     kernel32:KERNEL32.dll
 0000:fffdd000       .debug$S                   10000000     kernel32:KERNEL32.dll
 0000:fffdd000       .debug$S                   10000000     kernel32:KERNEL32.dll
 0000:fffdd000       .debug$S                   10000000     segfault-handler.exp
 0000:fffdd000       .debug$S                   10000000     kernel32:KERNEL32.dll
 0000:fffdd000       .debug$S                   10000000     kernel32:KERNEL32.dll
 0000:fffdd000       .debug$S                   10000000     kernel32:KERNEL32.dll
 0000:fffdd000       .debug$S                   10000000     kernel32:KERNEL32.dll
 0000:fffdd000       .debug$S                   10000000     kernel32:KERNEL32.dll
 0000:fffdd000       .debug$S                   10000000     kernel32:KERNEL32.dll
 0000:fffdd000       .debug$S                   10000000     kernel32:KERNEL32.dll
 0000:fffdd000       .debug$S                   10000000     kernel32:KERNEL32.dll
 0000:fffdd000       .debug$S                   10000000     kernel32:KERNEL32.dll
 0000:fffdd000       .debug$S                   10000000     kernel32:KERNEL32.dll
 0000:fffdd000       .debug$S                   10000000     kernel32:KERNEL32.dll
 0000:fffdd000       .debug$S                   10000000     kernel32:KERNEL32.dll
 0000:fffdd000       .debug$S                   10000000     kernel32:KERNEL32.dll
 0000:fffdd000       .debug$S                   10000000     kernel32:KERNEL32.dll
 0000:fffdd000       .debug$S                   10000000     kernel32:KERNEL32.dll
 0000:fffdd000       .debug$S                   10000000     advapi32:ADVAPI32.dll
 0000:fffdd000       .debug$S                   10000000     node:node.exe
 0000:fffdd000       .debug$S                   10000000     node:node.exe
 0000:fffdd000       .debug$S                   10000000     kernel32:KERNEL32.dll
 0000:fffdd000       .debug$S                   10000000     kernel32:KERNEL32.dll
 0000:fffdd000       .debug$S                   10000000     kernel32:KERNEL32.dll
 0000:fffdd000       .debug$S                   10000000     kernel32:KERNEL32.dll
 0000:fffdd000       .debug$S                   10000000     kernel32:KERNEL32.dll
 0000:fffdd000       .debug$S                   10000000     kernel32:KERNEL32.dll
 0000:fffdd000       .debug$S                   10000000     kernel32:KERNEL32.dll
 0000:fffdd000       .debug$S                   10000000     kernel32:KERNEL32.dll
 0000:fffdd000       .debug$S                   10000000     kernel32:KERNEL32.dll
 0000:fffdd000       .debug$S                   10000000     kernel32:KERNEL32.dll
 0000:fffdd000       .debug$S                   10000000     kernel32:KERNEL32.dll
 0000:fffdd000       .debug$S                   10000000     kernel32:KERNEL32.dll
 0000:fffdd000       .debug$S                   10000000     kernel32:KERNEL32.dll
 0000:fffdd000       .debug$S                   10000000     kernel32:KERNEL32.dll
 0000:fffdd000       .debug$S                   10000000     kernel32:KERNEL32.dll
 0000:fffdd000       .debug$S                   10000000     kernel32:KERNEL32.dll
 0000:fffdd000       .debug$S                   10000000     kernel32:KERNEL32.dll
 0000:fffdd000       .debug$S                   10000000     kernel32:KERNEL32.dll
 0000:fffdd000       .debug$S                   10000000     kernel32:KERNEL32.dll
 0000:fffdd000       .debug$S                   10000000     kernel32:KERNEL32.dll
 0000:fffdd000       .debug$S                   10000000     kernel32:KERNEL32.dll
 0000:fffdd000       .debug$S                   10000000     kernel32:KERNEL32.dll
 0000:fffdd000       .debug$S                   10000000     kernel32:KERNEL32.dll
 0000:fffdd000       .debug$S                   10000000     kernel32:KERNEL32.dll
 0000:fffdd000       .debug$S                   10000000     kernel32:KERNEL32.dll
 0000:fffdd000       .debug$S                   10000000     kernel32:KERNEL32.dll
 0000:fffdd000       .debug$S                   10000000     kernel32:KERNEL32.dll
 0000:fffdd000       .debug$S                   10000000     kernel32:KERNEL32.dll
 0000:fffdd000       .debug$S                   10000000     kernel32:KERNEL32.dll
 0000:fffdd000       .debug$S                   10000000     kernel32:KERNEL32.dll
 0000:fffdd000       .debug$S                   10000000     kernel32:KERNEL32.dll
 0000:fffdd000       .debug$S                   10000000     kernel32:KERNEL32.dll
 0000:fffdd000       .debug$S                   10000000     kernel32:KERNEL32.dll
 0000:fffdd000       .debug$S                   10000000     kernel32:KERNEL32.dll
 0000:fffdd000       .debug$S                   10000000     kernel32:KERNEL32.dll
 0000:fffdd000       .debug$S                   10000000     kernel32:KERNEL32.dll
 0000:fffdd000       .debug$S                   10000000     kernel32:KERNEL32.dll
 0000:fffdd000       .debug$S                   10000000     kernel32:KERNEL32.dll
 0000:fffdd000       .debug$S                   10000000     kernel32:KERNEL32.dll
 0000:fffdd000       .debug$S                   10000000     kernel32:KERNEL32.dll
 0000:fffdd000       .debug$S                   10000000     kernel32:KERNEL32.dll
 0000:fffdd000       .debug$S                   10000000     kernel32:KERNEL32.dll
 0000:fffdd000       .debug$S                   10000000     kernel32:KERNEL32.dll
 0000:fffdd000       .debug$S                   10000000     kernel32:KERNEL32.dll
 0000:fffdd000       .debug$S                   10000000     kernel32:KERNEL32.dll
 0000:fffdd000       .debug$S                   10000000     kernel32:KERNEL32.dll
 0000:fffdd000       .debug$S                   10000000     kernel32:KERNEL32.dll
 0000:fffdd000       .debug$S                   10000000     kernel32:KERNEL32.dll
 0000:fffdd000       .debug$S                   10000000     kernel32:KERNEL32.dll
 0000:fffdd000       .debug$S                   10000000     kernel32:KERNEL32.dll
 0000:fffdd000       .debug$S                   10000000     kernel32:KERNEL32.dll
 0000:fffdd000       .debug$S                   10000000     kernel32:KERNEL32.dll
 0000:fffdd000       .debug$S                   10000000     kernel32:KERNEL32.dll
 0000:fffdd000       .debug$S                   10000000     kernel32:KERNEL32.dll
 0000:fffdd000       .debug$S                   10000000     kernel32:KERNEL32.dll
 0000:fffdd000       .debug$S                   10000000     kernel32:KERNEL32.dll
 0000:fffdd000       .debug$S                   10000000     kernel32:KERNEL32.dll
 0000:fffdd000       .debug$S                   10000000     kernel32:KERNEL32.dll
 0000:fffdd000       .debug$S                   10000000     kernel32:KERNEL32.dll
 0000:fffdd000       .debug$S                   10000000     kernel32:KERNEL32.dll
 0000:fffdd000       .debug$S                   10000000     kernel32:KERNEL32.dll
 0000:fffdd000       .debug$S                   10000000     kernel32:KERNEL32.dll
 0000:fffdd000       .debug$S                   10000000     kernel32:KERNEL32.dll
 0000:fffdd000       .debug$S                   10000000     kernel32:KERNEL32.dll
 0000:fffdd000       .debug$S                   10000000     kernel32:KERNEL32.dll
 0000:fffdd000       .debug$S                   10000000     kernel32:KERNEL32.dll
 0000:fffdd000       .debug$S                   10000000     kernel32:KERNEL32.dll
 0000:fffdd000       .debug$S                   10000000     kernel32:KERNEL32.dll
 0000:fffdd000       .debug$S                   10000000     kernel32:KERNEL32.dll
 0000:fffdd000       .debug$S                   10000000     kernel32:KERNEL32.dll
 0000:fffdd000       .debug$S                   10000000     kernel32:KERNEL32.dll
 0000:fffdd000       .debug$S                   10000000     kernel32:KERNEL32.dll
 0000:fffdd000       .debug$S                   10000000     kernel32:KERNEL32.dll
 0000:fffdd000       .debug$S                   10000000     node:node.exe
 0000:fffdd000       .debug$S                   10000000     node:node.exe
 0000:fffdd000       .debug$S                   10000000     node:node.exe
 0000:fffdd000       .debug$S                   10000000     node:node.exe
 0000:fffdd000       .debug$S                   10000000     node:node.exe
 0000:fffdd000       .debug$S                   10000000     node:node.exe
 0000:fffdd000       .debug$S                   10000000     node:node.exe
 0000:fffdd000       .debug$S                   10000000     node:node.exe
 0000:fffdd000       .debug$S                   10000000     node:node.exe
 0000:fffdd000       .debug$S                   10000000     node:node.exe
 0000:fffdd000       .debug$S                   10000000     node:node.exe
 0000:fffdd000       .debug$S                   10000000     node:node.exe
 0000:fffdd000       .debug$S                   10000000     node:node.exe
 0000:fffdd000       .debug$S                   10000000     node:node.exe
 0000:fffdd000       .debug$S                   10000000     node:node.exe
 0000:fffdd000       .debug$S                   10000000     node:node.exe
 0000:fffdd000       .debug$S                   10000000     node:node.exe
 0000:fffdd000       .debug$S                   10000000     node:node.exe
 0000:fffdd000       .debug$S                   10000000     node:node.exe
 0000:fffdd000       .debug$S                   10000000     node:node.exe
 0000:fffdd000       .debug$S                   10000000     node:node.exe
 0000:fffdd000       .debug$S                   10000000     node:node.exe
 0000:fffdd000       .debug$S                   10000000     node:node.exe
 0000:fffdd000       .debug$S                   10000000     node:node.exe
 0000:fffdd000       .debug$S                   10000000     node:node.exe
 0000:fffdd000       .debug$S                   10000000     node:node.exe
 0000:fffdd000       .debug$S                   10000000     node:node.exe
 0000:fffdd000       .debug$S                   10000000     node:node.exe
 0000:fffdd000       .debug$S                   10000000     node:node.exe
 0001:00000080       ?FunctionCallbackWrapper@imp@Nan@@YAXABV?$FunctionCallbackInfo@VValue@v8@@@v8@@@Z 10001080 f   segfault-handler.obj
 0001:000005d0       __register_segfault_handler 100015d0 f   segfault-handler.obj
 0001:00000edc       $LN34                      10001edc     StackWalker.obj
 0001:00001c08       $LN57                      10002c08     StackWalker.obj
 0001:00002060       ?load_exe_hook@@YGP6GHXZIPAUDelayLoadInfo@@@Z 10003060 f   win_delay_load_hook.obj
 0001:00002321       ?dllmain_crt_dispatch@@YGHQAUHINSTANCE__@@KQAX@Z 10003321 f   LIBCMT:dll_dllmain.obj
 0001:00002374       ?dllmain_crt_process_attach@@YAHQAUHINSTANCE__@@QAX@Z 10003374 f   LIBCMT:dll_dllmain.obj
 0001:0000247e       ?dllmain_crt_process_detach@@YAH_N@Z 1000347e f   LIBCMT:dll_dllmain.obj
 0001:00002510       ?dllmain_dispatch@@YAHQAUHINSTANCE__@@KQAX@Z 10003510 f   LIBCMT:dll_dllmain.obj
 0001:00002616       ?dllmain_raw@@YGHQAUHINSTANCE__@@KQAX@Z 10003616 f   LIBCMT:dll_dllmain.obj
 0001:00002780       ___get_entropy             10003780 f   LIBCMT:gs_support.obj
 0001:00002859       ?find_pe_section@@YAPAU_IMAGE_SECTION_HEADER@@QAEI@Z 10003859 f   LIBCMT:utility.obj
 0001:00002cd0       $$000000                   10003cd0     LIBCMT:sehprolg4.obj
 0001:00002f00       _ValidateLocalCookies      10003f00 f   libvcruntime:chandler4.obj
 0001:00003210       $$000000                   10004210     libvcruntime:memset.obj
 0001:00003370       $$000000                   10004370     libvcruntime:exsup4.obj
 0001:00003400       __unwind_handler4          10004400 f   libvcruntime:exsup4.obj
 0001:000036ee       ?try_get_first_available_module@@YAPAUHINSTANCE__@@QBW4module_id@?A0x170b12c9@@0@Z 100046ee f   libvcruntime:winapi_downlevel.obj
 0001:000037b2       ?try_get_function@@YAPAXW4function_id@?A0x170b12c9@@QBDQBW4module_id@2@2@Z 100047b2 f   libvcruntime:winapi_downlevel.obj
 0001:000039c0       $$000000                   100049c0     libvcruntime:exsup.obj
 0001:000039e1       __unwind_handler           100049e1 f   libvcruntime:exsup.obj
 0001:00003b00       $$000000                   10004b00     libvcruntime:memcpy.obj
 0001:00003d64       TrailingUpVec              10004d64     libvcruntime:memcpy.obj
 0001:00003e10       TrailingDownVec            10004e10     libvcruntime:memcpy.obj
 0001:00004080       $$000000                   10005080     libvcruntime:lowhelpr.obj
 0001:00004180       $$000000                   10005180     libvcruntime:memmove.obj
 0001:000043e4       TrailingUpVec              100053e4     libvcruntime:memmove.obj
 0001:00004490       TrailingDownVec            10005490     libvcruntime:memmove.obj
 0001:00004846       ??$__acrt_convert_wcs_mbs_cp@D_WV<lambda_62f6974d9771e494a5ea317cc32e971c>@@U__crt_win32_buffer_internal_dynamic_resizing@@@@YAHQBDAAV?$__crt_win32_buffer@_WU__crt_win32_buffer_internal_dynamic_resizing@@@@ABV<lambda_62f6974d9771e494a5ea317cc32e971c>@@I@Z 10005846 f   libucrt:open.obj
 0001:00004917       ??$common_sopen_dispatch@D@@YAHQBDHHHQAHH@Z 10005917 f   libucrt:open.obj
 0001:00004b0a       ?configure_text_mode@@YAHHUfile_options@?A0xa9d50aae@@HAAW4__crt_lowio_text_mode@@@Z 10005b0a f   libucrt:open.obj
 0001:00004d5f       ?create_file@@YAPAXQB_WQAU_SECURITY_ATTRIBUTES@@Ufile_options@?A0xa9d50aae@@@Z 10005d5f f   libucrt:open.obj
 0001:00004d84       ?decode_open_create_flags@@YAKH@Z 10005d84 f   libucrt:open.obj
 0001:00004df4       ?decode_options@@YA?AUfile_options@?A0xa9d50aae@@HHH@Z 10005df4 f   libucrt:open.obj
 0001:00004f70       ?truncate_ctrl_z_if_present@@YAHH@Z 10005f70 f   libucrt:open.obj
 0001:000053c3       ??$?RV<lambda_80d7abc6eae2375db70be92ccaaf9b57>@@AAV<lambda_df52180bf14694d51fdefd82613e8f07>@@V<lambda_4fa1155033dff2042363dba4e2dc3802>@@@?$__crt_seh_guarded_call@H@@QAEH$$QAV<lambda_80d7abc6eae2375db70be92ccaaf9b57>@@AAV<lambda_df52180bf14694d51fdefd82613e8f07>@@$$QAV<lambda_4fa1155033dff2042363dba4e2dc3802>@@@Z 100063c3 f   libucrt:output.obj
 0001:00005414       ??$common_vsnprintf_s@D@@YAH_KQADIIQBDQAU__crt_locale_pointers@@1@Z 10006414 f   libucrt:output.obj
 0001:00005501       ??$common_vsprintf@Vformat_validation_base@__crt_stdio_output@@D@@YAH_KQADIQBDQAU__crt_locale_pointers@@1@Z 10006501 f   libucrt:output.obj
 0001:00005681       ??$common_vsprintf@Vstandard_base@__crt_stdio_output@@D@@YAH_KQADIQBDQAU__crt_locale_pointers@@1@Z 10006681 f   libucrt:output.obj
 0001:00005b12       ??R<lambda_df52180bf14694d51fdefd82613e8f07>@@QBEHXZ 10006b12 f   libucrt:output.obj
 0001:00005e7a       $LN53                      10006e7a     libucrt:output.obj
 0001:00005f9e       $LN51                      10006f9e     libucrt:output.obj
 0001:000060b2       $LN53                      100070b2     libucrt:output.obj
 0001:00006a0d       $LN20                      10007a0d     libucrt:output.obj
 0001:00006a21       $LN17                      10007a21     libucrt:output.obj
 0001:000073c0       $$000000                   100083c0     libucrt:strncpy.obj
 0001:000074e4       ??$?RV<lambda_218ce3db14220d0be481dae8ef3383b6>@@AAV<lambda_628dfdc04ba53c8bfc02c9951375f3f5>@@V<lambda_57dc472bd5c9d5f3b2cbca59b8a843ae>@@@?$__crt_seh_guarded_call@H@@QAEH$$QAV<lambda_218ce3db14220d0be481dae8ef3383b6>@@AAV<lambda_628dfdc04ba53c8bfc02c9951375f3f5>@@$$QAV<lambda_57dc472bd5c9d5f3b2cbca59b8a843ae>@@@Z 100084e4 f   libucrt:close.obj
 0001:00007691       ?write_double_translated_ansi_nolock@@YA?AUwrite_result@?A0x17268360@@HQBDI@Z 10008691 f   libucrt:write.obj
 0001:00007a3d       ?write_double_translated_unicode_nolock@@YA?AUwrite_result@?A0x17268360@@QBDI@Z 10008a3d f   libucrt:write.obj
 0001:00007aa7       ?write_requires_double_translation_nolock@@YA_NH@Z 10008aa7 f   libucrt:write.obj
 0001:00007b1a       ?write_text_ansi_nolock@@YA?AUwrite_result@?A0x17268360@@HQBDI@Z 10008b1a f   libucrt:write.obj
 0001:00007bf7       ?write_text_utf16le_nolock@@YA?AUwrite_result@?A0x17268360@@HQBDI@Z 10008bf7 f   libucrt:write.obj
 0001:00007ce2       ?write_text_utf8_nolock@@YA?AUwrite_result@?A0x17268360@@HQBDI@Z 10008ce2 f   libucrt:write.obj
 0001:000080e2       ??$common_timespec_get@U_timespec64@@@@YAHQAU_timespec64@@H@Z 100090e2 f   libucrt:time.obj
 0001:00008683       ??$?RV<lambda_03b1d95aef87969028cfba75ccab2455>@@AAV<lambda_6e4b09c48022b2350581041d5f6b0c4c>@@V<lambda_22bdf7517842c4b3e53723af5aa32b9e>@@@?$__crt_seh_guarded_call@X@@QAEX$$QAV<lambda_03b1d95aef87969028cfba75ccab2455>@@AAV<lambda_6e4b09c48022b2350581041d5f6b0c4c>@@$$QAV<lambda_22bdf7517842c4b3e53723af5aa32b9e>@@@Z 10009683 f   libucrt:exit.obj
 0001:000086c6       ??R<lambda_6e4b09c48022b2350581041d5f6b0c4c>@@QBE@XZ 100096c6 f   libucrt:exit.obj
 0001:00008796       ?atexit_exception_filter@@YAHK@Z 10009796 f   libucrt:exit.obj
 0001:000087a9       ?common_exit@@YAXHW4_crt_exit_cleanup_mode@@W4_crt_exit_return_mode@@@Z 100097a9 f   libucrt:exit.obj
 0001:0000880f       ?exit_or_terminate_process@@YAXI@Z 1000980f f   libucrt:exit.obj
 0001:00008851       ?is_managed_app@@YA_NXZ    10009851 f   libucrt:exit.obj
 0001:00008894       ?try_cor_exit_process@@YAXI@Z 10009894 f   libucrt:exit.obj
 0001:00008924       ??$common_configure_argv@D@@YAHW4_crt_argv_mode@@@Z 10009924 f   libucrt:argv_parsing.obj
 0001:00008a5c       ??$parse_command_line@D@@YAXPADPAPAD0PAI2@Z 10009a5c f   libucrt:argv_parsing.obj
 0001:00008c2f       ??$common_initialize_environment_nolock@D@@YAHXZ 10009c2f f   libucrt:environment_initialization.obj
 0001:00008c82       ??$create_environment@D@@YAQAPADQAD@Z 10009c82 f   libucrt:environment_initialization.obj
 0001:00008d54       ??$free_environment@_W@@YAXQAPA_W@Z 10009d54 f   libucrt:environment_initialization.obj
 0001:00008d54       ??$free_environment@D@@YAXQAPAD@Z 10009d54 f   libucrt:environment_initialization.obj
 0001:00008dac       ??$uninitialize_environment_internal@D@@YAXAAPAPAD@Z 10009dac f   libucrt:environment_initialization.obj
 0001:00008dc7       ??$uninitialize_environment_internal@_W@@YAXAAPAPA_W@Z 10009dc7 f   libucrt:environment_initialization.obj
 0001:00008e1e       ??$?RV<lambda_69a2805e680e0e292e8ba93315fe43a8>@@AAV<lambda_f03950bc5685219e0bcd2087efbe011e>@@V<lambda_03fcd07e894ec930e3f35da366ca99d6>@@@?$__crt_seh_guarded_call@H@@QAEH$$QAV<lambda_69a2805e680e0e292e8ba93315fe43a8>@@AAV<lambda_f03950bc5685219e0bcd2087efbe011e>@@$$QAV<lambda_03fcd07e894ec930e3f35da366ca99d6>@@@Z 10009e1e f   libucrt:onexit.obj
 0001:00008e6f       ??R<lambda_f03950bc5685219e0bcd2087efbe011e>@@QBEHXZ 10009e6f f   libucrt:onexit.obj
 0001:00008fa3       _initialize_global_variables 10009fa3 f   libucrt:initialization.obj
 0001:00008fb0       _initialize_c              10009fb0 f   libucrt:initialization.obj
 0001:00008fca       _initialize_environment    10009fca f   libucrt:initialization.obj
 0001:00008fca       _report_memory_leaks       10009fca f   libucrt:initialization.obj
 0001:00008fca       _initialize_global_state_isolation 10009fca f   libucrt:initialization.obj
 0001:00008fca       _uninitialize_global_state_isolation 10009fca f   libucrt:initialization.obj
 0001:00008fca       _uninitialize_c            10009fca f   libucrt:initialization.obj
 0001:00008fcd       _uninitialize_environment  10009fcd f   libucrt:initialization.obj
 0001:00008fd5       _initialize_pointers       10009fd5 f   libucrt:initialization.obj
 0001:00009003       _uninitialize_vcruntime    1000a003 f   libucrt:initialization.obj
 0001:0000900c       _uninitialize_allocated_memory 1000a00c f   libucrt:initialization.obj
 0001:00009025       _uninitialize_allocated_io_buffers 1000a025 f   libucrt:initialization.obj
 0001:00009075       ??R<lambda_af42a3ee9806e9a7305d451646e05244>@@QBEXAAPAU__crt_multibyte_data@@@Z 1000a075 f   libucrt:initialization.obj
 0001:00009430       $$000000                   1000a430     libucrt:strncmp.obj
 0001:00009846       ?try_get_AreFileApisANSI@@YAP6GHXZXZ 1000a846 f   libucrt:winapi_thunks.obj
 0001:00009860       ?try_get_LCMapStringEx@@YAP6GHPB_WK0HPA_WHPAU_nlsversioninfo@@PAXJ@ZXZ 1000a860 f   libucrt:winapi_thunks.obj
 0001:0000987a       ?try_get_LocaleNameToLCID@@YAP6GKPB_WK@ZXZ 1000a87a f   libucrt:winapi_thunks.obj
 0001:00009894       ?try_get_first_available_module@@YAPAUHINSTANCE__@@QBW4module_id@?A0x391cf84c@@0@Z 1000a894 f   libucrt:winapi_thunks.obj
 0001:0000995d       ?try_get_function@@YAPAXW4function_id@?A0x391cf84c@@QBDQBW4module_id@2@2@Z 1000a95d f   libucrt:winapi_thunks.obj
 0001:00009d58       ??$?RV<lambda_2866be3712abc81a800a822484c830d8>@@AAV<lambda_39ca0ed439415581b5b15c265174cece>@@V<lambda_2b24c74d71094a6cd0cb82e44167d71b>@@@?$__crt_seh_guarded_call@X@@QAEX$$QAV<lambda_2866be3712abc81a800a822484c830d8>@@AAV<lambda_39ca0ed439415581b5b15c265174cece>@@$$QAV<lambda_2b24c74d71094a6cd0cb82e44167d71b>@@@Z 1000ad58 f   libucrt:fflush.obj
 0001:00009dda       ??$?RV<lambda_2cc53f568c5a2bb6f192f930a45d44ea>@@AAV<lambda_ab61a845afdef5b7c387490eaf3616ee>@@V<lambda_c2ffc0b7726aa6be21d5f0026187e748>@@@?$__crt_seh_guarded_call@X@@QAEX$$QAV<lambda_2cc53f568c5a2bb6f192f930a45d44ea>@@AAV<lambda_ab61a845afdef5b7c387490eaf3616ee>@@$$QAV<lambda_c2ffc0b7726aa6be21d5f0026187e748>@@@Z 1000adda f   libucrt:fflush.obj
 0001:00009e7c       ?common_flush_all@@YAH_N@Z 1000ae7c f   libucrt:fflush.obj
 0001:00009ecb       ?common_flush_all_should_try_to_flush_stream@@YA_NV__crt_stdio_stream@@QAH@Z 1000aecb f   libucrt:fflush.obj
 0001:00009efe       ?is_stream_flushable_or_commitable@@YA_NJ@Z 1000aefe f   libucrt:fflush.obj
 0001:0000a019       ?initialize_inherited_file_handles_nolock@@YAXXZ 1000b019 f   libucrt:ioinit.obj
 0001:0000a0d1       ?initialize_stdio_handles_nolock@@YAXXZ 1000b0d1 f   libucrt:ioinit.obj
 0001:0000a3cf       ??$?RV<lambda_15ade71b0218206bbe3333a0c9b79046>@@AAV<lambda_da44e0f8b0f19ba52fefafb335991732>@@V<lambda_207f2d024fc103971653565357d6cd41>@@@?$__crt_seh_guarded_call@X@@QAEX$$QAV<lambda_15ade71b0218206bbe3333a0c9b79046>@@AAV<lambda_da44e0f8b0f19ba52fefafb335991732>@@$$QAV<lambda_207f2d024fc103971653565357d6cd41>@@@Z 1000b3cf f   libucrt:per_thread_data.obj
 0001:0000a417       ??$?RV<lambda_38edbb1296d33220d7e4dd0ed76b244a>@@AAV<lambda_5ce1d447e08cb34b2473517608e21441>@@V<lambda_fb385d3da700c9147fc39e65dd577a8c>@@@?$__crt_seh_guarded_call@X@@QAEX$$QAV<lambda_38edbb1296d33220d7e4dd0ed76b244a>@@AAV<lambda_5ce1d447e08cb34b2473517608e21441>@@$$QAV<lambda_fb385d3da700c9147fc39e65dd577a8c>@@@Z 1000b417 f   libucrt:per_thread_data.obj
 0001:0000a478       ??$?RV<lambda_6affb1475c98b40b75cdec977db92e3c>@@AAV<lambda_b8d4b9c228a6ecc3f80208dbb4b4a104>@@V<lambda_608742c3c92a14382c1684fc64f96c88>@@@?$__crt_seh_guarded_call@X@@QAEX$$QAV<lambda_6affb1475c98b40b75cdec977db92e3c>@@AAV<lambda_b8d4b9c228a6ecc3f80208dbb4b4a104>@@$$QAV<lambda_608742c3c92a14382c1684fc64f96c88>@@@Z 1000b478 f   libucrt:per_thread_data.obj
 0001:0000a4c3       ??$?RV<lambda_a7e850c220f1c8d1e6efeecdedd162c6>@@AAV<lambda_46720907175c18b6c9d2717bc0d2d362>@@V<lambda_9048902d66e8d99359bc9897bbb930a8>@@@?$__crt_seh_guarded_call@X@@QAEX$$QAV<lambda_a7e850c220f1c8d1e6efeecdedd162c6>@@AAV<lambda_46720907175c18b6c9d2717bc0d2d362>@@$$QAV<lambda_9048902d66e8d99359bc9897bbb930a8>@@@Z 1000b4c3 f   libucrt:per_thread_data.obj
 0001:0000a513       ?construct_ptd@@YAXQAU__acrt_ptd@@QAPAU__crt_locale_data@@@Z 1000b513 f   libucrt:per_thread_data.obj
 0001:0000a5ae       ?destroy_fls@@YGXPAX@Z     1000b5ae f   libucrt:per_thread_data.obj
 0001:0000a5cf       ?destroy_ptd@@YAXQAU__acrt_ptd@@@Z 1000b5cf f   libucrt:per_thread_data.obj
 0001:0000a69e       ?replace_current_thread_locale_nolock@@YAXQAU__acrt_ptd@@QAU__crt_locale_data@@@Z 1000b69e f   libucrt:per_thread_data.obj
 0001:0000afa4       ??$translate_text_mode_nolock@D@@YAHHQADI@Z 1000bfa4 f   libucrt:read.obj
 0001:0000b101       ??$translate_text_mode_nolock@_W@@YAHHQA_WI@Z 1000c101 f   libucrt:read.obj
 0001:0000b2c8       ?translate_ansi_or_utf8_nolock@@YAHHQADIQA_WI@Z 1000c2c8 f   libucrt:read.obj
 0001:0000b421       ?translate_utf16_from_console_nolock@@YAHHQA_WI@Z 1000c421 f   libucrt:read.obj
 0001:0000b84e       ??$common_lseek@_J@@YA_JH_JH@Z 1000c84e f   libucrt:lseek.obj
 0001:0000b950       ??$common_lseek_nolock@_J@@YA_JH_JH@Z 1000c950 f   libucrt:lseek.obj
 0001:0000ba04       ??$?RV<lambda_e5124f882df8998aaf41531e079ba474>@@AAV<lambda_3e16ef9562a7dcce91392c22ab16ea36>@@V<lambda_e25ca0880e6ef98be67edffd8c599615>@@@?$__crt_seh_guarded_call@X@@QAEX$$QAV<lambda_e5124f882df8998aaf41531e079ba474>@@AAV<lambda_3e16ef9562a7dcce91392c22ab16ea36>@@$$QAV<lambda_e25ca0880e6ef98be67edffd8c599615>@@@Z 1000ca04 f   libucrt:wsetlocale.obj
 0001:0000bb05       ??$common_tox_l@$1?internal_isupper_l@@YA_NHQAU__crt_locale_pointers@@@Z$1?internal_map_lower@@YAHH0@Z@@YAHHKQAU__crt_locale_pointers@@@Z 1000cb05 f   libucrt:tolower_toupper.obj
 0001:0000bc4c       ?internal_isupper_l@@YA_NHQAU__crt_locale_pointers@@@Z 1000cc4c f   libucrt:tolower_toupper.obj
 0001:0000c305       ?fp_format_a@@YAHQBNPADIQADIH_NIQAU__crt_locale_pointers@@@Z 1000d305 f   libucrt:cvt.obj
 0001:0000c620       ?fp_format_e@@YAHQBNQADI1IH_NIQAU__crt_locale_pointers@@@Z 1000d620 f   libucrt:cvt.obj
 0001:0000c6c4       ?fp_format_e_internal@@YAHQADIH_NIQAU_strflt@@1QAU__crt_locale_pointers@@@Z 1000d6c4 f   libucrt:cvt.obj
 0001:0000c80e       ?fp_format_f@@YAHQBNQADI1IHQAU__crt_locale_pointers@@@Z 1000d80e f   libucrt:cvt.obj
 0001:0000c89b       ?fp_format_f_internal@@YAHQADIHQAU_strflt@@_NQAU__crt_locale_pointers@@@Z 1000d89b f   libucrt:cvt.obj
 0001:0000c96e       ?fp_format_g@@YAHQBNQADI1IH_NIQAU__crt_locale_pointers@@@Z 1000d96e f   libucrt:cvt.obj
 0001:0000ca31       ?fp_format_nan_or_infinity@@YAHW4__acrt_fp_class@@_NPADI1@Z 1000da31 f   libucrt:cvt.obj
 0001:0000cb26       ?shift_bytes@@YAXQADI0H@Z  1000db26 f   libucrt:cvt.obj
 0001:0000cf12       ??R<lambda_0f007d4f94c691a9a85cf1869a09f0c3>@@QBEIPBD@Z 1000df12 f   libucrt:mbrtowc.obj
 0001:0000d184       ?<lambda_invoker_cdecl>@<lambda_86056e3c024bff449830248dc1621ed2>@@CAHPBX0@Z 1000e184 f   libucrt:argv_wildcards.obj
 0001:0000d19c       ??$__acrt_convert_wcs_mbs_cp@_WDV<lambda_28bda7af82a03b66c1cb3803a755f95d>@@U__crt_win32_buffer_internal_dynamic_resizing@@@@YAHQB_WAAV?$__crt_win32_buffer@DU__crt_win32_buffer_internal_dynamic_resizing@@@@ABV<lambda_28bda7af82a03b66c1cb3803a755f95d>@@I@Z 1000e19c f   libucrt:argv_wildcards.obj
 0001:0000d26b       ??$common_expand_argv_wildcards@D@@YAHQAPADQAPAPAD@Z 1000e26b f   libucrt:argv_wildcards.obj
 0001:0000d45c       ??$copy_and_add_argument_to_buffer@D@@YAHQBD0IAAV?$argument_list@D@?A0x5f5c8891@@@Z 1000e45c f   libucrt:argv_wildcards.obj
 0001:0000d50f       ??$expand_argument_wildcards@D@@YAHQAD0AAV?$argument_list@D@?A0x5f5c8891@@@Z 1000e50f f   libucrt:argv_wildcards.obj
 0001:0000d7a4       ?expand_if_necessary@?$argument_list@D@?A0x5f5c8891@@AAEHXZ 1000e7a4 f   libucrt:argv_wildcards.obj
 0001:0000d836       ??$__acrt_convert_wcs_mbs_cp@_WDV<lambda_0fec1a7b3f42a53036604e18c2d5e07e>@@U__crt_win32_buffer_no_resizing@@@@YAHQB_WAAV?$__crt_win32_buffer@DU__crt_win32_buffer_no_resizing@@@@ABV<lambda_0fec1a7b3f42a53036604e18c2d5e07e>@@I@Z 1000e836 f   libucrt:getmodulefilenamea.obj
 0001:0000d9db       ??$?RV<lambda_ceb1ee4838e85a9d631eb091e2fbe199>@@AAV<lambda_ae742caa10f662c28703da3d2ea5e57e>@@V<lambda_cd08b5d6af4937fe54fc07d0c9bf6b37>@@@?$__crt_seh_guarded_call@X@@QAEX$$QAV<lambda_ceb1ee4838e85a9d631eb091e2fbe199>@@AAV<lambda_ae742caa10f662c28703da3d2ea5e57e>@@$$QAV<lambda_cd08b5d6af4937fe54fc07d0c9bf6b37>@@@Z 1000e9db f   libucrt:mbctype.obj
 0001:0000da1e       ??R<lambda_ae742caa10f662c28703da3d2ea5e57e>@@QBEXXZ 1000ea1e f   libucrt:mbctype.obj
 0001:0000daa1       ?CPtoLocaleName@@YAPB_WH@Z 1000eaa1 f   libucrt:mbctype.obj
 0001:0000dadf       ?getSystemCP@@YAHH@Z       1000eadf f   libucrt:mbctype.obj
 0001:0000db52       ?setSBCS@@YAXPAU__crt_multibyte_data@@@Z 1000eb52 f   libucrt:mbctype.obj
 0001:0000dbb7       ?setSBUpLow@@YAXPAU__crt_multibyte_data@@@Z 1000ebb7 f   libucrt:mbctype.obj
 0001:0000dd3a       ?setmbcp_internal@@YAHH_NQAU__acrt_ptd@@QAPAU__crt_multibyte_data@@@Z 1000ed3a f   libucrt:mbctype.obj
 0001:0000de55       ?update_thread_multibyte_data_internal@@YAPAU__crt_multibyte_data@@QAU__acrt_ptd@@QAPAU1@@Z 1000ee55 f   libucrt:mbctype.obj
 0001:0000e13b       _memcpy_s                  1000f13b f   libucrt:cfout.obj
 0001:0000e13b       _memcpy_s                  1000f13b f   libucrt:mbctype.obj
 0001:0000e1bc       ?x_ismbbtype_l@@YAHPAU__crt_locale_pointers@@IHH@Z 1000f1bc f   libucrt:ismbbyte.obj
 0001:0000e246       ?find_end_of_double_null_terminated_sequence@@YAPB_WQB_W@Z 1000f246 f   libucrt:get_environment_from_os.obj
 0001:0000e424       ??$?RV<lambda_cbab9ec6f41b0180b23cc171c22676b0>@@AAV<lambda_44731a7d0e6d81c3e6aa82d741081786>@@V<lambda_4b292cb8dd18144e164572427af410ab>@@@?$__crt_seh_guarded_call@P6AXH@Z@@QAEP6AXH@Z$$QAV<lambda_cbab9ec6f41b0180b23cc171c22676b0>@@AAV<lambda_44731a7d0e6d81c3e6aa82d741081786>@@$$QAV<lambda_4b292cb8dd18144e164572427af410ab>@@@Z 1000f424 f   libucrt:signal.obj
 0001:0000e47e       ?get_global_action_nolock@@YAPAP6AXH@ZH@Z 1000f47e f   libucrt:signal.obj
 0001:0000e4c0       ?siglookup@@YAPAU__crt_signal_action_t@@HQAU1@@Z 1000f4c0 f   libucrt:signal.obj
 0001:0000e854       ?GetTableIndexFromLocaleName@@YAHPB_W@Z 1000f854 f   libucrt:lcidtoname_downlevel.obj
 0001:0000ea25       ??$?RV<lambda_9e9de3de5fa147e2223d7db92bc10aa6>@@AAV<lambda_38ce7e780aa69e748d6df282ebc68efe>@@V<lambda_8ca6da459f0f6780f1cff60fdc3d00e5>@@@?$__crt_seh_guarded_call@H@@QAEH$$QAV<lambda_9e9de3de5fa147e2223d7db92bc10aa6>@@AAV<lambda_38ce7e780aa69e748d6df282ebc68efe>@@$$QAV<lambda_8ca6da459f0f6780f1cff60fdc3d00e5>@@@Z 1000fa25 f   libucrt:commit.obj
 0001:0000f03b       ?free_crt_array_internal@@YAXQAPBXI@Z 1001003b f   libucrt:inittime.obj
 0001:0000f2b8       ?__acrt_LCMapStringA_stat@@YAHPAU__crt_locale_pointers@@PB_WKPBDHPADHHH@Z 100102b8 f   libucrt:lcmapstringa.obj
 0001:00010e74       ??$common_flush_and_write_nolock@D@@YAHHV__crt_stdio_stream@@@Z 10011e74 f   libucrt:_flsbuf.obj
 0001:00010f89       ??$write_buffer_nolock@D@@YA_NDV__crt_stdio_stream@@@Z 10011f89 f   libucrt:_flsbuf.obj
 0001:00011055       ?stream_is_at_end_of_file_nolock@@YA_NV__crt_stdio_stream@@@Z 10012055 f   libucrt:_flsbuf.obj
 0001:0001129b       ?__dcrt_lowio_initialize_console_output@@YAXXZ 1001229b f   libucrt:initcon.obj
 0001:00011350       ?swap@@YAXPAD0I@Z          10012350 f   libucrt:qsort.obj
 0001:000117d4       ??$common_tcsncpy_s@D@@YAHQADIQBDI@Z 100127d4 f   libucrt:strncpy_s.obj
 0001:000118a0       $$000000                   100128a0     libucrt:strpbrk.obj
 0001:00011986       ?initialize_multibyte@@YAHXZ 10012986 f   libucrt:multibyte_initializer.obj
 0001:00011b50       $$000000                   10012b50     libucrt:log10_impl.obj
 0001:00011c60       $$000000                   10012c60     libucrt:ceil_pentium4.obj
 0001:00011dd6       ?to_abstract_control@@YA?AW4__acrt_fenv_abstract_control@@W4__acrt_fenv_machine_sse_control@@@Z 10012dd6 f   libucrt:_fenvutils.obj
 0001:00011e92       ?to_abstract_control@@YA?AW4__acrt_fenv_abstract_control@@W4__acrt_fenv_machine_x87_control@@@Z 10012e92 f   libucrt:_fenvutils.obj
 0001:00011f4d       ?to_machine_sse_control@@YA?AW4__acrt_fenv_machine_sse_control@@W4__acrt_fenv_abstract_control@@@Z 10012f4d f   libucrt:_fenvutils.obj
 0001:0001201a       ?to_machine_x87_control@@YA?AW4__acrt_fenv_machine_x87_control@@W4__acrt_fenv_abstract_control@@@Z 1001301a f   libucrt:_fenvutils.obj
 0001:00012480       $$000000                   10013480     libucrt:log10_pentium4.obj
 0001:00012710       $$000000                   10013710     libucrt:87tran.obj
 0001:00012920       $$000000                   10013920     libucrt:87disp.obj
 0001:00012b80       $$000000                   10013b80     libucrt:common.obj
 0001:00012d10       $$000000                   10013d10     libucrt:genexcep.obj
 0001:00013010       $$000000                   10014010     libucrt:_strnicm.obj
 0001:00014320       $$000000                   10015320     LIBCMT:ulldvrm.obj
 0001:000143c0       $$000000                   100153c0     LIBCMT:chkstk.obj
 0001:000143f0       $$000000                   100153f0     LIBCMT:lldiv.obj
 0001:000144a0       $$000000                   100154a0     LIBCMT:lldvrm.obj
 0001:00014580       $$000000                   10015580     LIBCMT:llrem.obj
 0001:00014640       $$000000                   10015640     LIBCMT:llmul.obj
 0001:00014680       $$000000                   10015680     LIBCMT:ullshr.obj
 0001:000146a0       $$000000                   100156a0     LIBCMT:alloca16.obj
 0001:000146d0       $$000000                   100156d0     LIBCMT:llshl.obj
 0001:000146f0       $$000000                   100156f0     LIBCMT:ftol2.obj
 0001:000147b0       $$000000                   100157b0     libvcruntime:strrchr.obj
 0001:000148f0       $$000000                   100158f0     libvcruntime:strchr.obj
 0002:000001bc       _GS_ExceptionPointers      100161bc     LIBCMT:gs_report.obj
 0002:00000230       ?ExceptionTemplate@?1??_CxxThrowException@@9@8@4UEHExceptionRecord@@B 10016230     libvcruntime:throw.obj
 0002:00000250       ?tokenTable@@3QBQBDB       10016250     libvcruntime:undname.obj
 0002:00000290       ?nameTable@@3QBQBDB        10016290     libvcruntime:undname.obj
 0002:000003d8       ?rttiTable@@3QBQBDB        100163d8     libvcruntime:undname.obj
 0002:000009e8       ?module_names@?A0x170b12c9@@3QBQB_WB 100169e8     libvcruntime:winapi_downlevel.obj
 0002:00000aa0       ?candidate_modules@?1??try_get_FlsAlloc@@YAP6GKP6GXPAX@Z@ZXZ@4QBW4module_id@?A0x170b12c9@@B 10016aa0     libvcruntime:winapi_downlevel.obj
 0002:00000ab4       ?candidate_modules@?1??try_get_FlsFree@@YAP6GHK@ZXZ@4QBW4module_id@?A0x170b12c9@@B 10016ab4     libvcruntime:winapi_downlevel.obj
 0002:00000ac4       ?candidate_modules@?1??try_get_FlsGetValue@@YAP6GPAXK@ZXZ@4QBW4module_id@?A0x170b12c9@@B 10016ac4     libvcruntime:winapi_downlevel.obj
 0002:00000ad8       ?candidate_modules@?1??try_get_FlsSetValue@@YAP6GHKPAX@ZXZ@4QBW4module_id@?A0x170b12c9@@B 10016ad8     libvcruntime:winapi_downlevel.obj
 0002:00000aec       ?candidate_modules@?1??try_get_InitializeCriticalSectionEx@@YAP6GHPAU_RTL_CRITICAL_SECTION@@KK@ZXZ@4QBW4module_id@?A0x170b12c9@@B 10016aec     libvcruntime:winapi_downlevel.obj
 0002:00000cb8       ___acrt_initializers       10016cb8     libucrt:initialization.obj
 0002:00000d38       ?errtable@@3QBUerrentry@?A0x31fdb9ec@@B 10016d38     libucrt:errno.obj
 0002:00000ea0       ?module_names@?A0x391cf84c@@3QBQB_WB 10016ea0     libucrt:winapi_thunks.obj
 0002:000013c0       ?candidate_modules@?1??try_get_AreFileApisANSI@@YAP6GHXZXZ@4QBW4module_id@?A0x391cf84c@@B 100173c0     libucrt:winapi_thunks.obj
 0002:000013d4       ?candidate_modules@?1??try_get_FlsAlloc@@YAP6GKP6GXPAX@Z@ZXZ@4QBW4module_id@?A0x391cf84c@@B 100173d4     libucrt:winapi_thunks.obj
 0002:000013e8       ?candidate_modules@?1??try_get_FlsFree@@YAP6GHK@ZXZ@4QBW4module_id@?A0x391cf84c@@B 100173e8     libucrt:winapi_thunks.obj
 0002:000013f8       ?candidate_modules@?1??try_get_FlsGetValue@@YAP6GPAXK@ZXZ@4QBW4module_id@?A0x391cf84c@@B 100173f8     libucrt:winapi_thunks.obj
 0002:0000140c       ?candidate_modules@?1??try_get_FlsSetValue@@YAP6GHKPAX@ZXZ@4QBW4module_id@?A0x391cf84c@@B 1001740c     libucrt:winapi_thunks.obj
 0002:00001420       ?candidate_modules@?1??try_get_GetSystemTimePreciseAsFileTime@@YAP6GXPAU_FILETIME@@@ZXZ@4QBW4module_id@?A0x391cf84c@@B 10017420     libucrt:winapi_thunks.obj
 0002:00001444       ?candidate_modules@?1??try_get_InitializeCriticalSectionEx@@YAP6GHPAU_RTL_CRITICAL_SECTION@@KK@ZXZ@4QBW4module_id@?A0x391cf84c@@B 10017444     libucrt:winapi_thunks.obj
 0002:00001468       ?candidate_modules@?1??try_get_LCMapStringEx@@YAP6GHPB_WK0HPA_WHPAU_nlsversioninfo@@PAXJ@ZXZ@4QBW4module_id@?A0x391cf84c@@B 10017468     libucrt:winapi_thunks.obj
 0002:00001480       ?candidate_modules@?1??try_get_LocaleNameToLCID@@YAP6GKPB_WK@ZXZ@4QBW4module_id@?A0x391cf84c@@B 10017480     libucrt:winapi_thunks.obj
 0002:0000149c       ?candidate_modules@?1??try_get_AppPolicyGetProcessTerminationMethod@@YAP6GJPAXPAW4AppPolicyProcessTerminationMethod@@@ZXZ@4QBW4module_id@?A0x391cf84c@@B 1001749c     libucrt:winapi_thunks.obj
 0002:00001fd4       ?_mb_locale_names@@3QBQB_WB 10017fd4     libucrt:mbctype.obj
 0002:00002018       ?LcidToLocaleNameTable@?A0x881e4c05@@3QBULcidToLocaleName@1@B 10018018     libucrt:lcidtoname_downlevel.obj
 0002:00003140       ?LocaleNameToIndexTable@?A0x881e4c05@@3QBULocaleNameIndex@1@B 10019140     libucrt:lcidtoname_downlevel.obj
 0002:00004a90       LOG_name                   1001aa90     libucrt:log10_impl.obj
 0002:00004aa0       _One                       1001aaa0     libucrt:ceil_pentium4.obj
 0002:00004ab0       _Bns                       1001aab0     libucrt:ceil_pentium4.obj
 0002:00004ac0       _Zero                      1001aac0     libucrt:ceil_pentium4.obj
 0002:00004ad0       _S                         1001aad0     libucrt:ceil_pentium4.obj
 0002:00004ae0       _NegZero                   1001aae0     libucrt:ceil_pentium4.obj
 0002:00004af0       emask                      1001aaf0     libucrt:log10_pentium4.obj
 0002:00004b00       CC                         1001ab00     libucrt:log10_pentium4.obj
 0002:00004b10       Magic                      1001ab10     libucrt:log10_pentium4.obj
 0002:00004b20       hi_mask                    1001ab20     libucrt:log10_pentium4.obj
 0002:00004b30       LOG10_2                    1001ab30     libucrt:log10_pentium4.obj
 0002:00004b40       place_L                    1001ab40     libucrt:log10_pentium4.obj
 0002:00004b60       One                        1001ab60     libucrt:log10_pentium4.obj
 0002:00004b70       Zero                       1001ab70     libucrt:log10_pentium4.obj
 0002:00004b80       Two52                      1001ab80     libucrt:log10_pentium4.obj
 0002:00004b90       Infs                       1001ab90     libucrt:log10_pentium4.obj
 0002:00004ba0       NaN                        1001aba0     libucrt:log10_pentium4.obj
 0002:00004bb0       coeff                      1001abb0     libucrt:log10_pentium4.obj
 0002:00004c0e       _log2max                   1001ac0e     libucrt:87tran.obj
 0002:00004c18       _smallarg                  1001ac18     libucrt:87tran.obj
 0002:00004c22       _half                      1001ac22     libucrt:87tran.obj
 0002:00004c6e       One                        1001ac6e     libucrt:87disp.obj
 0002:00004c76       Three                      1001ac76     libucrt:87disp.obj
 0002:00004c7e       XAMtoTagTab                1001ac7e     libucrt:87disp.obj
 0002:00004c90       One                        1001ac90     libucrt:common.obj
 0002:00004ca4       DblMax                     1001aca4     libucrt:common.obj
 0002:00004cac       DblMin                     1001acac     libucrt:common.obj
 0002:00004cb4       IeeeAdjO                   1001acb4     libucrt:common.obj
 0002:00004cbc       IeeeAdjU                   1001acbc     libucrt:common.obj
 0002:00004cc4       _infinity                  1001acc4     libucrt:common.obj
 0002:00004ccc       _zero                      1001accc     libucrt:common.obj
 0002:00004d08       _over                      1001ad08     libucrt:fpctrl.obj
 0002:00004d14       _under                     1001ad14     libucrt:fpctrl.obj
 0002:00005548       ?_names@?1??_get_fname@@9@9 1001b548     libucrt:fpexcept.obj
 0002:000063d0       __sehtable$?dllmain_crt_process_attach@@YAHQAUHINSTANCE__@@QAX@Z 1001c3d0     LIBCMT:dll_dllmain.obj
 0002:000063f0       __sehtable$?dllmain_crt_process_detach@@YAH_N@Z 1001c3f0     LIBCMT:dll_dllmain.obj
 0002:00006410       __sehtable$?dllmain_dispatch@@YAHQAUHINSTANCE__@@KQAX@Z 1001c410     LIBCMT:dll_dllmain.obj
 0002:000064c0       __sehtable$___scrt_is_nonwritable_in_current_image 1001c4c0     LIBCMT:utility.obj
 0002:000064e0       __sehtable$___DestructExceptionObject 1001c4e0     libvcruntime:ehhelpers.obj
 0002:00006500       __sehtable$??$common_sopen_dispatch@D@@YAHQBDHHHQAHH@Z 1001c500     libucrt:open.obj
 0002:00006520       __sehtable$??$?RV<lambda_80d7abc6eae2375db70be92ccaaf9b57>@@AAV<lambda_df52180bf14694d51fdefd82613e8f07>@@V<lambda_4fa1155033dff2042363dba4e2dc3802>@@@?$__crt_seh_guarded_call@H@@QAEH$$QAV<lambda_80d7abc6eae2375db70be92ccaaf9b57>@@AAV<lambda_df52180bf14694d51fdefd82613e8f07>@@$$QAV<lambda_4fa1155033dff2042363dba4e2dc3802>@@@Z 1001c520     libucrt:output.obj
 0002:00006540       __sehtable$??$?RV<lambda_218ce3db14220d0be481dae8ef3383b6>@@AAV<lambda_628dfdc04ba53c8bfc02c9951375f3f5>@@V<lambda_57dc472bd5c9d5f3b2cbca59b8a843ae>@@@?$__crt_seh_guarded_call@H@@QAEH$$QAV<lambda_218ce3db14220d0be481dae8ef3383b6>@@AAV<lambda_628dfdc04ba53c8bfc02c9951375f3f5>@@$$QAV<lambda_57dc472bd5c9d5f3b2cbca59b8a843ae>@@@Z 1001c540     libucrt:close.obj
 0002:00006560       __sehtable$__write         1001c560     libucrt:write.obj
 0002:00006580       __sehtable$__query_new_handler 1001c580     libucrt:new_handler.obj
 0002:000065a0       __sehtable$??R<lambda_6e4b09c48022b2350581041d5f6b0c4c>@@QBE@XZ 1001c5a0     libucrt:exit.obj
 0002:000065c0       __sehtable$??$?RV<lambda_03b1d95aef87969028cfba75ccab2455>@@AAV<lambda_6e4b09c48022b2350581041d5f6b0c4c>@@V<lambda_22bdf7517842c4b3e53723af5aa32b9e>@@@?$__crt_seh_guarded_call@X@@QAEX$$QAV<lambda_03b1d95aef87969028cfba75ccab2455>@@AAV<lambda_6e4b09c48022b2350581041d5f6b0c4c>@@$$QAV<lambda_22bdf7517842c4b3e53723af5aa32b9e>@@@Z 1001c5c0     libucrt:exit.obj
 0002:000065e0       __sehtable$??$?RV<lambda_69a2805e680e0e292e8ba93315fe43a8>@@AAV<lambda_f03950bc5685219e0bcd2087efbe011e>@@V<lambda_03fcd07e894ec930e3f35da366ca99d6>@@@?$__crt_seh_guarded_call@H@@QAEH$$QAV<lambda_69a2805e680e0e292e8ba93315fe43a8>@@AAV<lambda_f03950bc5685219e0bcd2087efbe011e>@@$$QAV<lambda_03fcd07e894ec930e3f35da366ca99d6>@@@Z 1001c5e0     libucrt:onexit.obj
 0002:00006600       __sehtable$_terminate      1001c600     libucrt:terminate.obj
 0002:00006620       __sehtable$__fcloseall     1001c620     libucrt:closeall.obj
 0002:00006640       __sehtable$??$?RV<lambda_2866be3712abc81a800a822484c830d8>@@AAV<lambda_39ca0ed439415581b5b15c265174cece>@@V<lambda_2b24c74d71094a6cd0cb82e44167d71b>@@@?$__crt_seh_guarded_call@X@@QAEX$$QAV<lambda_2866be3712abc81a800a822484c830d8>@@AAV<lambda_39ca0ed439415581b5b15c265174cece>@@$$QAV<lambda_2b24c74d71094a6cd0cb82e44167d71b>@@@Z 1001c640     libucrt:fflush.obj
 0002:00006660       __sehtable$??$?RV<lambda_2cc53f568c5a2bb6f192f930a45d44ea>@@AAV<lambda_ab61a845afdef5b7c387490eaf3616ee>@@V<lambda_c2ffc0b7726aa6be21d5f0026187e748>@@@?$__crt_seh_guarded_call@X@@QAEX$$QAV<lambda_2cc53f568c5a2bb6f192f930a45d44ea>@@AAV<lambda_ab61a845afdef5b7c387490eaf3616ee>@@$$QAV<lambda_c2ffc0b7726aa6be21d5f0026187e748>@@@Z 1001c660     libucrt:fflush.obj
 0002:00006680       __sehtable$___acrt_initialize_lowio 1001c680     libucrt:ioinit.obj
 0002:000066a0       __sehtable$??$?RV<lambda_15ade71b0218206bbe3333a0c9b79046>@@AAV<lambda_da44e0f8b0f19ba52fefafb335991732>@@V<lambda_207f2d024fc103971653565357d6cd41>@@@?$__crt_seh_guarded_call@X@@QAEX$$QAV<lambda_15ade71b0218206bbe3333a0c9b79046>@@AAV<lambda_da44e0f8b0f19ba52fefafb335991732>@@$$QAV<lambda_207f2d024fc103971653565357d6cd41>@@@Z 1001c6a0     libucrt:per_thread_data.obj
 0002:000066c0       __sehtable$??$?RV<lambda_a7e850c220f1c8d1e6efeecdedd162c6>@@AAV<lambda_46720907175c18b6c9d2717bc0d2d362>@@V<lambda_9048902d66e8d99359bc9897bbb930a8>@@@?$__crt_seh_guarded_call@X@@QAEX$$QAV<lambda_a7e850c220f1c8d1e6efeecdedd162c6>@@AAV<lambda_46720907175c18b6c9d2717bc0d2d362>@@$$QAV<lambda_9048902d66e8d99359bc9897bbb930a8>@@@Z 1001c6c0     libucrt:per_thread_data.obj
 0002:000066e0       __sehtable$??$?RV<lambda_38edbb1296d33220d7e4dd0ed76b244a>@@AAV<lambda_5ce1d447e08cb34b2473517608e21441>@@V<lambda_fb385d3da700c9147fc39e65dd577a8c>@@@?$__crt_seh_guarded_call@X@@QAEX$$QAV<lambda_38edbb1296d33220d7e4dd0ed76b244a>@@AAV<lambda_5ce1d447e08cb34b2473517608e21441>@@$$QAV<lambda_fb385d3da700c9147fc39e65dd577a8c>@@@Z 1001c6e0     libucrt:per_thread_data.obj
 0002:00006700       __sehtable$??$?RV<lambda_6affb1475c98b40b75cdec977db92e3c>@@AAV<lambda_b8d4b9c228a6ecc3f80208dbb4b4a104>@@V<lambda_608742c3c92a14382c1684fc64f96c88>@@@?$__crt_seh_guarded_call@X@@QAEX$$QAV<lambda_6affb1475c98b40b75cdec977db92e3c>@@AAV<lambda_b8d4b9c228a6ecc3f80208dbb4b4a104>@@$$QAV<lambda_608742c3c92a14382c1684fc64f96c88>@@@Z 1001c700     libucrt:per_thread_data.obj
 0002:00006720       __sehtable$__alloc_osfhnd  1001c720     libucrt:osfinfo.obj
 0002:00006740       __sehtable$___acrt_lowio_ensure_fh_exists 1001c740     libucrt:osfinfo.obj
 0002:00006760       __sehtable$??$common_lseek@_J@@YA_JH_JH@Z 1001c760     libucrt:lseek.obj
 0002:00006780       __sehtable$??$?RV<lambda_e5124f882df8998aaf41531e079ba474>@@AAV<lambda_3e16ef9562a7dcce91392c22ab16ea36>@@V<lambda_e25ca0880e6ef98be67edffd8c599615>@@@?$__crt_seh_guarded_call@X@@QAEX$$QAV<lambda_e5124f882df8998aaf41531e079ba474>@@AAV<lambda_3e16ef9562a7dcce91392c22ab16ea36>@@$$QAV<lambda_e25ca0880e6ef98be67edffd8c599615>@@@Z 1001c780     libucrt:wsetlocale.obj
 0002:000067a0       __sehtable$?update_thread_multibyte_data_internal@@YAPAU__crt_multibyte_data@@QAU__acrt_ptd@@QAPAU1@@Z 1001c7a0     libucrt:mbctype.obj
 0002:000067c0       __sehtable$??$?RV<lambda_ceb1ee4838e85a9d631eb091e2fbe199>@@AAV<lambda_ae742caa10f662c28703da3d2ea5e57e>@@V<lambda_cd08b5d6af4937fe54fc07d0c9bf6b37>@@@?$__crt_seh_guarded_call@X@@QAEX$$QAV<lambda_ceb1ee4838e85a9d631eb091e2fbe199>@@AAV<lambda_ae742caa10f662c28703da3d2ea5e57e>@@$$QAV<lambda_cd08b5d6af4937fe54fc07d0c9bf6b37>@@@Z 1001c7c0     libucrt:mbctype.obj
 0002:000067e0       __sehtable$_raise          1001c7e0     libucrt:signal.obj
 0002:00006800       __sehtable$??$?RV<lambda_cbab9ec6f41b0180b23cc171c22676b0>@@AAV<lambda_44731a7d0e6d81c3e6aa82d741081786>@@V<lambda_4b292cb8dd18144e164572427af410ab>@@@?$__crt_seh_guarded_call@P6AXH@Z@@QAEP6AXH@Z$$QAV<lambda_cbab9ec6f41b0180b23cc171c22676b0>@@AAV<lambda_44731a7d0e6d81c3e6aa82d741081786>@@$$QAV<lambda_4b292cb8dd18144e164572427af410ab>@@@Z 1001c800     libucrt:signal.obj
 0002:00006820       __sehtable$_fclose         1001c820     libucrt:fclose.obj
 0002:00006840       __sehtable$??$?RV<lambda_9e9de3de5fa147e2223d7db92bc10aa6>@@AAV<lambda_38ce7e780aa69e748d6df282ebc68efe>@@V<lambda_8ca6da459f0f6780f1cff60fdc3d00e5>@@@?$__crt_seh_guarded_call@H@@QAEH$$QAV<lambda_9e9de3de5fa147e2223d7db92bc10aa6>@@AAV<lambda_38ce7e780aa69e748d6df282ebc68efe>@@$$QAV<lambda_8ca6da459f0f6780f1cff60fdc3d00e5>@@@Z 1001c840     libucrt:commit.obj
 0002:00006860       __sehtable$___acrt_update_thread_locale_data 1001c860     libucrt:locale_refcounting.obj
 0002:00006880       __sehtable$__IsNonwritableInCurrentImage 1001c880     LIBCMT:pesect.obj
 0002:00007050       .edata                     1001d050     segfault-handler.exp
 0002:00007078       rgpv                       1001d078     segfault-handler.exp
 0002:0000707c       rgszName                   1001d07c     segfault-handler.exp
 0002:00007080       rgwOrd                     1001d080     segfault-handler.exp
 0002:00007082       szName                     1001d082     segfault-handler.exp
 0002:00007098       $N00001                    1001d098     segfault-handler.exp
 0002:000073f8       .idata$6                   1001d3f8     kernel32:KERNEL32.dll
 0002:00007416       .idata$6                   1001d416     advapi32:ADVAPI32.dll
 0002:00007466       .idata$6                   1001d466     version:VERSION.dll
 0003:00000020       ?__vcrt_flsindex@@3KA      1001e020     libvcruntime:per_thread_data.obj
 0003:000000f4       ?errno_no_memory@@3HA      1001e0f4     libucrt:errno.obj
 0003:000000f8       ?doserrno_no_memory@@3KA   1001e0f8     libucrt:errno.obj
 0003:00000138       ?__acrt_flsindex@@3KA      1001e138     libucrt:per_thread_data.obj
 0003:00000528       __mbctypes                 1001e528     libucrt:mbctype.obj
 0003:00000630       __mbcasemaps               1001e630     libucrt:mbctype.obj
 0003:00000730       ?__rgctypeflag@@3PADA      1001e730     libucrt:mbctype.obj
 0003:00000738       ?__rgcode_page_info@@3PAUcode_page_info@@A 1001e738     libucrt:mbctype.obj
 0003:00000888       ?__dcrt_lowio_console_output_handle@@3PAXA 1001e888     libucrt:initcon.obj
 0003:000008a0       __module                   1001e8a0     segfault-handler.obj
 0003:000009b0       _GS_ExceptionRecord        1001e9b0     LIBCMT:gs_report.obj
 0003:00000a00       _GS_ContextRecord          1001ea00     LIBCMT:gs_report.obj
 0003:00000ccc       ?__proc_attached@@3HA      1001eccc     LIBCMT:dll_dllmain.obj
 0003:00000ce8       ?is_initialized_as_dll@@3_NA 1001ece8     LIBCMT:utility.obj
 0003:00000ce9       ?module_local_atexit_table_initialized@@3_NA 1001ece9     LIBCMT:utility.obj
 0003:00000cec       ?module_local_atexit_table@@3U_onexit_table_t@@A 1001ecec     LIBCMT:utility.obj
 0003:00000cf8       ?module_local_at_quick_exit_table@@3U_onexit_table_t@@A 1001ecf8     LIBCMT:utility.obj
 0003:00000d38       ?heap@@3V_HeapManager@@A   1001ed38     libvcruntime:undname.obj
 0003:00000d4c       ?__vcrt_startup_thread_ptd@@3U__vcrt_ptd@@A 1001ed4c     libvcruntime:per_thread_data.obj
 0003:00000d74       ___vcrt_lock_table         1001ed74     libvcruntime:locks.obj
 0003:00000d8c       ___vcrt_locks_initialized  1001ed8c     libvcruntime:locks.obj
 0003:00000d90       ?module_handles@@3PAPAUHINSTANCE__@@A 1001ed90     libvcruntime:winapi_downlevel.obj
 0003:00000d9c       ?encoded_function_pointers@@3PAPAXA 1001ed9c     libvcruntime:winapi_downlevel.obj
 0003:00000dc4       ?__acrt_new_handler@@3V?$dual_state_global@P6AHI@Z@__crt_state_management@@A 1001edc4     libucrt:new_handler.obj
 0003:00000dc8       ?c_termination_complete@@3JA 1001edc8     libucrt:exit.obj
 0003:00000dcc       ?thread_local_exit_callback_func@@3P6GXPAXK0@ZA 1001edcc     libucrt:exit.obj
 0003:00000dd8       ?program_name@?1???$common_configure_argv@D@@YAHW4_crt_argv_mode@@@Z@4PADA 1001edd8     libucrt:argv_parsing.obj
 0003:00000f08       ?__acrt_invalid_parameter_handler@@3V?$dual_state_global@P6AXPB_W00II@Z@__crt_state_management@@A 1001ef08     libucrt:invalid_parameter.obj
 0003:00000f10       ?module_handles@@3PAPAUHINSTANCE__@@A 1001ef10     libucrt:winapi_thunks.obj
 0003:00000f60       ?encoded_function_pointers@@3PAPAXA 1001ef60     libucrt:winapi_thunks.obj
 0003:000011f8       ?internal_state@?1??_mbtowc_l@@9@4U_Mbstatet@@A 1001f1f8     libucrt:mbtowc.obj
 0003:00001200       ?enable_percent_n@@3IA     1001f200     libucrt:printf_count_output.obj
 0003:00001210       ?__acrt_lock_table@@3PAU_RTL_CRITICAL_SECTION@@A 1001f210     libucrt:locks.obj
 0003:00001360       ?__acrt_locks_initialized@@3IA 1001f360     libucrt:locks.obj
 0003:00001370       ?fSystemSet@@3HA           1001f370     libucrt:mbctype.obj
 0003:00001374       ?initialized@?1??__acrt_initialize_multibyte@@9@4_NA 1001f374     libucrt:mbctype.obj
 0003:00001394       ?ctrlc_action@@3V?$dual_state_global@P6AXH@Z@__crt_state_management@@A 1001f394     libucrt:signal.obj
 0003:00001398       ?ctrlbreak_action@@3V?$dual_state_global@P6AXH@Z@__crt_state_management@@A 1001f398     libucrt:signal.obj
 0003:0000139c       ?abort_action@@3V?$dual_state_global@P6AXH@Z@__crt_state_management@@A 1001f39c     libucrt:signal.obj
 0003:000013a0       ?term_action@@3V?$dual_state_global@P6AXH@Z@__crt_state_management@@A 1001f3a0     libucrt:signal.obj
 0003:000013a4       ?user_matherr@@3V?$dual_state_global@P6AHPAU_exception@@@Z@__crt_state_management@@A 1001f3a4     libucrt:matherr.obj
 0003:000013a8       ?__acrt_global_new_mode@@3V?$dual_state_global@J@__crt_state_management@@A 1001f3a8     libucrt:new_mode.obj
 0003:000013b0       ?__acrt_app_type@@3W4_crt_app_type@@A 1001f3b0     libucrt:report_runtime_error.obj
 0003:000013bc       ?internal_pst@?1??__mbrtoc32_utf8@__crt_mbstring@@YAIPA_UPBDIPAU_Mbstatet@@@Z@4U3@A 1001f3bc     libucrt:mbrtoc32.obj
 0003:000013c8       __pmatherr_set             1001f3c8     libucrt:libm_error.obj
 0003:00001470       ?s_readMemoryFunction_UserData@@3PAXA 1001f470     StackWalker.obj
 0003:00001474       ?s_readMemoryFunction@@3P6GHPAX_K0KPAK0@ZA 1001f474     StackWalker.obj
 0004:00000060       $R000000                   10020060     * linker generated manifest res *

 Exports

  ordinal    name

        1    __register_segfault_handler_
               exported name: _register_segfault_handler_
