 asynckeystate

 Timestamp is 5c083f41 (Wed Dec  5 22:12:33 2018)

 Preferred load address is 10000000

 Start         Length     Name                   Class
 0001:00000000 0000b5d7H .text$mn                CODE
 0001:0000b5d7 00000000H .text$x                 CODE
 0002:00000000 00000120H .idata$5                DATA
 0002:00000120 00000004H .00cfg                  DATA
 0002:00000124 00000004H .CRT$XCA                DATA
 0002:00000128 00000004H .CRT$XCU                DATA
 0002:0000012c 00000004H .CRT$XCZ                DATA
 0002:00000130 00000004H .CRT$XIA                DATA
 0002:00000134 0000000cH .CRT$XIC                DATA
 0002:00000140 00000004H .CRT$XIZ                DATA
 0002:00000144 00000004H .CRT$XPA                DATA
 0002:00000148 00000008H .CRT$XPX                DATA
 0002:00000150 00000004H .CRT$XPXA               DATA
 0002:00000154 00000004H .CRT$XPZ                DATA
 0002:00000158 00000004H .CRT$XTA                DATA
 0002:0000015c 00000004H .CRT$XTZ                DATA
 0002:00000160 00000000H .gfids$y                DATA
 0002:00000160 00004b80H .rdata                  DATA
 0002:00004ce0 00000000H .rdata$r                DATA
 0002:00004ce0 0000000cH .rdata$sxdata           DATA
 0002:00004cec 00000388H .rdata$zzzdbg           DATA
 0002:00005074 00000004H .rtc$IAA                DATA
 0002:00005078 00000004H .rtc$IZZ                DATA
 0002:0000507c 00000004H .rtc$TAA                DATA
 0002:00005080 00000008H .rtc$TZZ                DATA
 0002:00005088 000003bcH .xdata$x                DATA
 0002:00005444 00000020H .didat$2                DATA
 0002:00005464 00000020H .didat$3                DATA
 0002:00005484 00000034H .didat$4                DATA
 0002:000054b8 00000314H .didat$6                DATA
 0002:000057cc 00000034H .didat$7                DATA
 0002:00005800 00000058H .edata                  DATA
 0002:00005858 00000028H .idata$2                DATA
 0002:00005880 00000014H .idata$3                DATA
 0002:00005894 00000120H .idata$4                DATA
 0002:000059b4 00000526H .idata$6                DATA
 0003:00000000 00000884H .data                   DATA
 0003:00000884 00000000H .data$r                 DATA
 0003:00000884 00000034H .didat$5                DATA
 0003:000008b8 00000a48H .bss                    DATA
 0004:00000000 00000060H .rsrc$01                DATA
 0004:00000060 00000180H .rsrc$02                DATA

  Address         Publics by Value              Rva+Base       Lib:Object

 0000:00000000       ___guard_longjmp_count     00000000     <absolute>
 0000:00000000       ___guard_iat_count         00000000     <absolute>
 0000:00000000       __except_list              00000000     <absolute>
 0000:00000000       ___guard_fids_count        00000000     <absolute>
 0000:00000000       ___guard_longjmp_table     00000000     <absolute>
 0000:00000000       ___hybrid_code_map_count   00000000     <absolute>
 0000:00000000       ___hybrid_auxiliary_iat    00000000     <absolute>
 0000:00000000       ___dynamic_value_reloc_table 00000000     <absolute>
 0000:00000000       ___guard_fids_table        00000000     <absolute>
 0000:00000000       ___volatile_metadata       00000000     <absolute>
 0000:00000000       ___guard_iat_table         00000000     <absolute>
 0000:00000000       ___enclave_config          00000000     <absolute>
 0000:00000000       ___hybrid_code_map         00000000     <absolute>
 0000:00000003       ___safe_se_handler_count   00000003     <absolute>
 0000:00000100       ___guard_flags             00000100     <absolute>
 0000:00000000       ___ImageBase               10000000     <linker-defined>
 0001:00000000       ?getAsyncKeyState@@YAXABV?$FunctionCallbackInfo@VValue@v8@@@v8@@@Z 10001000 f   asynckeystate.obj
 0001:00000050       ?init@@YAXV?$Local@VObject@v8@@@v8@@@Z 10001050 f   asynckeystate.obj
 0001:00000176       __imp_load_?GetCurrentContext@Isolate@v8@@QAE?AV?$Local@VContext@v8@@@2@XZ 10001176 f   node:node.exe
 0001:00000180       __tailMerge_node_exe       10001180     node:node.exe
 0001:00000191       __imp_load_?GetCurrent@Isolate@v8@@SAPAV12@XZ 10001191 f   node:node.exe
 0001:0000019b       __imp_load_??1HandleScope@v8@@QAE@XZ 1000119b f   node:node.exe
 0001:000001a5       __imp_load_??0HandleScope@v8@@QAE@PAVIsolate@1@@Z 100011a5 f   node:node.exe
 0001:000001af       __imp_load_?GetFunction@FunctionTemplate@v8@@QAE?AV?$MaybeLocal@VFunction@v8@@@2@V?$Local@VContext@v8@@@2@@Z 100011af f   node:node.exe
 0001:000001b9       __imp_load_?New@FunctionTemplate@v8@@SA?AV?$Local@VFunctionTemplate@v8@@@2@PAVIsolate@2@P6AXABV?$FunctionCallbackInfo@VValue@v8@@@2@@ZV?$Local@VValue@v8@@@2@V?$Local@VSignature@v8@@@2@HW4ConstructorBehavior@2@W4SideEffectType@2@@Z 100011b9 f   node:node.exe
 0001:000001c3       __imp_load_?ToLocalEmpty@V8@v8@@CAXXZ 100011c3 f   node:node.exe
 0001:000001cd       __imp_load_?IntegerValue@Value@v8@@QBE_JXZ 100011cd f   node:node.exe
 0001:000001d7       __imp_load_?NewFromUtf8@String@v8@@SA?AV?$MaybeLocal@VString@v8@@@2@PAVIsolate@2@PBDW4NewStringType@2@H@Z 100011d7 f   node:node.exe
 0001:000001e1       __imp_load_?Set@Object@v8@@QAE_NV?$Local@VValue@v8@@@2@0@Z 100011e1 f   node:node.exe
 0001:000001eb       __imp_load_?SetName@Function@v8@@QAEXV?$Local@VString@v8@@@2@@Z 100011eb f   node:node.exe
 0001:000001f5       __imp_load__node_module_register 100011f5 f   node:node.exe
 0001:000001ff       @__security_check_cookie@4 100011ff f   LIBCMT:secchk.obj
 0001:00000530       __DllMainCRTStartup@12     10001530 f   LIBCMT:dll_dllmain.obj
 0001:00000553       ___raise_securityfailure   10001553 f   LIBCMT:gs_report.obj
 0001:0000057b       ___report_gsfailure        1000157b f   LIBCMT:gs_report.obj
 0001:000006c1       ___security_init_cookie    100016c1 f   LIBCMT:gs_support.obj
 0001:0000070c       _DllMain@12                1000170c f   LIBCMT:dll_dllmain_stub.obj
 0001:00000712       ?__scrt_initialize_type_info@@YAXXZ 10001712 f   LIBCMT:tncleanup.obj
 0001:0000071e       ?__scrt_uninitialize_type_info@@YAXXZ 1000171e f   LIBCMT:tncleanup.obj
 0001:0000072a       ___local_stdio_printf_options 1000172a f i LIBCMT:default_local_stdio_options.obj
 0001:00000730       ___local_stdio_scanf_options 10001730 f i LIBCMT:default_local_stdio_options.obj
 0001:00000736       ___scrt_initialize_default_local_stdio_options 10001736 f   LIBCMT:default_local_stdio_options.obj
 0001:00000797       ___scrt_acquire_startup_lock 10001797 f   LIBCMT:utility.obj
 0001:000007c9       ___scrt_dllmain_after_initialize_c 100017c9 f   LIBCMT:utility.obj
 0001:000007f4       ___scrt_dllmain_before_initialize_c 100017f4 f   LIBCMT:utility.obj
 0001:00000802       ___scrt_dllmain_crt_thread_attach 10001802 f   LIBCMT:utility.obj
 0001:00000821       ___scrt_dllmain_crt_thread_detach 10001821 f   LIBCMT:utility.obj
 0001:0000082e       ___scrt_dllmain_exception_filter 1000182e f   LIBCMT:utility.obj
 0001:00000862       ___scrt_dllmain_uninitialize_c 10001862 f   LIBCMT:utility.obj
 0001:00000885       ___scrt_dllmain_uninitialize_critical 10001885 f   LIBCMT:utility.obj
 0001:00000892       ___scrt_initialize_crt     10001892 f   LIBCMT:utility.obj
 0001:000008cb       ___scrt_initialize_onexit_tables 100018cb f   LIBCMT:utility.obj
 0001:00000970       ___scrt_is_nonwritable_in_current_image 10001970 f   LIBCMT:utility.obj
 0001:00000a04       ___scrt_release_startup_lock 10001a04 f   LIBCMT:utility.obj
 0001:00000a21       ___scrt_uninitialize_crt   10001a21 f   LIBCMT:utility.obj
 0001:00000a49       ___scrt_get_dyn_tls_init_callback 10001a49 f   LIBCMT:dyn_tls_init.obj
 0001:00000a4f       ___scrt_fastfail           10001a4f f   LIBCMT:utility_desktop.obj
 0001:00000b69       __crt_debugger_hook        10001b69 f   LIBCMT:utility_desktop.obj
 0001:00000b71       __RTC_Initialize           10001b71 f   LIBCMT:initsect.obj
 0001:00000b9d       __RTC_Terminate            10001b9d f   LIBCMT:initsect.obj
 0001:00000bd0       __SEH_prolog4              10001bd0 f   LIBCMT:sehprolg4.obj
 0001:00000c16       __SEH_epilog4              10001c16 f   LIBCMT:sehprolg4.obj
 0001:00000c2b       @_guard_check_icall_nop@4  10001c2b f i LIBCMT:guard_support.obj
 0001:00000c2c       ___isa_available_init      10001c2c f   LIBCMT:cpu_disp.obj
 0001:00000dc3       __get_startup_argv_mode    10001dc3 f   LIBCMT:argv_mode.obj
 0001:00000dc7       ___scrt_is_ucrt_dll_in_use 10001dc7 f   LIBCMT:ucrt_detection.obj
 0001:00000e20       __except_handler4          10001e20 f   libvcruntime:chandler4.obj
 0001:00000f77       ___std_type_info_destroy_list 10001f77 f   libvcruntime:std_type_info.obj
 0001:00000f9a       ___vcrt_initialize         10001f9a f   libvcruntime:initialization.obj
 0001:00000fc3       ___vcrt_thread_attach      10001fc3 f   libvcruntime:initialization.obj
 0001:00000fce       ___vcrt_thread_detach      10001fce f   libvcruntime:initialization.obj
 0001:00000fd9       ___vcrt_uninitialize       10001fd9 f   libvcruntime:initialization.obj
 0001:00000ff8       ___vcrt_uninitialize_critical 10001ff8 f   libvcruntime:initialization.obj
 0001:00001000       _memset                    10002000 f   libvcruntime:memset.obj
 0001:00001160       __local_unwind4            10002160 f   libvcruntime:exsup4.obj
 0001:00001238       __seh_longjmp_unwind4@4    10002238 f   libvcruntime:exsup4.obj
 0001:00001260       @_EH4_CallFilterFunc@8     10002260 f   libvcruntime:exsup4.obj
 0001:00001278       @_EH4_TransferToHandler@8  10002278 f   libvcruntime:exsup4.obj
 0001:00001294       @_EH4_GlobalUnwind2@8      10002294 f   libvcruntime:exsup4.obj
 0001:000012b0       @_EH4_LocalUnwind@16       100022b0 f   libvcruntime:exsup4.obj
 0001:000012c7       ___except_validate_context_record 100022c7 f   libvcruntime:jbcxrval.obj
 0001:000012f7       ___except_validate_jump_buffer 100022f7 f   libvcruntime:jbcxrval.obj
 0001:00001324       ___vcrt_freefls@4          10002324 f   libvcruntime:per_thread_data.obj
 0001:00001340       ___vcrt_freeptd            10002340 f   libvcruntime:per_thread_data.obj
 0001:00001376       ___vcrt_getptd_noexit      10002376 f   libvcruntime:per_thread_data.obj
 0001:00001408       ___vcrt_initialize_ptd     10002408 f   libvcruntime:per_thread_data.obj
 0001:0000143b       ___vcrt_uninitialize_ptd   1000243b f   libvcruntime:per_thread_data.obj
 0001:00001456       ___vcrt_initialize_locks   10002456 f   libvcruntime:locks.obj
 0001:00001492       ___vcrt_uninitialize_locks 10002492 f   libvcruntime:locks.obj
 0001:000014c1       ??$__crt_fast_encode_pointer@PAX@@YAPAXQAX@Z 100024c1 f i libvcruntime:winapi_downlevel.obj
 0001:00001611       ___vcrt_FlsAlloc           10002611 f   libvcruntime:winapi_downlevel.obj
 0001:0000164c       ___vcrt_FlsFree            1000264c f   libvcruntime:winapi_downlevel.obj
 0001:00001687       ___vcrt_FlsGetValue        10002687 f   libvcruntime:winapi_downlevel.obj
 0001:000016c2       ___vcrt_FlsSetValue        100026c2 f   libvcruntime:winapi_downlevel.obj
 0001:00001700       ___vcrt_InitializeCriticalSectionEx 10002700 f   libvcruntime:winapi_downlevel.obj
 0001:00001747       ___vcrt_initialize_winapi_thunks 10002747 f   libvcruntime:winapi_downlevel.obj
 0001:00001770       ___vcrt_uninitialize_winapi_thunks 10002770 f   libvcruntime:winapi_downlevel.obj
 0001:000017a2       ___vcrt_initialize_pure_virtual_call_handler 100027a2 f   libvcruntime:purevirt_data.obj
 0001:000017b0       __global_unwind2           100027b0 f   libvcruntime:exsup.obj
 0001:00001816       __local_unwind2            10002816 f   libvcruntime:exsup.obj
 0001:0000189a       __abnormal_termination     1000289a f   libvcruntime:exsup.obj
 0001:000018c0       __NLG_Notify1              100028c0 f   libvcruntime:exsup.obj
 0001:000018cc       __NLG_Notify               100028cc f   libvcruntime:exsup.obj
 0001:000018e3       __NLG_Dispatch2            100028e3     libvcruntime:exsup.obj
 0001:000018e3       __NLG_Dispatch             100028e3     libvcruntime:exsup.obj
 0001:000018eb       __NLG_Call                 100028eb f   libvcruntime:exsup.obj
 0001:000018ed       __NLG_Return2              100028ed     libvcruntime:exsup.obj
 0001:000018f0       _memcpy                    100028f0 f   libvcruntime:memcpy.obj
 0001:00001e70       __CallSettingFrame@12      10002e70 f   libvcruntime:lowhelpr.obj
 0001:00001e97       __NLG_Return               10002e97     libvcruntime:lowhelpr.obj
 0001:00001ebc       ___DestructExceptionObject 10002ebc f   libvcruntime:ehhelpers.obj
 0001:00001f5c       ?_CallMemberFunction0@@YGXQAX0@Z 10002f5c f i libvcruntime:ehhelpers.obj
 0001:00001f70       _memmove                   10002f70 f   libvcruntime:memmove.obj
 0001:000024e4       ??0_LocaleUpdate@@QAE@QAU__crt_locale_pointers@@@Z 100034e4 f i libucrt:stricmp.obj
 0001:00002567       ___ascii_stricmp           10003567 f   libucrt:stricmp.obj
 0001:000025a2       __stricmp                  100035a2 f   libucrt:stricmp.obj
 0001:000025eb       __stricmp_l                100035eb f   libucrt:stricmp.obj
 0001:00002685       __initterm                 10003685 f   libucrt:initterm.obj
 0001:000026cc       __initterm_e               100036cc f   libucrt:initterm.obj
 0001:000026fa       __seh_filter_dll           100036fa f   libucrt:exception_filter.obj
 0001:0000271a       __seh_filter_exe           1000371a f   libucrt:exception_filter.obj
 0001:00002ada       ___acrt_initialize_thread_local_exit_callback 10003ada f   libucrt:exit.obj
 0001:00002ae9       __cexit                    10003ae9 f   libucrt:exit.obj
 0001:00002af8       __exit                     10003af8 f   libucrt:exit.obj
 0001:00002b0e       __is_c_termination_complete 10003b0e f   libucrt:exit.obj
 0001:00002dc6       ___acrt_allocate_buffer_for_argv 10003dc6 f   libucrt:argv_parsing.obj
 0001:00002e15       __configure_narrow_argv    10003e15 f   libucrt:argv_parsing.obj
 0001:00002f74       ??$uninitialize@A6AXAAPAPAD@Z@?$dual_state_global@PAPAD@__crt_state_management@@QAEXA6AXAAPAPAD@Z@Z 10003f74 f i libucrt:environment_initialization.obj
 0001:00002f74       ??$uninitialize@A6AXAAPAPA_W@Z@?$dual_state_global@PAPA_W@__crt_state_management@@QAEXA6AXAAPAPA_W@Z@Z 10003f74 f i libucrt:environment_initialization.obj
 0001:00002fd5       ___dcrt_uninitialize_environments_nolock 10003fd5 f   libucrt:environment_initialization.obj
 0001:0000300c       __initialize_narrow_environment 1000400c f   libucrt:environment_initialization.obj
 0001:0000313e       __execute_onexit_table     1000413e f   libucrt:onexit.obj
 0001:0000316d       __initialize_onexit_table  1000416d f   libucrt:onexit.obj
 0001:000031bd       ___acrt_uninitialize_command_line 100041bd f   libucrt:argv_data.obj
 0001:00003296       ___acrt_initialize         10004296 f   libucrt:initialization.obj
 0001:000032a8       ___acrt_thread_attach      100042a8 f   libucrt:initialization.obj
 0001:000032b3       ___acrt_thread_detach      100042b3 f   libucrt:initialization.obj
 0001:000032bb       ___acrt_uninitialize       100042bb f   libucrt:initialization.obj
 0001:000032eb       ___acrt_uninitialize_critical 100042eb f   libucrt:initialization.obj
 0001:000032fd       _terminate                 100042fd f   libucrt:terminate.obj
 0001:00003339       _free                      10004339 f   libucrt:free.obj
 0001:00003356       _strcpy_s                  10004356 f   libucrt:strcpy_s.obj
 0001:000033b0       ___acrt_locale_get_ctype_array_value 100043b0 f i libucrt:output.obj
 0001:000033d2       __chvalidchk_l             100043d2 f i libucrt:atox.obj
 0001:000033fa       __ischartype_l             100043fa f i libucrt:atox.obj
 0001:00003430       _strncmp                   10004430 f   libucrt:strncmp.obj
 0001:000034a8       _abort                     100044a8 f   libucrt:abort.obj
 0001:000034ec       _calloc                    100044ec f   libucrt:calloc.obj
 0001:000034f7       _wcsncmp                   100044f7 f   libucrt:wcsncmp.obj
 0001:00003531       ___acrt_call_reportfault   10004531 f   libucrt:invalid_parameter.obj
 0001:0000366c       ___acrt_initialize_invalid_parameter_handler 1000466c f   libucrt:invalid_parameter.obj
 0001:0000367b       __invalid_parameter        1000467b f   libucrt:invalid_parameter.obj
 0001:000036df       __invalid_parameter_noinfo 100046df f   libucrt:invalid_parameter.obj
 0001:000036ef       __invoke_watson            100046ef f   libucrt:invalid_parameter.obj
 0001:00003886       __tolower_l                10004886 f   libucrt:tolower_toupper.obj
 0001:000038a0       ___acrt_errno_from_os_error 100048a0 f   libucrt:errno.obj
 0001:000038e3       ___acrt_errno_map_os_error 100048e3 f   libucrt:errno.obj
 0001:00003906       ___doserrno                10004906 f   libucrt:errno.obj
 0001:00003919       __errno                    10004919 f   libucrt:errno.obj
 0001:00003c46       ___acrt_freeptd            10004c46 f   libucrt:per_thread_data.obj
 0001:00003c72       ___acrt_getptd             10004c72 f   libucrt:per_thread_data.obj
 0001:00003d2f       ___acrt_getptd_head        10004d2f f   libucrt:per_thread_data.obj
 0001:00003dc9       ___acrt_getptd_noexit      10004dc9 f   libucrt:per_thread_data.obj
 0001:00003e7e       ___acrt_initialize_ptd     10004e7e f   libucrt:per_thread_data.obj
 0001:00003eaa       ___acrt_uninitialize_ptd   10004eaa f   libucrt:per_thread_data.obj
 0001:00003ec4       ___acrt_update_locale_info 10004ec4 f   libucrt:locale_update.obj
 0001:00003ef1       ___acrt_update_multibyte_info 10004ef1 f   libucrt:locale_update.obj
 0001:00003f82       ___acrt_set_locale_changed 10004f82 f   libucrt:wsetlocale.obj
 0001:00003f8d       ___acrt_uninitialize_locale 10004f8d f   libucrt:wsetlocale.obj
 0001:00003fb6       ___acrt_initialize_locks   10004fb6 f   libucrt:locks.obj
 0001:00003ff7       ___acrt_lock               10004ff7 f   libucrt:locks.obj
 0001:0000400e       ___acrt_uninitialize_locks 1000500e f   libucrt:locks.obj
 0001:0000403f       ___acrt_unlock             1000503f f   libucrt:locks.obj
 0001:00004056       ___acrt_get_process_end_policy 10005056 f   libucrt:win_policies.obj
 0001:00004089       __calloc_base              10005089 f   libucrt:calloc_base.obj
 0001:000040e6       __free_base                100050e6 f   libucrt:free_base.obj
 0001:000042b9       ??$__acrt_mbs_to_wcs_cp@U__crt_win32_buffer_internal_dynamic_resizing@@@@YAHQBDAAV?$__crt_win32_buffer@_WU__crt_win32_buffer_internal_dynamic_resizing@@@@I@Z 100052b9 f i libucrt:argv_wildcards.obj
 0001:000047d5       ?__acrt_get_utf8_acp_compatibility_codepage@@YAIXZ 100057d5 f i libucrt:argv_wildcards.obj
 0001:00004816       ?_deallocate@?$__crt_win32_buffer@DU__crt_win32_buffer_internal_dynamic_resizing@@@@AAEXXZ 10005816 f i libucrt:argv_wildcards.obj
 0001:00004816       ?_deallocate@?$__crt_win32_buffer@_WU__crt_win32_buffer_internal_dynamic_resizing@@@@AAEXXZ 10005816 f i libucrt:argv_wildcards.obj
 0001:00004830       ?allocate@?$__crt_win32_buffer@DU__crt_win32_buffer_internal_dynamic_resizing@@@@QAEHI@Z 10005830 f i libucrt:argv_wildcards.obj
 0001:0000486c       ?allocate@?$__crt_win32_buffer@_WU__crt_win32_buffer_internal_dynamic_resizing@@@@QAEHI@Z 1000586c f i libucrt:argv_wildcards.obj
 0001:000048ab       ?allocate@__crt_win32_buffer_internal_dynamic_resizing@@SAHQAPAXIABV__crt_win32_buffer_empty_debug_info@@@Z 100058ab f i libucrt:argv_wildcards.obj
 0001:00004951       ___acrt_expand_narrow_argv_wildcards 10005951 f   libucrt:argv_wildcards.obj
 0001:00004a23       ?allocate@?$__crt_win32_buffer@DU__crt_win32_buffer_no_resizing@@@@QAEHI@Z 10005a23 f i libucrt:getmodulefilenamea.obj
 0001:00004a4a       ?set_to_nullptr@?$__crt_win32_buffer@DU__crt_win32_buffer_no_resizing@@@@QAEXXZ 10005a4a f i libucrt:getmodulefilenamea.obj
 0001:00004a5e       ___acrt_GetModuleFileNameA 10005a5e f   libucrt:getmodulefilenamea.obj
 0001:00005011       ___acrt_initialize_multibyte 10006011 f   libucrt:mbctype.obj
 0001:00005059       ___acrt_update_thread_multibyte_data 10006059 f   libucrt:mbctype.obj
 0001:0000506c       __setmbcp_nolock           1000606c f   libucrt:mbctype.obj
 0001:0000533b       __ismbblead                1000633b f   libucrt:ismbbyte.obj
 0001:00005353       ___acrt_initialize_command_line 10006353 f   libucrt:argv_data.obj
 0001:0000536c       ___acrt_MultiByteToWideChar 1000636c f   libucrt:multibytetowidechar.obj
 0001:000053e8       ___acrt_WideCharToMultiByte 100063e8 f   libucrt:widechartomultibyte.obj
 0001:000054cc       ___dcrt_get_narrow_environment_from_os 100064cc f   libucrt:get_environment_from_os.obj
 0001:00005552       __recalloc_base            10006552 f   libucrt:recalloc.obj
 0001:0000572b       ___acrt_initialize_lowio   1000672b f   libucrt:ioinit.obj
 0001:00005781       ___acrt_uninitialize_lowio 10006781 f   libucrt:ioinit.obj
 0001:00005947       ___acrt_AppPolicyGetProcessTerminationMethodInternal@4 10006947 f   libucrt:winapi_thunks.obj
 0001:00005987       ___acrt_AreFileApisANSI@0  10006987 f   libucrt:winapi_thunks.obj
 0001:000059a6       ___acrt_FlsAlloc@4         100069a6 f   libucrt:winapi_thunks.obj
 0001:000059e5       ___acrt_FlsFree@4          100069e5 f   libucrt:winapi_thunks.obj
 0001:00005a24       ___acrt_FlsGetValue@4      10006a24 f   libucrt:winapi_thunks.obj
 0001:00005a63       ___acrt_FlsSetValue@8      10006a63 f   libucrt:winapi_thunks.obj
 0001:00005aa5       ___acrt_InitializeCriticalSectionEx@12 10006aa5 f   libucrt:winapi_thunks.obj
 0001:00005af0       ___acrt_LCMapStringEx@36   10006af0 f   libucrt:winapi_thunks.obj
 0001:00005b4d       ___acrt_LocaleNameToLCID@8 10006b4d f   libucrt:winapi_thunks.obj
 0001:00005b7e       ___acrt_initialize_winapi_thunks 10006b7e f   libucrt:winapi_thunks.obj
 0001:00005ba9       ___acrt_uninitialize_winapi_thunks 10006ba9 f   libucrt:winapi_thunks.obj
 0001:00005bdf       ___acrt_initialize_heap    10006bdf f   libucrt:heap_handle.obj
 0001:00005bf0       ___acrt_uninitialize_heap  10006bf0 f   libucrt:heap_handle.obj
 0001:00005bfa       ___acrt_execute_initializers 10006bfa f   libucrt:shared_initialization.obj
 0001:00005c62       ___acrt_execute_uninitializers 10006c62 f   libucrt:shared_initialization.obj
 0001:00005c93       ___acrt_initialize_new_handler 10006c93 f   libucrt:new_handler.obj
 0001:00005ca2       __callnewh                 10006ca2 f   libucrt:new_handler.obj
 0001:00005ccf       __query_new_handler        10006ccf f   libucrt:new_handler.obj
 0001:00005de5       ___acrt_get_sigabrt_handler 10006de5 f   libucrt:signal.obj
 0001:00005e0e       ___acrt_initialize_signal_handlers 10006e0e f   libucrt:signal.obj
 0001:00005e2c       ___fpecode                 10006e2c f   libucrt:signal.obj
 0001:00005e35       _raise                     10006e35 f   libucrt:signal.obj
 0001:0000601c       ___acrt_has_user_matherr   1000701c f   libucrt:matherr.obj
 0001:00006034       ___acrt_initialize_user_matherr 10007034 f   libucrt:matherr.obj
 0001:00006043       ___acrt_invoke_user_matherr 10007043 f   libucrt:matherr.obj
 0001:00006240       ___acrt_stdio_flush_nolock 10007240 f   libucrt:fflush.obj
 0001:000062a5       __fflush_nolock            100072a5 f   libucrt:fflush.obj
 0001:000062ed       __flushall                 100072ed f   libucrt:fflush.obj
 0001:000062f6       ___acrt_initialize_stdio   100072f6 f   libucrt:_file.obj
 0001:000063be       ___acrt_uninitialize_stdio 100073be f   libucrt:_file.obj
 0001:0000640a       __lock_file                1000740a f   libucrt:_file.obj
 0001:0000641e       __unlock_file              1000741e f   libucrt:_file.obj
 0001:00006432       __malloc_base              10007432 f   libucrt:malloc_base.obj
 0001:00006480       __mbtowc_l                 10007480 f   libucrt:mbtowc.obj
 0001:000065c4       _mbtowc                    100075c4 f   libucrt:mbtowc.obj
 0001:000065de       __fileno                   100075de f   libucrt:fileno.obj
 0001:00006605       ___pctype_func             10007605 f   libucrt:ctype.obj
 0001:0000662b       __isctype_l                1000762b f   libucrt:isctype.obj
 0001:00006700       __isleadbyte_l             10007700 f i libucrt:_wctype.obj
 0001:00006928       ___acrt_LCMapStringA       10007928 f   libucrt:lcmapstringa.obj
 0001:00006973       __freea_crt                10007973 f i libucrt:lcmapstringa.obj
 0001:00006993       ___acrt_add_locale_ref     10007993 f   libucrt:locale_refcounting.obj
 0001:00006a10       ___acrt_free_locale        10007a10 f   libucrt:locale_refcounting.obj
 0001:00006b5a       ___acrt_locale_add_lc_time_reference 10007b5a f   libucrt:locale_refcounting.obj
 0001:00006b83       ___acrt_locale_free_lc_time_if_unreferenced 10007b83 f   libucrt:locale_refcounting.obj
 0001:00006bb4       ___acrt_locale_release_lc_time_reference 10007bb4 f   libucrt:locale_refcounting.obj
 0001:00006bdd       ___acrt_release_locale_ref 10007bdd f   libucrt:locale_refcounting.obj
 0001:00006c5e       ___acrt_update_thread_locale_data 10007c5e f   libucrt:locale_refcounting.obj
 0001:00006cd5       __updatetlocinfoEx_nolock  10007cd5 f   libucrt:locale_refcounting.obj
 0001:00006d25       ___acrt_locale_free_monetary 10007d25 f   libucrt:initmon.obj
 0001:00006e23       ___acrt_locale_free_numeric 10007e23 f   libucrt:initnum.obj
 0001:00006ec4       ___acrt_locale_free_time   10007ec4 f   libucrt:inittime.obj
 0001:00006fa8       ___acrt_GetStringTypeA     10007fa8 f   libucrt:getstringtypea.obj
 0001:000070ad       __query_new_mode           100080ad f   libucrt:new_mode.obj
 0001:00007100       _qsort                     10008100 f   libucrt:qsort.obj
 0001:000075f7       _strncpy_s                 100085f7 f   libucrt:strncpy_s.obj
 0001:00007610       _strpbrk                   10008610 f   libucrt:strpbrk.obj
 0001:00007650       __mbsdec                   10008650 f   libucrt:mbsdec.obj
 0001:00007667       __mbsdec_l                 10008667 f   libucrt:mbsdec.obj
 0001:00007705       __msize_base               10008705 f   libucrt:msize.obj
 0001:00007738       __realloc_base             10008738 f   libucrt:realloc_base.obj
 0001:000077a1       ___acrt_lowio_create_handle_array 100087a1 f   libucrt:osfinfo.obj
 0001:0000781e       ___acrt_lowio_destroy_handle_array 1000881e f   libucrt:osfinfo.obj
 0001:00007853       ___acrt_lowio_ensure_fh_exists 10008853 f   libucrt:osfinfo.obj
 0001:000078e7       ___acrt_lowio_lock_fh      100088e7 f   libucrt:osfinfo.obj
 0001:0000790a       ___acrt_lowio_unlock_fh    1000890a f   libucrt:osfinfo.obj
 0001:0000792d       __free_osfhnd              1000892d f   libucrt:osfinfo.obj
 0001:000079be       __get_osfhandle            100089be f   libucrt:osfinfo.obj
 0001:00007adc       ___acrt_DownlevelLocaleNameToLCID 10008adc f   libucrt:lcidtoname_downlevel.obj
 0001:00007ba0       __commit                   10008ba0 f   libucrt:commit.obj
 0001:000083a4       __write                    100093a4 f   libucrt:write.obj
 0001:0000848c       __write_nolock             1000948c f   libucrt:write.obj
 0001:00008670       __fcloseall                10009670 f   libucrt:closeall.obj
 0001:00008711       ___acrt_stdio_free_buffer_nolock 10009711 f   libucrt:_freebuf.obj
 0001:00008751       __isatty                   10009751 f   libucrt:isatty.obj
 0001:000087d3       ?__mbrtowc_utf8@__crt_mbstring@@YAIPA_WPBDIPAU_Mbstatet@@@Z 100097d3 f   libucrt:mbrtowc.obj
 0001:00008815       ?__mbsrtowcs_utf8@__crt_mbstring@@YAIPA_WPAPBDIPAU_Mbstatet@@@Z 10009815 f   libucrt:mbrtowc.obj
 0001:00008912       ?return_illegal_sequence@__crt_mbstring@@YAIPAU_Mbstatet@@@Z 10009912 f i libucrt:c32rtomb.obj
 0001:00008931       ___strncnt                 10009931 f   libucrt:strncnt.obj
 0001:0000894d       __query_app_type           1000994d f   libucrt:report_runtime_error.obj
 0001:000089d1       __lseeki64_nolock          100099d1 f   libucrt:lseek.obj
 0001:000089ec       __putwch_nolock            100099ec f   libucrt:putwch.obj
 0001:00008a20       __fclose_nolock            10009a20 f   libucrt:fclose.obj
 0001:00008a97       _fclose                    10009a97 f   libucrt:fclose.obj
 0001:00008b11       ?__mbrtoc32_utf8@__crt_mbstring@@YAIPA_UPBDIPAU_Mbstatet@@@Z 10009b11 f   libucrt:mbrtoc32.obj
 0001:00008cd0       __CIlog10                  10009cd0 f   libucrt:log10_impl.obj
 0001:00008d0b       __CIlog10_default          10009d0b f   libucrt:log10_impl.obj
 0001:00008d1f       __log10_default            10009d1f     libucrt:log10_impl.obj
 0001:00008de0       _ceil                      10009de0 f   libucrt:ceil_pentium4.obj
 0001:00008e20       __ceil_pentium4            10009e20 f   libucrt:ceil_pentium4.obj
 0001:00008f00       ___ascii_strnicmp          10009f00 f   libucrt:_strnicm.obj
 0001:00008f80       ___dcrt_lowio_ensure_console_output_initialized 10009f80 f   libucrt:initcon.obj
 0001:00008f9f       ___dcrt_terminate_console_output 10009f9f f   libucrt:initcon.obj
 0001:00008fb6       ___dcrt_write_console      10009fb6 f   libucrt:initcon.obj
 0001:0000908d       __close                    1000a08d f   libucrt:close.obj
 0001:0000911c       __close_nolock             1000a11c f   libucrt:close.obj
 0001:000091b8       ?__acrt_stdio_free_stream@@YAXV__crt_stdio_stream@@@Z 1000a1b8 f   libucrt:stream.obj
 0001:000091f3       ___acrt_initialize_sse2    1000a1f3 f   libucrt:mathfcns.obj
 0001:00009210       __CIlog10_pentium4         1000a210 f   libucrt:log10_pentium4.obj
 0001:00009228       __log10_pentium4           1000a228     libucrt:log10_pentium4.obj
 0001:000094c0       __fFEXP                    1000a4c0 f   libucrt:87tran.obj
 0001:00009517       __rtinfpopse               1000a517     libucrt:87tran.obj
 0001:00009519       __rtinfnpopse              1000a519     libucrt:87tran.obj
 0001:00009529       __fFLN                     1000a529     libucrt:87tran.obj
 0001:000095de       __rtinfpop                 1000a5de     libucrt:87tran.obj
 0001:000095e0       __rtinfnpop                1000a5e0     libucrt:87tran.obj
 0001:000095f0       __rtforexpinf              1000a5f0 f   libucrt:87tran.obj
 0001:000095fd       __ffexpm1                  1000a5fd     libucrt:87tran.obj
 0001:000096b0       __trandisp1                1000a6b0 f   libucrt:87disp.obj
 0001:00009725       __trandisp2                1000a725 f   libucrt:87disp.obj
 0001:000097bf       __rttospopde               1000a7bf     libucrt:87disp.obj
 0001:000097c4       __rttospop                 1000a7c4     libucrt:87disp.obj
 0001:000097d0       __rtnospop                 1000a7d0 f   libucrt:87disp.obj
 0001:000097e0       __rttosnpop                1000a7e0 f   libucrt:87disp.obj
 0001:000097e1       __rtnospopde               1000a7e1     libucrt:87disp.obj
 0001:000097e8       __rtzeropop                1000a7e8     libucrt:87disp.obj
 0001:000097ea       __rtzeronpop               1000a7ea     libucrt:87disp.obj
 0001:000097f0       __rtzerospop               1000a7f0 f   libucrt:87disp.obj
 0001:000097fd       __rtonepop                 1000a7fd     libucrt:87disp.obj
 0001:00009800       __rtonenpop                1000a800 f   libucrt:87disp.obj
 0001:00009810       __tosnan1                  1000a810 f   libucrt:87disp.obj
 0001:00009840       __nosnan2                  1000a840 f   libucrt:87disp.obj
 0001:00009850       __tosnan2                  1000a850 f   libucrt:87disp.obj
 0001:00009880       __nan2                     1000a880 f   libucrt:87disp.obj
 0001:000098c0       __rtindfpop                1000a8c0 f   libucrt:87disp.obj
 0001:000098c2       __rtindfnpop               1000a8c2     libucrt:87disp.obj
 0001:000098d3       __rttosnpopde              1000a8d3     libucrt:87disp.obj
 0001:000098e0       __rtatan2inf               1000a8e0 f   libucrt:87disp.obj
 0001:000098fd       __rtchsifneg               1000a8fd     libucrt:87disp.obj
 0001:00009910       __twoToTOS                 1000a910 f   libucrt:common.obj
 0001:00009925       __load_CW                  1000a925 f   libucrt:common.obj
 0001:0000993c       __convertTOStoQNaN         1000a93c f   libucrt:common.obj
 0001:00009955       __fload_withFB             1000a955 f   libucrt:common.obj
 0001:00009998       __checkTOS_withFB          1000a998 f   libucrt:common.obj
 0001:000099ae       __fast_exit                1000a9ae f   libucrt:common.obj
 0001:000099bb       __math_exit                1000a9bb f   libucrt:common.obj
 0001:000099e5       __check_overflow_exit      1000a9e5 f   libucrt:common.obj
 0001:000099f9       __check_range_exit         1000a9f9 f   libucrt:common.obj
 0001:00009aa0       __startTwoArgErrorHandling 1000aaa0 f   libucrt:genexcep.obj
 0001:00009ab7       __startOneArgErrorHandling 1000aab7 f   libucrt:genexcep.obj
 0001:00009af3       ___libm_error_support      1000aaf3 f   libucrt:libm_error.obj
 0001:00009ce9       __ceil_default             1000ace9 f   libucrt:ceil.obj
 0001:00009da0       __clrfp                    1000ada0 f   libucrt:fpctrl.obj
 0001:00009db3       __ctrlfp                   1000adb3 f   libucrt:fpctrl.obj
 0001:00009ddf       __set_statfp               1000addf f   libucrt:fpctrl.obj
 0001:00009e3a       __statfp                   1000ae3a f   libucrt:fpctrl.obj
 0001:00009e4c       __d_inttype                1000ae4c f   libucrt:powhlp.obj
 0001:00009eb6       __powhlp                   1000aeb6 f   libucrt:powhlp.obj
 0001:00009fe2       __87except                 1000afe2 f   libucrt:87except.obj
 0001:0000a0ec       __frnd                     1000b0ec f   libucrt:frnd.obj
 0001:0000a102       __errcode                  1000b102 f   libucrt:fpexcept.obj
 0001:0000a136       __except1                  1000b136 f   libucrt:fpexcept.obj
 0001:0000a204       __handle_exc               1000b204 f   libucrt:fpexcept.obj
 0001:0000a3f1       __raise_exc                1000b3f1 f   libucrt:fpexcept.obj
 0001:0000a414       __raise_exc_ex             1000b414 f   libucrt:fpexcept.obj
 0001:0000a70a       __set_errno_from_matherr   1000b70a f   libucrt:fpexcept.obj
 0001:0000a739       __umatherr                 1000b739 f   libucrt:fpexcept.obj
 0001:0000a7db       __decomp                   1000b7db f   libucrt:util.obj
 0001:0000a8b9       __set_exp                  1000b8b9 f   libucrt:util.obj
 0001:0000a8e8       __sptype                   1000b8e8 f   libucrt:util.obj
 0001:0000a946       __fpclass                  1000b946 f   libucrt:ieeemisc.obj
 0001:0000a9ea       _IsProcessorFeaturePresent@4 1000b9ea f   kernel32:KERNEL32.dll
 0001:0000a9f0       ?DloadAcquireSectionWriteAccess@@YGXXZ 1000b9f0 f i DelayImp:delayhlp.obj
 0001:0000aa23       ?DloadGetSRWLockFunctionPointers@@YGEXZ 1000ba23 f i DelayImp:delayhlp.obj
 0001:0000aa96       ?DloadLock@@YGXXZ          1000ba96 f i DelayImp:delayhlp.obj
 0001:0000aad5       ?DloadMakePermanentImageCommit@@YGXPAXK@Z 1000bad5 f i DelayImp:delayhlp.obj
 0001:0000ab44       ?DloadObtainSection@@YGPAXPAK0@Z 1000bb44 f i DelayImp:delayhlp.obj
 0001:0000abbf       ?DloadProtectSection@@YGXKPAK@Z 1000bbbf f i DelayImp:delayhlp.obj
 0001:0000ac2d       ?DloadReleaseSectionWriteAccess@@YGXXZ 1000bc2d f i DelayImp:delayhlp.obj
 0001:0000ac63       ?DloadUnlock@@YGXXZ        1000bc63 f i DelayImp:delayhlp.obj
 0001:0000ac8f       ___delayLoadHelper2@8      1000bc8f f   DelayImp:delayhlp.obj
 0001:0000af00       __FindPESection            1000bf00 f   LIBCMT:pesect.obj
 0001:0000af50       __IsNonwritableInCurrentImage 1000bf50 f   LIBCMT:pesect.obj
 0001:0000b010       __ValidateImageBase        1000c010 f   LIBCMT:pesect.obj
 0001:0000b050       __aulldvrm                 1000c050 f   LIBCMT:ulldvrm.obj
 0001:0000b0f0       __allmul                   1000c0f0 f   LIBCMT:llmul.obj
 0001:0000b130       __alldvrm                  1000c130 f   LIBCMT:lldvrm.obj
 0001:0000b210       __aullshr                  1000c210 f   LIBCMT:ullshr.obj
 0001:0000b230       __alloca_probe_16          1000c230 f   LIBCMT:alloca16.obj
 0001:0000b246       __alloca_probe_8           1000c246     LIBCMT:alloca16.obj
 0001:0000b260       __alloca_probe             1000c260 f   LIBCMT:chkstk.obj
 0001:0000b260       __chkstk                   1000c260 f   LIBCMT:chkstk.obj
 0001:0000b290       __allshl                   1000c290 f   LIBCMT:llshl.obj
 0001:0000b2b0       __ftol2_sse                1000c2b0 f   LIBCMT:ftol2.obj
 0001:0000b2b9       __ftol2_pentium4           1000c2b9 f   LIBCMT:ftol2.obj
 0001:0000b2cc       __ftol2_sse_excpt          1000c2cc f   LIBCMT:ftol2.obj
 0001:0000b2f0       __ftol2                    1000c2f0 f   LIBCMT:ftol2.obj
 0001:0000b370       _strchr                    1000c370 f   libvcruntime:strchr.obj
 0001:0000b3de       ___from_strstr_to_strchr   1000c3de     libvcruntime:strchr.obj
 0001:0000b4a0       _strrchr                   1000c4a0 f   libvcruntime:strrchr.obj
 0002:00000000       __imp__GetModuleHandleA@4  1000d000     kernel32:KERNEL32.dll
 0002:00000004       __imp__VirtualQuery@12     1000d004     kernel32:KERNEL32.dll
 0002:00000008       __imp__VirtualProtect@16   1000d008     kernel32:KERNEL32.dll
 0002:0000000c       __imp__GetSystemInfo@4     1000d00c     kernel32:KERNEL32.dll
 0002:00000010       __imp__UnhandledExceptionFilter@4 1000d010     kernel32:KERNEL32.dll
 0002:00000014       __imp__SetUnhandledExceptionFilter@4 1000d014     kernel32:KERNEL32.dll
 0002:00000018       __imp__GetCurrentProcess@0 1000d018     kernel32:KERNEL32.dll
 0002:0000001c       __imp__TerminateProcess@8  1000d01c     kernel32:KERNEL32.dll
 0002:00000020       __imp__IsProcessorFeaturePresent@4 1000d020     kernel32:KERNEL32.dll
 0002:00000024       __imp__QueryPerformanceCounter@4 1000d024     kernel32:KERNEL32.dll
 0002:00000028       __imp__GetCurrentProcessId@0 1000d028     kernel32:KERNEL32.dll
 0002:0000002c       __imp__GetCurrentThreadId@0 1000d02c     kernel32:KERNEL32.dll
 0002:00000030       __imp__GetSystemTimeAsFileTime@4 1000d030     kernel32:KERNEL32.dll
 0002:00000034       __imp__InitializeSListHead@4 1000d034     kernel32:KERNEL32.dll
 0002:00000038       __imp__IsDebuggerPresent@0 1000d038     kernel32:KERNEL32.dll
 0002:0000003c       __imp__GetStartupInfoW@4   1000d03c     kernel32:KERNEL32.dll
 0002:00000040       __imp__GetModuleHandleW@4  1000d040     kernel32:KERNEL32.dll
 0002:00000044       __imp__InterlockedFlushSList@4 1000d044     kernel32:KERNEL32.dll
 0002:00000048       __imp__RtlUnwind@16        1000d048     kernel32:KERNEL32.dll
 0002:0000004c       __imp__GetLastError@0      1000d04c     kernel32:KERNEL32.dll
 0002:00000050       __imp__SetLastError@4      1000d050     kernel32:KERNEL32.dll
 0002:00000054       __imp__EnterCriticalSection@4 1000d054     kernel32:KERNEL32.dll
 0002:00000058       __imp__LeaveCriticalSection@4 1000d058     kernel32:KERNEL32.dll
 0002:0000005c       __imp__DeleteCriticalSection@4 1000d05c     kernel32:KERNEL32.dll
 0002:00000060       __imp__InitializeCriticalSectionAndSpinCount@8 1000d060     kernel32:KERNEL32.dll
 0002:00000064       __imp__TlsAlloc@0          1000d064     kernel32:KERNEL32.dll
 0002:00000068       __imp__TlsGetValue@4       1000d068     kernel32:KERNEL32.dll
 0002:0000006c       __imp__TlsSetValue@8       1000d06c     kernel32:KERNEL32.dll
 0002:00000070       __imp__TlsFree@4           1000d070     kernel32:KERNEL32.dll
 0002:00000074       __imp__FreeLibrary@4       1000d074     kernel32:KERNEL32.dll
 0002:00000078       __imp__GetProcAddress@8    1000d078     kernel32:KERNEL32.dll
 0002:0000007c       __imp__LoadLibraryExW@12   1000d07c     kernel32:KERNEL32.dll
 0002:00000080       __imp__RaiseException@16   1000d080     kernel32:KERNEL32.dll
 0002:00000084       __imp__ExitProcess@4       1000d084     kernel32:KERNEL32.dll
 0002:00000088       __imp__GetModuleHandleExW@12 1000d088     kernel32:KERNEL32.dll
 0002:0000008c       __imp__GetModuleFileNameW@12 1000d08c     kernel32:KERNEL32.dll
 0002:00000090       __imp__HeapAlloc@12        1000d090     kernel32:KERNEL32.dll
 0002:00000094       __imp__HeapFree@12         1000d094     kernel32:KERNEL32.dll
 0002:00000098       __imp__FindClose@4         1000d098     kernel32:KERNEL32.dll
 0002:0000009c       __imp__FindFirstFileExW@24 1000d09c     kernel32:KERNEL32.dll
 0002:000000a0       __imp__FindNextFileW@8     1000d0a0     kernel32:KERNEL32.dll
 0002:000000a4       __imp__IsValidCodePage@4   1000d0a4     kernel32:KERNEL32.dll
 0002:000000a8       __imp__GetACP@0            1000d0a8     kernel32:KERNEL32.dll
 0002:000000ac       __imp__GetOEMCP@0          1000d0ac     kernel32:KERNEL32.dll
 0002:000000b0       __imp__GetCPInfo@8         1000d0b0     kernel32:KERNEL32.dll
 0002:000000b4       __imp__GetCommandLineA@0   1000d0b4     kernel32:KERNEL32.dll
 0002:000000b8       __imp__GetCommandLineW@0   1000d0b8     kernel32:KERNEL32.dll
 0002:000000bc       __imp__MultiByteToWideChar@24 1000d0bc     kernel32:KERNEL32.dll
 0002:000000c0       __imp__WideCharToMultiByte@32 1000d0c0     kernel32:KERNEL32.dll
 0002:000000c4       __imp__GetEnvironmentStringsW@0 1000d0c4     kernel32:KERNEL32.dll
 0002:000000c8       __imp__FreeEnvironmentStringsW@4 1000d0c8     kernel32:KERNEL32.dll
 0002:000000cc       __imp__GetStdHandle@4      1000d0cc     kernel32:KERNEL32.dll
 0002:000000d0       __imp__GetFileType@4       1000d0d0     kernel32:KERNEL32.dll
 0002:000000d4       __imp__LCMapStringW@24     1000d0d4     kernel32:KERNEL32.dll
 0002:000000d8       __imp__GetProcessHeap@0    1000d0d8     kernel32:KERNEL32.dll
 0002:000000dc       __imp__GetStringTypeW@16   1000d0dc     kernel32:KERNEL32.dll
 0002:000000e0       __imp__HeapSize@12         1000d0e0     kernel32:KERNEL32.dll
 0002:000000e4       __imp__HeapReAlloc@16      1000d0e4     kernel32:KERNEL32.dll
 0002:000000e8       __imp__SetStdHandle@8      1000d0e8     kernel32:KERNEL32.dll
 0002:000000ec       __imp__FlushFileBuffers@4  1000d0ec     kernel32:KERNEL32.dll
 0002:000000f0       __imp__WriteFile@20        1000d0f0     kernel32:KERNEL32.dll
 0002:000000f4       __imp__GetConsoleCP@0      1000d0f4     kernel32:KERNEL32.dll
 0002:000000f8       __imp__GetConsoleMode@8    1000d0f8     kernel32:KERNEL32.dll
 0002:000000fc       __imp__SetFilePointerEx@20 1000d0fc     kernel32:KERNEL32.dll
 0002:00000100       __imp__CreateFileW@28      1000d100     kernel32:KERNEL32.dll
 0002:00000104       __imp__CloseHandle@4       1000d104     kernel32:KERNEL32.dll
 0002:00000108       __imp__WriteConsoleW@20    1000d108     kernel32:KERNEL32.dll
 0002:0000010c       __imp__DecodePointer@4     1000d10c     kernel32:KERNEL32.dll
 0002:00000110       __imp__LoadLibraryExA@12   1000d110     kernel32:KERNEL32.dll
 0002:00000114       \177KERNEL32_NULL_THUNK_DATA 1000d114     kernel32:KERNEL32.dll
 0002:00000118       __imp__GetAsyncKeyState@4  1000d118     user32:USER32.dll
 0002:0000011c       \177USER32_NULL_THUNK_DATA 1000d11c     user32:USER32.dll
 0002:00000120       ___guard_check_icall_fptr  1000d120     LIBCMT:guard_support.obj
 0002:00000124       ___xc_a                    1000d124     LIBCMT:initializers.obj
 0002:00000128       __register_addon_          1000d128     asynckeystate.obj
 0002:0000012c       ___xc_z                    1000d12c     LIBCMT:initializers.obj
 0002:00000130       ___xi_a                    1000d130     LIBCMT:initializers.obj
 0002:00000134       ___acrt_multibyte_initializer 1000d134     libucrt:multibyte_initializer.obj
 0002:00000138       ___acrt_stdio_initializer  1000d138     libucrt:stdio_initializer.obj
 0002:0000013c       ___acrt_tran_sse2_initializer 1000d13c     libucrt:sse2_initializer.obj
 0002:00000140       ___xi_z                    1000d140     LIBCMT:initializers.obj
 0002:00000144       ___xp_a                    1000d144     LIBCMT:initializers.obj
 0002:00000148       ___acrt_locale_terminator  1000d148     libucrt:locale_initializer.obj
 0002:0000014c       ___dcrt_console_output_terminator 1000d14c     libucrt:console_output_initializer.obj
 0002:00000150       ___acrt_stdio_terminator   1000d150     libucrt:stdio_initializer.obj
 0002:00000154       ___xp_z                    1000d154     LIBCMT:initializers.obj
 0002:00000158       ___xt_a                    1000d158     LIBCMT:initializers.obj
 0002:0000015c       ___xt_z                    1000d15c     LIBCMT:initializers.obj
 0002:00000160       __sz_node_exe              1000d160     node:node.exe
 0002:0000016c       __pDefaultRawDllMain       1000d16c     LIBCMT:dll_dllmain.obj
 0002:0000016c       __pRawDllMain              1000d16c     LIBCMT:dll_dllmain.obj
 0002:00000314       ??_C@_08EHJDFFNH@__based?$CI@ 1000d314     libvcruntime:undname.obj
 0002:00000320       ??_C@_07KOLFKCDI@__cdecl@  1000d320     libvcruntime:undname.obj
 0002:00000328       ??_C@_08GHMPAG@__pascal@   1000d328     libvcruntime:undname.obj
 0002:00000334       ??_C@_09IFJBGAPI@__stdcall@ 1000d334     libvcruntime:undname.obj
 0002:00000340       ??_C@_0L@NPHFGOKO@__thiscall@ 1000d340     libvcruntime:undname.obj
 0002:0000034c       ??_C@_0L@JMKHOMEK@__fastcall@ 1000d34c     libvcruntime:undname.obj
 0002:00000358       ??_C@_0N@BCKKPABJ@__vectorcall@ 1000d358     libvcruntime:undname.obj
 0002:00000368       ??_C@_09HIJEGCPM@__clrcall@ 1000d368     libvcruntime:undname.obj
 0002:00000374       ??_C@_06GHPCKEAG@__eabi@   1000d374     libvcruntime:undname.obj
 0002:0000037c       ??_C@_09IOPIDJLG@__swift_1@ 1000d37c     libvcruntime:undname.obj
 0002:00000388       ??_C@_09KFNFGKHF@__swift_2@ 1000d388     libvcruntime:undname.obj
 0002:00000394       ??_C@_07JOMMBBKO@__ptr64@  1000d394     libvcruntime:undname.obj
 0002:0000039c       ??_C@_0L@PILCLIHE@__restrict@ 1000d39c     libvcruntime:undname.obj
 0002:000003a8       ??_C@_0M@GFIIJFMG@__unaligned@ 1000d3a8     libvcruntime:undname.obj
 0002:000003b4       ??_C@_09DHDLOLLB@restrict?$CI@ 1000d3b4     libvcruntime:undname.obj
 0002:000003be       ??_C@_00CNPNBAHC@@         1000d3be     libvcruntime:undname.obj
 0002:000003c0       ??_C@_04NIHEBCM@?5new@     1000d3c0     libvcruntime:undname.obj
 0002:000003c8       ??_C@_07FPCDHGMM@?5delete@ 1000d3c8     libvcruntime:undname.obj
 0002:000003d0       ??_C@_01NEMOKFLO@?$DN@     1000d3d0     libvcruntime:undname.obj
 0002:000003d4       ??_C@_02GPIOPFAK@?$DO?$DO@ 1000d3d4     libvcruntime:undname.obj
 0002:000003d8       ??_C@_02FODMEDOG@?$DM?$DM@ 1000d3d8     libvcruntime:undname.obj
 0002:000003dc       ??_C@_01DCLJPIOD@?$CB@     1000d3dc     libvcruntime:undname.obj
 0002:000003e0       ??_C@_02EGOFBIJA@?$DN?$DN@ 1000d3e0     libvcruntime:undname.obj
 0002:000003e4       ??_C@_02FDNJECIE@?$CB?$DN@ 1000d3e4     libvcruntime:undname.obj
 0002:000003e8       ??_C@_02GPECMEKF@?$FL?$FN@ 1000d3e8     libvcruntime:undname.obj
 0002:000003ec       ??_C@_08LHJFAFGD@operator@ 1000d3ec     libvcruntime:undname.obj
 0002:000003f8       ??_C@_02HBOOOICD@?9?$DO@   1000d3f8     libvcruntime:undname.obj
 0002:000003fc       ??_C@_01NBENCBCI@?$CK@     1000d3fc     libvcruntime:undname.obj
 0002:00000400       ??_C@_02ECNGHCIF@?$CL?$CL@ 1000d400     libvcruntime:undname.obj
 0002:00000404       ??_C@_02BAABKJLB@?9?9@     1000d404     libvcruntime:undname.obj
 0002:00000408       ??_C@_01JOAMLHOP@?9@       1000d408     libvcruntime:undname.obj
 0002:0000040c       ??_C@_01MIFGBAGJ@?$CL@     1000d40c     libvcruntime:undname.obj
 0002:00000410       ??_C@_01HNPIGOCE@?$CG@     1000d410     libvcruntime:undname.obj
 0002:00000414       ??_C@_03MNHNFDLC@?9?$DO?$CK@ 1000d414     libvcruntime:undname.obj
 0002:00000418       ??_C@_01KMDKNFGN@?1@       1000d418     libvcruntime:undname.obj
 0002:0000041c       ??_C@_01FGNFDNOH@?$CF@     1000d41c     libvcruntime:undname.obj
 0002:00000420       ??_C@_01MNNFJEPP@?$DM@     1000d420     libvcruntime:undname.obj
 0002:00000424       ??_C@_02EHCHHCKH@?$DM?$DN@ 1000d424     libvcruntime:undname.obj
 0002:00000428       ??_C@_01PPODPGHN@?$DO@     1000d428     libvcruntime:undname.obj
 0002:0000042c       ??_C@_02EEKDKGMJ@?$DO?$DN@ 1000d42c     libvcruntime:undname.obj
 0002:00000430       ??_C@_01IHBHIGKO@?0@       1000d430     libvcruntime:undname.obj
 0002:00000434       ??_C@_02HCKGKOFO@?$CI?$CJ@ 1000d434     libvcruntime:undname.obj
 0002:00000438       ??_C@_01PJKLJHI@?$HO@      1000d438     libvcruntime:undname.obj
 0002:0000043c       ??_C@_01JKBOJNNK@?$FO@     1000d43c     libvcruntime:undname.obj
 0002:00000440       ??_C@_01DNKMNLPK@?$HM@     1000d440     libvcruntime:undname.obj
 0002:00000444       ??_C@_02PPKAJPJL@?$CG?$CG@ 1000d444     libvcruntime:undname.obj
 0002:00000448       ??_C@_02NONPIBCD@?$HM?$HM@ 1000d448     libvcruntime:undname.obj
 0002:0000044c       ??_C@_02FPIMKNGF@?$CK?$DN@ 1000d44c     libvcruntime:undname.obj
 0002:00000450       ??_C@_02FOEOMHFC@?$CL?$DN@ 1000d450     libvcruntime:undname.obj
 0002:00000454       ??_C@_02FKMDLLOA@?9?$DN@   1000d454     libvcruntime:undname.obj
 0002:00000458       ??_C@_02FJEHGPIO@?1?$DN@   1000d458     libvcruntime:undname.obj
 0002:0000045c       ??_C@_02FENAOKFI@?$CF?$DN@ 1000d45c     libvcruntime:undname.obj
 0002:00000460       ??_C@_03IKFCCPFF@?$DO?$DO?$DN@ 1000d460     libvcruntime:undname.obj
 0002:00000464       ??_C@_03CDNPDDLA@?$DM?$DM?$DN@ 1000d464     libvcruntime:undname.obj
 0002:00000468       ??_C@_02FGJGFEAB@?$CG?$DN@ 1000d468     libvcruntime:undname.obj
 0002:0000046c       ??_C@_02DHLNPPGH@?$HM?$DN@ 1000d46c     libvcruntime:undname.obj
 0002:00000470       ??_C@_02MHEGNOJ@?$FO?$DN@  1000d470     libvcruntime:undname.obj
 0002:00000474       ??_C@_09IFPLHPGF@?$GAvftable?8@ 1000d474     libvcruntime:undname.obj
 0002:00000480       ??_C@_09BLBHBJP@?$GAvbtable?8@ 1000d480     libvcruntime:undname.obj
 0002:0000048c       ??_C@_07FEEIOKP@?$GAvcall?8@ 1000d48c     libvcruntime:undname.obj
 0002:00000494       ??_C@_08LLFFHHDJ@?$GAtypeof?8@ 1000d494     libvcruntime:undname.obj
 0002:000004a0       ??_C@_0BF@KDPPACIK@?$GAlocal?5static?5guard?8@ 1000d4a0     libvcruntime:undname.obj
 0002:000004b8       ??_C@_08OBABFOLI@?$GAstring?8@ 1000d4b8     libvcruntime:undname.obj
 0002:000004c4       ??_C@_0BD@JDLKDPAB@?$GAvbase?5destructor?8@ 1000d4c4     libvcruntime:undname.obj
 0002:000004d8       ??_C@_0BN@DEGPLNFK@?$GAvector?5deleting?5destructor?8@ 1000d4d8     libvcruntime:undname.obj
 0002:000004f8       ??_C@_0BO@OBMKPJIG@?$GAdefault?5constructor?5closure?8@ 1000d4f8     libvcruntime:undname.obj
 0002:00000518       ??_C@_0BN@IMDCHIKM@?$GAscalar?5deleting?5destructor?8@ 1000d518     libvcruntime:undname.obj
 0002:00000538       ??_C@_0BO@PFGOCPJJ@?$GAvector?5constructor?5iterator?8@ 1000d538     libvcruntime:undname.obj
 0002:00000558       ??_C@_0BN@LFPFMEDL@?$GAvector?5destructor?5iterator?8@ 1000d558     libvcruntime:undname.obj
 0002:00000578       ??_C@_0CE@IKBNEHA@?$GAvector?5vbase?5constructor?5itera@ 1000d578     libvcruntime:undname.obj
 0002:0000059c       ??_C@_0BL@NILFHHPC@?$GAvirtual?5displacement?5map?8@ 1000d59c     libvcruntime:undname.obj
 0002:000005b8       ??_C@_0CB@JONCMFFK@?$GAeh?5vector?5constructor?5iterator@ 1000d5b8     libvcruntime:undname.obj
 0002:000005dc       ??_C@_0CA@GCEOPDGL@?$GAeh?5vector?5destructor?5iterator?8@ 1000d5dc     libvcruntime:undname.obj
 0002:000005fc       ??_C@_0CH@OOJPLCPH@?$GAeh?5vector?5vbase?5constructor?5it@ 1000d5fc     libvcruntime:undname.obj
 0002:00000624       ??_C@_0BL@LLKPOHJI@?$GAcopy?5constructor?5closure?8@ 1000d624     libvcruntime:undname.obj
 0002:00000640       ??_C@_0BA@KBCDOMBN@?$GAudt?5returning?8@ 1000d640     libvcruntime:undname.obj
 0002:00000650       ??_C@_03KLGMFNMG@?$GAEH@   1000d650     libvcruntime:undname.obj
 0002:00000654       ??_C@_05KHLCHHI@?$GARTTI@  1000d654     libvcruntime:undname.obj
 0002:0000065c       ??_C@_0BA@KKLDJDLB@?$GAlocal?5vftable?8@ 1000d65c     libvcruntime:undname.obj
 0002:0000066c       ??_C@_0CE@IIHCMGGL@?$GAlocal?5vftable?5constructor?5clos@ 1000d66c     libvcruntime:undname.obj
 0002:00000690       ??_C@_06FHBGPFGH@?5new?$FL?$FN@ 1000d690     libvcruntime:undname.obj
 0002:00000698       ??_C@_09LBNFPBCA@?5delete?$FL?$FN@ 1000d698     libvcruntime:undname.obj
 0002:000006a4       ??_C@_0P@HJKNJFNN@?$GAomni?5callsig?8@ 1000d6a4     libvcruntime:undname.obj
 0002:000006b4       ??_C@_0BL@CNOONJFP@?$GAplacement?5delete?5closure?8@ 1000d6b4     libvcruntime:undname.obj
 0002:000006d0       ??_C@_0BN@CKNJLHMB@?$GAplacement?5delete?$FL?$FN?5closure?8@ 1000d6d0     libvcruntime:undname.obj
 0002:000006f0       ??_C@_0CG@CFDHKGGD@?$GAmanaged?5vector?5constructor?5ite@ 1000d6f0     libvcruntime:undname.obj
 0002:00000718       ??_C@_0CF@IMGKMJNO@?$GAmanaged?5vector?5destructor?5iter@ 1000d718     libvcruntime:undname.obj
 0002:00000740       ??_C@_0CG@HLDDJMAG@?$GAeh?5vector?5copy?5constructor?5ite@ 1000d740     libvcruntime:undname.obj
 0002:00000768       ??_C@_0CM@FCBBDIGB@?$GAeh?5vector?5vbase?5copy?5construct@ 1000d768     libvcruntime:undname.obj
 0002:00000794       ??_C@_0BL@CLIPGLGB@?$GAdynamic?5initializer?5for?5?8@ 1000d794     libvcruntime:undname.obj
 0002:000007b0       ??_C@_0CB@PDBIFEP@?$GAdynamic?5atexit?5destructor?5for?5@ 1000d7b0     libvcruntime:undname.obj
 0002:000007d4       ??_C@_0CD@CGAJBKEJ@?$GAvector?5copy?5constructor?5iterat@ 1000d7d4     libvcruntime:undname.obj
 0002:000007f8       ??_C@_0CJ@GJELGAMM@?$GAvector?5vbase?5copy?5constructor?5@ 1000d7f8     libvcruntime:undname.obj
 0002:00000824       ??_C@_0CL@FGIJHLCE@?$GAmanaged?5vector?5copy?5constructo@ 1000d824     libvcruntime:undname.obj
 0002:00000850       ??_C@_0BM@PMGGMLDN@?$GAlocal?5static?5thread?5guard?8@ 1000d850     libvcruntime:undname.obj
 0002:0000086c       ??_C@_0N@BDNMDMOL@operator?5?$CC?$CC?5@ 1000d86c     libvcruntime:undname.obj
 0002:0000087c       ??_C@_0BC@GGEBGALA@operator?5co_await@ 1000d87c     libvcruntime:undname.obj
 0002:00000890       ??_C@_0BC@DAFEJGAK@?5Type?5Descriptor?8@ 1000d890     libvcruntime:undname.obj
 0002:000008a4       ??_C@_0BM@LDKODKLH@?5Base?5Class?5Descriptor?5at?5?$CI@ 1000d8a4     libvcruntime:undname.obj
 0002:000008c0       ??_C@_0BD@LGICGFMM@?5Base?5Class?5Array?8@ 1000d8c0     libvcruntime:undname.obj
 0002:000008d4       ??_C@_0BN@MECKDCOJ@?5Class?5Hierarchy?5Descriptor?8@ 1000d8d4     libvcruntime:undname.obj
 0002:000008f4       ??_C@_0BK@CFCOFLF@?5Complete?5Object?5Locator?8@ 1000d8f4     libvcruntime:undname.obj
 0002:0000091c       ??_C@_1DM@KHCHBNEB@?$AAa?$AAp?$AAi?$AA?9?$AAm?$AAs?$AA?9?$AAw?$AAi?$AAn?$AA?9?$AAc?$AAo?$AAr?$AAe@ 1000d91c     libvcruntime:winapi_downlevel.obj
 0002:00000958       ??_C@_1DK@LPPGFMPP@?$AAa?$AAp?$AAi?$AA?9?$AAm?$AAs?$AA?9?$AAw?$AAi?$AAn?$AA?9?$AAc?$AAo?$AAr?$AAe@ 1000d958     libvcruntime:winapi_downlevel.obj
 0002:00000994       ??_C@_1BC@GDMECMAK@?$AAk?$AAe?$AAr?$AAn?$AAe?$AAl?$AA3?$AA2@ 1000d994     libvcruntime:winapi_downlevel.obj
 0002:000009a8       ??_C@_1BA@PFFKHIOG@?$AAa?$AAp?$AAi?$AA?9?$AAm?$AAs?$AA?9@ 1000d9a8     libvcruntime:winapi_downlevel.obj
 0002:000009b8       ??_C@_1BA@IAIFMGEF@?$AAe?$AAx?$AAt?$AA?9?$AAm?$AAs?$AA?9@ 1000d9b8     libvcruntime:winapi_downlevel.obj
 0002:000009d0       ??_C@_08KNHFBNJ@FlsAlloc@  1000d9d0     libvcruntime:winapi_downlevel.obj
 0002:000009e4       ??_C@_07PEJMOBNF@FlsFree@  1000d9e4     libvcruntime:winapi_downlevel.obj
 0002:000009f4       ??_C@_0M@GDNOONDI@FlsGetValue@ 1000d9f4     libvcruntime:winapi_downlevel.obj
 0002:00000a08       ??_C@_0M@JCPCPOEF@FlsSetValue@ 1000da08     libvcruntime:winapi_downlevel.obj
 0002:00000a1c       ??_C@_0BM@HCFOFFN@InitializeCriticalSectionEx@ 1000da1c     libvcruntime:winapi_downlevel.obj
 0002:00000a38       __pDestructExceptionObject 1000da38     libvcruntime:ehhelpers.obj
 0002:00000a40       ___acrt_exception_action_table 1000da40     libucrt:exception_filter.obj
 0002:00000ad0       ___acrt_signal_action_table_count 1000dad0     libucrt:exception_filter.obj
 0002:00000ad4       ___acrt_signal_action_first_fpe_index 1000dad4     libucrt:exception_filter.obj
 0002:00000ad8       ___acrt_signal_action_fpe_count 1000dad8     libucrt:exception_filter.obj
 0002:00000adc       ??_C@_1BI@BGOHAHKC@?$AAm?$AAs?$AAc?$AAo?$AAr?$AAe?$AAe?$AA?4?$AAd?$AAl?$AAl?$AA?$AA@ 1000dadc     libucrt:exit.obj
 0002:00000af4       ??_C@_0P@MIGLKIOC@CorExitProcess?$AA@ 1000daf4     libucrt:exit.obj
 0002:00000cf0       ___lc_time_c               1000dcf0     libucrt:nlsdata.obj
 0002:00000e54       ??_C@_03KOEHGMDN@Sun?$AA@  1000de54     libucrt:nlsdata.obj
 0002:00000e58       ??_C@_03PDAGKDH@Mon?$AA@   1000de58     libucrt:nlsdata.obj
 0002:00000e5c       ??_C@_03NAGEINEP@Tue?$AA@  1000de5c     libucrt:nlsdata.obj
 0002:00000e60       ??_C@_03MHOMLAJA@Wed?$AA@  1000de60     libucrt:nlsdata.obj
 0002:00000e64       ??_C@_03IOFIKPDN@Thu?$AA@  1000de64     libucrt:nlsdata.obj
 0002:00000e68       ??_C@_03IDIOELNC@Fri?$AA@  1000de68     libucrt:nlsdata.obj
 0002:00000e6c       ??_C@_03FEFJNEK@Sat?$AA@   1000de6c     libucrt:nlsdata.obj
 0002:00000e70       ??_C@_06OOPIFAJ@Sunday?$AA@ 1000de70     libucrt:nlsdata.obj
 0002:00000e78       ??_C@_06JLEDEDGH@Monday?$AA@ 1000de78     libucrt:nlsdata.obj
 0002:00000e80       ??_C@_07BAAGCFCM@Tuesday?$AA@ 1000de80     libucrt:nlsdata.obj
 0002:00000e88       ??_C@_09DLIGFAKA@Wednesday?$AA@ 1000de88     libucrt:nlsdata.obj
 0002:00000e94       ??_C@_08HACCIKIA@Thursday?$AA@ 1000de94     libucrt:nlsdata.obj
 0002:00000ea0       ??_C@_06JECMNKMI@Friday?$AA@ 1000dea0     libucrt:nlsdata.obj
 0002:00000ea8       ??_C@_08INBOOONO@Saturday?$AA@ 1000dea8     libucrt:nlsdata.obj
 0002:00000eb4       ??_C@_03JIHJHPIE@Jan?$AA@  1000deb4     libucrt:nlsdata.obj
 0002:00000eb8       ??_C@_03HJBDCHOM@Feb?$AA@  1000deb8     libucrt:nlsdata.obj
 0002:00000ebc       ??_C@_03ODNJBKGA@Mar?$AA@  1000debc     libucrt:nlsdata.obj
 0002:00000ec0       ??_C@_03LEOLGMJP@Apr?$AA@  1000dec0     libucrt:nlsdata.obj
 0002:00000ec4       ??_C@_03CNMDKL@May?$AA@    1000dec4     libucrt:nlsdata.obj
 0002:00000ec8       ??_C@_03IDFGHECI@Jun?$AA@  1000dec8     libucrt:nlsdata.obj
 0002:00000ecc       ??_C@_03LBGABGKK@Jul?$AA@  1000decc     libucrt:nlsdata.obj
 0002:00000ed0       ??_C@_03IFJFEIGA@Aug?$AA@  1000ded0     libucrt:nlsdata.obj
 0002:00000ed4       ??_C@_03GGCAPAJC@Sep?$AA@  1000ded4     libucrt:nlsdata.obj
 0002:00000ed8       ??_C@_03BMAOKBAD@Oct?$AA@  1000ded8     libucrt:nlsdata.obj
 0002:00000edc       ??_C@_03JPJOFNIA@Nov?$AA@  1000dedc     libucrt:nlsdata.obj
 0002:00000ee0       ??_C@_03MKABNOCG@Dec?$AA@  1000dee0     libucrt:nlsdata.obj
 0002:00000ee4       ??_C@_07CGJPFGJA@January?$AA@ 1000dee4     libucrt:nlsdata.obj
 0002:00000eec       ??_C@_08GNJGEPFN@February?$AA@ 1000deec     libucrt:nlsdata.obj
 0002:00000ef8       ??_C@_05HPCKOFNC@March?$AA@ 1000def8     libucrt:nlsdata.obj
 0002:00000f00       ??_C@_05DMJDNLEJ@April?$AA@ 1000df00     libucrt:nlsdata.obj
 0002:00000f08       ??_C@_04CNLMGBGM@June?$AA@ 1000df08     libucrt:nlsdata.obj
 0002:00000f10       ??_C@_04MIEPOIFP@July?$AA@ 1000df10     libucrt:nlsdata.obj
 0002:00000f18       ??_C@_06LBBHFDDG@August?$AA@ 1000df18     libucrt:nlsdata.obj
 0002:00000f20       ??_C@_09BHHEALKD@September?$AA@ 1000df20     libucrt:nlsdata.obj
 0002:00000f2c       ??_C@_07JJNFCEND@October?$AA@ 1000df2c     libucrt:nlsdata.obj
 0002:00000f34       ??_C@_08HCHEGEOA@November?$AA@ 1000df34     libucrt:nlsdata.obj
 0002:00000f40       ??_C@_08EDHMEBNP@December?$AA@ 1000df40     libucrt:nlsdata.obj
 0002:00000f4c       ??_C@_02DEDBPAFC@AM?$AA@   1000df4c     libucrt:nlsdata.obj
 0002:00000f50       ??_C@_02CJNFDJBF@PM?$AA@   1000df50     libucrt:nlsdata.obj
 0002:00000f54       ??_C@_08BPBNCDIB@MM?1dd?1yy?$AA@ 1000df54     libucrt:nlsdata.obj
 0002:00000f60       ??_C@_0BE@CKGJFCPC@dddd?0?5MMMM?5dd?0?5yyyy?$AA@ 1000df60     libucrt:nlsdata.obj
 0002:00000f74       ??_C@_08JCCMCCIL@HH?3mm?3ss?$AA@ 1000df74     libucrt:nlsdata.obj
 0002:00000f80       ??_C@_17MBGCMIPB@?$AAS?$AAu?$AAn?$AA?$AA@ 1000df80     libucrt:nlsdata.obj
 0002:00000f88       ??_C@_17KBOMKBF@?$AAM?$AAo?$AAn?$AA?$AA@ 1000df88     libucrt:nlsdata.obj
 0002:00000f90       ??_C@_17BMKGEGOJ@?$AAT?$AAu?$AAe?$AA?$AA@ 1000df90     libucrt:nlsdata.obj
 0002:00000f98       ??_C@_17CJEDCEPE@?$AAW?$AAe?$AAd?$AA?$AA@ 1000df98     libucrt:nlsdata.obj
 0002:00000fa0       ??_C@_17PDPHAADD@?$AAT?$AAh?$AAu?$AA?$AA@ 1000dfa0     libucrt:nlsdata.obj
 0002:00000fa8       ??_C@_17HFOLPPLP@?$AAF?$AAr?$AAi?$AA?$AA@ 1000dfa8     libucrt:nlsdata.obj
 0002:00000fb0       ??_C@_17GGIBDPIH@?$AAS?$AAa?$AAt?$AA?$AA@ 1000dfb0     libucrt:nlsdata.obj
 0002:00000fb8       ??_C@_1O@IHNHDHPB@?$AAS?$AAu?$AAn?$AAd?$AAa?$AAy?$AA?$AA@ 1000dfb8     libucrt:nlsdata.obj
 0002:00000fc8       ??_C@_1O@MMNBFLIA@?$AAM?$AAo?$AAn?$AAd?$AAa?$AAy?$AA?$AA@ 1000dfc8     libucrt:nlsdata.obj
 0002:00000fd8       ??_C@_1BA@ENFBFFEK@?$AAT?$AAu?$AAe?$AAs?$AAd?$AAa?$AAy?$AA?$AA@ 1000dfd8     libucrt:nlsdata.obj
 0002:00000fe8       ??_C@_1BE@EBOGMDOH@?$AAW?$AAe?$AAd?$AAn?$AAe?$AAs?$AAd?$AAa?$AAy?$AA?$AA@ 1000dfe8     libucrt:nlsdata.obj
 0002:00000ffc       ??_C@_1BC@HHMNLIHE@?$AAT?$AAh?$AAu?$AAr?$AAs?$AAd?$AAa?$AAy?$AA?$AA@ 1000dffc     libucrt:nlsdata.obj
 0002:00001010       ??_C@_1O@PDICJHAG@?$AAF?$AAr?$AAi?$AAd?$AAa?$AAy?$AA?$AA@ 1000e010     libucrt:nlsdata.obj
 0002:00001020       ??_C@_1BC@ENMNNPAJ@?$AAS?$AAa?$AAt?$AAu?$AAr?$AAd?$AAa?$AAy?$AA?$AA@ 1000e020     libucrt:nlsdata.obj
 0002:00001034       ??_C@_17DKNBKCHM@?$AAJ?$AAa?$AAn?$AA?$AA@ 1000e034     libucrt:nlsdata.obj
 0002:0000103c       ??_C@_17LMDJEKJN@?$AAF?$AAe?$AAb?$AA?$AA@ 1000e03c     libucrt:nlsdata.obj
 0002:00001044       ??_C@_17CKNLEDEC@?$AAM?$AAa?$AAr?$AA?$AA@ 1000e044     libucrt:nlsdata.obj
 0002:0000104c       ??_C@_17LFPOIHDD@?$AAA?$AAp?$AAr?$AA?$AA@ 1000e04c     libucrt:nlsdata.obj
 0002:00001054       ??_C@_17PNNKMEED@?$AAM?$AAa?$AAy?$AA?$AA@ 1000e054     libucrt:nlsdata.obj
 0002:0000105c       ??_C@_17KCJGOCPB@?$AAJ?$AAu?$AAn?$AA?$AA@ 1000e05c     libucrt:nlsdata.obj
 0002:00001064       ??_C@_17IJPCKHK@?$AAJ?$AAu?$AAl?$AA?$AA@ 1000e064     libucrt:nlsdata.obj
 0002:0000106c       ??_C@_17ICPELBCN@?$AAA?$AAu?$AAg?$AA?$AA@ 1000e06c     libucrt:nlsdata.obj
 0002:00001074       ??_C@_17HCHCOKMG@?$AAS?$AAe?$AAp?$AA?$AA@ 1000e074     libucrt:nlsdata.obj
 0002:0000107c       ??_C@_17FNLKOI@?$AAO?$AAc?$AAt?$AA?$AA@ 1000e07c     libucrt:nlsdata.obj
 0002:00001084       ??_C@_17BBDMLCIG@?$AAN?$AAo?$AAv?$AA?$AA@ 1000e084     libucrt:nlsdata.obj
 0002:0000108c       ??_C@_17EGKACKIF@?$AAD?$AAe?$AAc?$AA?$AA@ 1000e08c     libucrt:nlsdata.obj
 0002:00001094       ??_C@_1BA@EFMEIEBA@?$AAJ?$AAa?$AAn?$AAu?$AAa?$AAr?$AAy?$AA?$AA@ 1000e094     libucrt:nlsdata.obj
 0002:000010a4       ??_C@_1BC@JGDDFFAM@?$AAF?$AAe?$AAb?$AAr?$AAu?$AAa?$AAr?$AAy?$AA?$AA@ 1000e0a4     libucrt:nlsdata.obj
 0002:000010b8       ??_C@_1M@IKEENEDF@?$AAM?$AAa?$AAr?$AAc?$AAh?$AA?$AA@ 1000e0b8     libucrt:nlsdata.obj
 0002:000010c4       ??_C@_1M@GJNLMHFD@?$AAA?$AAp?$AAr?$AAi?$AAl?$AA?$AA@ 1000e0c4     libucrt:nlsdata.obj
 0002:000010d0       ??_C@_19EPFLPGAP@?$AAJ?$AAu?$AAn?$AAe?$AA?$AA@ 1000e0d0     libucrt:nlsdata.obj
 0002:000010dc       ??_C@_19BIFMLPCD@?$AAJ?$AAu?$AAl?$AAy?$AA?$AA@ 1000e0dc     libucrt:nlsdata.obj
 0002:000010e8       ??_C@_1O@PAHLKOAC@?$AAA?$AAu?$AAg?$AAu?$AAs?$AAt?$AA?$AA@ 1000e0e8     libucrt:nlsdata.obj
 0002:000010f8       ??_C@_1BE@DKAAMBJL@?$AAS?$AAe?$AAp?$AAt?$AAe?$AAm?$AAb?$AAe?$AAr?$AA?$AA@ 1000e0f8     libucrt:nlsdata.obj
 0002:0000110c       ??_C@_1BA@EPANDLNG@?$AAO?$AAc?$AAt?$AAo?$AAb?$AAe?$AAr?$AA?$AA@ 1000e10c     libucrt:nlsdata.obj
 0002:0000111c       ??_C@_1BC@BGLIFPF@?$AAN?$AAo?$AAv?$AAe?$AAm?$AAb?$AAe?$AAr?$AA?$AA@ 1000e11c     libucrt:nlsdata.obj
 0002:00001130       ??_C@_1BC@FEMKIFH@?$AAD?$AAe?$AAc?$AAe?$AAm?$AAb?$AAe?$AAr?$AA?$AA@ 1000e130     libucrt:nlsdata.obj
 0002:00001144       ??_C@_15ODEHAHHF@?$AAA?$AAM?$AA?$AA@ 1000e144     libucrt:nlsdata.obj
 0002:0000114c       ??_C@_15CLMNNGEL@?$AAP?$AAM?$AA?$AA@ 1000e14c     libucrt:nlsdata.obj
 0002:00001154       ??_C@_1BC@IEBCMHCM@?$AAM?$AAM?$AA?1?$AAd?$AAd?$AA?1?$AAy?$AAy?$AA?$AA@ 1000e154     libucrt:nlsdata.obj
 0002:00001168       ??_C@_1CI@KNAKOEBC@?$AAd?$AAd?$AAd?$AAd?$AA?0?$AA?5?$AAM?$AAM?$AAM?$AAM?$AA?5?$AAd?$AAd?$AA?0?$AA?5?$AAy?$AAy?$AAy?$AAy?$AA?$AA@ 1000e168     libucrt:nlsdata.obj
 0002:00001190       ??_C@_1BC@GDGBMEMK@?$AAH?$AAH?$AA?3?$AAm?$AAm?$AA?3?$AAs?$AAs?$AA?$AA@ 1000e190     libucrt:nlsdata.obj
 0002:000011a4       ??_C@_1M@BMHNFIME@?$AAe?$AAn?$AA?9?$AAU?$AAS?$AA?$AA@ 1000e1a4     libucrt:nlsdata.obj
 0002:000011c0       ??_C@_1M@HPNHIDJI@?$AAj?$AAa?$AA?9?$AAJ?$AAP?$AA?$AA@ 1000e1c0     libucrt:mbctype.obj
 0002:000011cc       ??_C@_1M@BIBDDEMK@?$AAz?$AAh?$AA?9?$AAC?$AAN?$AA?$AA@ 1000e1cc     libucrt:mbctype.obj
 0002:000011d8       ??_C@_1M@JLOOOEGK@?$AAk?$AAo?$AA?9?$AAK?$AAR?$AA?$AA@ 1000e1d8     libucrt:mbctype.obj
 0002:000011e4       ??_C@_1M@CLNBBOPM@?$AAz?$AAh?$AA?9?$AAT?$AAW?$AA?$AA@ 1000e1e4     libucrt:mbctype.obj
 0002:00001240       ??_C@_1EA@JGEFHKEI@?$AAa?$AAp?$AAi?$AA?9?$AAm?$AAs?$AA?9?$AAw?$AAi?$AAn?$AA?9?$AAc?$AAo?$AAr?$AAe?$AA?9?$AAd?$AAa?$AAt?$AAe?$AAt?$AAi?$AAm?$AAe?$AA?9?$AAl?$AA1?$AA?9?$AA1?$AA?9?$AA1?$AA?$AA@ 1000e240     libucrt:winapi_thunks.obj
 0002:00001280       ??_C@_1DM@KHCHBNEB@?$AAa?$AAp?$AAi?$AA?9?$AAm?$AAs?$AA?9?$AAw?$AAi?$AAn?$AA?9?$AAc?$AAo?$AAr?$AAe?$AA?9?$AAf?$AAi?$AAb?$AAe?$AAr?$AAs?$AA?9?$AAl?$AA1?$AA?9?$AA1?$AA?9?$AA1?$AA?$AA@ 1000e280     libucrt:winapi_thunks.obj
 0002:000012bc       ??_C@_1DI@IJCEHOCB@?$AAa?$AAp?$AAi?$AA?9?$AAm?$AAs?$AA?9?$AAw?$AAi?$AAn?$AA?9?$AAc?$AAo?$AAr?$AAe?$AA?9?$AAf?$AAi?$AAl?$AAe?$AA?9?$AAl?$AA1?$AA?9?$AA2?$AA?9?$AA2?$AA?$AA@ 1000e2bc     libucrt:winapi_thunks.obj
 0002:000012f8       ??_C@_1EI@MPIAOHOC@?$AAa?$AAp?$AAi?$AA?9?$AAm?$AAs?$AA?9?$AAw?$AAi?$AAn?$AA?9?$AAc?$AAo?$AAr?$AAe?$AA?9?$AAl?$AAo?$AAc?$AAa?$AAl?$AAi?$AAz?$AAa?$AAt?$AAi?$AAo?$AAn?$AA?9?$AAl?$AA1?$AA?9@ 1000e2f8     libucrt:winapi_thunks.obj
 0002:00001340       ??_C@_1FK@FPHCKFIE@?$AAa?$AAp?$AAi?$AA?9?$AAm?$AAs?$AA?9?$AAw?$AAi?$AAn?$AA?9?$AAc?$AAo?$AAr?$AAe?$AA?9?$AAl?$AAo?$AAc?$AAa?$AAl?$AAi?$AAz?$AAa?$AAt?$AAi?$AAo?$AAn?$AA?9?$AAo?$AAb?$AAs@ 1000e340     libucrt:winapi_thunks.obj
 0002:000013a0       ??_C@_1EM@DILCGIIO@?$AAa?$AAp?$AAi?$AA?9?$AAm?$AAs?$AA?9?$AAw?$AAi?$AAn?$AA?9?$AAc?$AAo?$AAr?$AAe?$AA?9?$AAp?$AAr?$AAo?$AAc?$AAe?$AAs?$AAs?$AAt?$AAh?$AAr?$AAe?$AAa?$AAd?$AAs?$AA?9?$AAl@ 1000e3a0     libucrt:winapi_thunks.obj
 0002:000013ec       ??_C@_1DM@LNCGDDPN@?$AAa?$AAp?$AAi?$AA?9?$AAm?$AAs?$AA?9?$AAw?$AAi?$AAn?$AA?9?$AAc?$AAo?$AAr?$AAe?$AA?9?$AAs?$AAt?$AAr?$AAi?$AAn?$AAg?$AA?9?$AAl?$AA1?$AA?9?$AA1?$AA?9?$AA0?$AA?$AA@ 1000e3ec     libucrt:winapi_thunks.obj
 0002:00001428       ??_C@_1DK@LPPGFMPP@?$AAa?$AAp?$AAi?$AA?9?$AAm?$AAs?$AA?9?$AAw?$AAi?$AAn?$AA?9?$AAc?$AAo?$AAr?$AAe?$AA?9?$AAs?$AAy?$AAn?$AAc?$AAh?$AA?9?$AAl?$AA1?$AA?9?$AA2?$AA?9?$AA0?$AA?$AA@ 1000e428     libucrt:winapi_thunks.obj
 0002:00001464       ??_C@_1DO@FPAPJEMD@?$AAa?$AAp?$AAi?$AA?9?$AAm?$AAs?$AA?9?$AAw?$AAi?$AAn?$AA?9?$AAc?$AAo?$AAr?$AAe?$AA?9?$AAs?$AAy?$AAs?$AAi?$AAn?$AAf?$AAo?$AA?9?$AAl?$AA1?$AA?9?$AA2?$AA?9?$AA1?$AA?$AA@ 1000e464     libucrt:winapi_thunks.obj
 0002:000014a4       ??_C@_1DK@NDHNAHIO@?$AAa?$AAp?$AAi?$AA?9?$AAm?$AAs?$AA?9?$AAw?$AAi?$AAn?$AA?9?$AAc?$AAo?$AAr?$AAe?$AA?9?$AAw?$AAi?$AAn?$AAr?$AAt?$AA?9?$AAl?$AA1?$AA?9?$AA1?$AA?9?$AA0?$AA?$AA@ 1000e4a4     libucrt:winapi_thunks.obj
 0002:000014e0       ??_C@_1DM@KGHDGBCM@?$AAa?$AAp?$AAi?$AA?9?$AAm?$AAs?$AA?9?$AAw?$AAi?$AAn?$AA?9?$AAc?$AAo?$AAr?$AAe?$AA?9?$AAx?$AAs?$AAt?$AAa?$AAt?$AAe?$AA?9?$AAl?$AA2?$AA?9?$AA1?$AA?9?$AA0?$AA?$AA@ 1000e4e0     libucrt:winapi_thunks.obj
 0002:00001520       ??_C@_1EO@IJIOEFOH@?$AAa?$AAp?$AAi?$AA?9?$AAm?$AAs?$AA?9?$AAw?$AAi?$AAn?$AA?9?$AAr?$AAt?$AAc?$AAo?$AAr?$AAe?$AA?9?$AAn?$AAt?$AAu?$AAs?$AAe?$AAr?$AA?9?$AAw?$AAi?$AAn?$AAd?$AAo?$AAw?$AA?9@ 1000e520     libucrt:winapi_thunks.obj
 0002:00001570       ??_C@_1FG@HHGEKANL@?$AAa?$AAp?$AAi?$AA?9?$AAm?$AAs?$AA?9?$AAw?$AAi?$AAn?$AA?9?$AAs?$AAe?$AAc?$AAu?$AAr?$AAi?$AAt?$AAy?$AA?9?$AAs?$AAy?$AAs?$AAt?$AAe?$AAm?$AAf?$AAu?$AAn?$AAc?$AAt?$AAi@ 1000e570     libucrt:winapi_thunks.obj
 0002:000015c8       ??_C@_1EG@DBIOJECG@?$AAe?$AAx?$AAt?$AA?9?$AAm?$AAs?$AA?9?$AAw?$AAi?$AAn?$AA?9?$AAn?$AAt?$AAu?$AAs?$AAe?$AAr?$AA?9?$AAd?$AAi?$AAa?$AAl?$AAo?$AAg?$AAb?$AAo?$AAx?$AA?9?$AAl?$AA1?$AA?9?$AA1@ 1000e5c8     libucrt:winapi_thunks.obj
 0002:00001610       ??_C@_1EO@FIHMJCLF@?$AAe?$AAx?$AAt?$AA?9?$AAm?$AAs?$AA?9?$AAw?$AAi?$AAn?$AA?9?$AAn?$AAt?$AAu?$AAs?$AAe?$AAr?$AA?9?$AAw?$AAi?$AAn?$AAd?$AAo?$AAw?$AAs?$AAt?$AAa?$AAt?$AAi?$AAo?$AAn?$AA?9@ 1000e610     libucrt:winapi_thunks.obj
 0002:00001660       ??_C@_1BC@DNHGCMLG@?$AAa?$AAd?$AAv?$AAa?$AAp?$AAi?$AA3?$AA2?$AA?$AA@ 1000e660     libucrt:winapi_thunks.obj
 0002:00001674       ??_C@_1BC@GDMECMAK@?$AAk?$AAe?$AAr?$AAn?$AAe?$AAl?$AA3?$AA2?$AA?$AA@ 1000e674     libucrt:winapi_thunks.obj
 0002:00001688       ??_C@_1M@OAIMIKLP@?$AAn?$AAt?$AAd?$AAl?$AAl?$AA?$AA@ 1000e688     libucrt:winapi_thunks.obj
 0002:00001698       ??_C@_1EG@DPGNFKGC@?$AAa?$AAp?$AAi?$AA?9?$AAm?$AAs?$AA?9?$AAw?$AAi?$AAn?$AA?9?$AAa?$AAp?$AAp?$AAm?$AAo?$AAd?$AAe?$AAl?$AA?9?$AAr?$AAu?$AAn?$AAt?$AAi?$AAm?$AAe?$AA?9?$AAl?$AA1?$AA?9?$AA1@ 1000e698     libucrt:winapi_thunks.obj
 0002:000016e0       ??_C@_1O@BCCLBEOE@?$AAu?$AAs?$AAe?$AAr?$AA3?$AA2?$AA?$AA@ 1000e6e0     libucrt:winapi_thunks.obj
 0002:000016f0       ??_C@_1BA@PFFKHIOG@?$AAa?$AAp?$AAi?$AA?9?$AAm?$AAs?$AA?9?$AA?$AA@ 1000e6f0     libucrt:winapi_thunks.obj
 0002:00001700       ??_C@_1BA@IAIFMGEF@?$AAe?$AAx?$AAt?$AA?9?$AAm?$AAs?$AA?9?$AA?$AA@ 1000e700     libucrt:winapi_thunks.obj
 0002:00001714       ??_C@_0BA@FHFNEAED@AreFileApisANSI?$AA@ 1000e714     libucrt:winapi_thunks.obj
 0002:0000172c       ??_C@_08KNHFBNJ@FlsAlloc?$AA@ 1000e72c     libucrt:winapi_thunks.obj
 0002:00001740       ??_C@_07PEJMOBNF@FlsFree?$AA@ 1000e740     libucrt:winapi_thunks.obj
 0002:00001750       ??_C@_0M@GDNOONDI@FlsGetValue?$AA@ 1000e750     libucrt:winapi_thunks.obj
 0002:00001764       ??_C@_0M@JCPCPOEF@FlsSetValue?$AA@ 1000e764     libucrt:winapi_thunks.obj
 0002:00001778       ??_C@_0BM@HCFOFFN@InitializeCriticalSectionEx?$AA@ 1000e778     libucrt:winapi_thunks.obj
 0002:0000179c       ??_C@_0O@KKBNKAPF@LCMapStringEx?$AA@ 1000e79c     libucrt:winapi_thunks.obj
 0002:000017b4       ??_C@_0BB@HBDEELFH@LocaleNameToLCID?$AA@ 1000e7b4     libucrt:winapi_thunks.obj
 0002:000017cc       ??_C@_0CF@OJOFEIGO@AppPolicyGetProcessTerminationMe@ 1000e7cc     libucrt:winapi_thunks.obj
 0002:000017f8       ___newctype                1000e7f8     libucrt:ctype.obj
 0002:00001af8       ___newclmap                1000eaf8     libucrt:ctype.obj
 0002:00001c78       ___newcumap                1000ec78     libucrt:ctype.obj
 0002:00001df8       ??_C@_15PJPFLCCM@?$AAu?$AAk?$AA?$AA@ 1000edf8     libucrt:get_qualified_locale.obj
 0002:00002520       ??_C@_15EMKDOKLE@?$AAa?$AAr?$AA?$AA@ 1000f520     libucrt:lcidtoname_downlevel.obj
 0002:00002528       ??_C@_15KNPADPLH@?$AAb?$AAg?$AA?$AA@ 1000f528     libucrt:lcidtoname_downlevel.obj
 0002:00002530       ??_C@_15EDMHLDMO@?$AAc?$AAa?$AA?$AA@ 1000f530     libucrt:lcidtoname_downlevel.obj
 0002:00002538       ??_C@_1O@BPEAJADD@?$AAz?$AAh?$AA?9?$AAC?$AAH?$AAS?$AA?$AA@ 1000f538     libucrt:lcidtoname_downlevel.obj
 0002:00002548       ??_C@_15LJNHCMNK@?$AAc?$AAs?$AA?$AA@ 1000f548     libucrt:lcidtoname_downlevel.obj
 0002:00002550       ??_C@_15FOMCIDHG@?$AAd?$AAa?$AA?$AA@ 1000f550     libucrt:lcidtoname_downlevel.obj
 0002:00002558       ??_C@_15NBKABECB@?$AAd?$AAe?$AA?$AA@ 1000f558     libucrt:lcidtoname_downlevel.obj
 0002:00002560       ??_C@_15GHPEIIAO@?$AAe?$AAl?$AA?$AA@ 1000f560     libucrt:lcidtoname_downlevel.obj
 0002:00002568       ??_C@_15MNPNEAIF@?$AAe?$AAn?$AA?$AA@ 1000f568     libucrt:lcidtoname_downlevel.obj
 0002:00002570       ??_C@_15GPIOMPMH@?$AAe?$AAs?$AA?$AA@ 1000f570     libucrt:lcidtoname_downlevel.obj
 0002:00002578       ??_C@_15NGLOAKJC@?$AAf?$AAi?$AA?$AA@ 1000f578     libucrt:lcidtoname_downlevel.obj
 0002:00002580       ??_C@_15FBKGNKAM@?$AAf?$AAr?$AA?$AA@ 1000f580     libucrt:lcidtoname_downlevel.obj
 0002:00002588       ??_C@_15KGGCNEFK@?$AAh?$AAe?$AA?$AA@ 1000f588     libucrt:lcidtoname_downlevel.obj
 0002:00002590       ??_C@_15PGHLIDMF@?$AAh?$AAu?$AA?$AA@ 1000f590     libucrt:lcidtoname_downlevel.obj
 0002:00002598       ??_C@_15BIEMAPLM@?$AAi?$AAs?$AA?$AA@ 1000f598     libucrt:lcidtoname_downlevel.obj
 0002:000025a0       ??_C@_15IFJLDHAF@?$AAi?$AAt?$AA?$AA@ 1000f5a0     libucrt:lcidtoname_downlevel.obj
 0002:000025a8       ??_C@_15GEMIOCAG@?$AAj?$AAa?$AA?$AA@ 1000f5a8     libucrt:lcidtoname_downlevel.obj
 0002:000025b0       ??_C@_15EPELEGJA@?$AAk?$AAo?$AA?$AA@ 1000f5b0     libucrt:lcidtoname_downlevel.obj
 0002:000025b8       ??_C@_15NDDHIMN@?$AAn?$AAl?$AA?$AA@ 1000f5b8     libucrt:lcidtoname_downlevel.obj
 0002:000025c0       ??_C@_15BPIGNHCD@?$AAn?$AAo?$AA?$AA@ 1000f5c0     libucrt:lcidtoname_downlevel.obj
 0002:000025c8       ??_C@_15DEOPBLCG@?$AAp?$AAl?$AA?$AA@ 1000f5c8     libucrt:lcidtoname_downlevel.obj
 0002:000025d0       ??_C@_15KBECGEFG@?$AAp?$AAt?$AA?$AA@ 1000f5d0     libucrt:lcidtoname_downlevel.obj
 0002:000025d8       ??_C@_15GLJCBFMD@?$AAr?$AAo?$AA?$AA@ 1000f5d8     libucrt:lcidtoname_downlevel.obj
 0002:000025e0       ??_C@_15FEDGKCDI@?$AAr?$AAu?$AA?$AA@ 1000f5e0     libucrt:lcidtoname_downlevel.obj
 0002:000025e8       ??_C@_15GLKMLLHM@?$AAh?$AAr?$AA?$AA@ 1000f5e8     libucrt:lcidtoname_downlevel.obj
 0002:000025f0       ??_C@_15CPKMFBDB@?$AAs?$AAk?$AA?$AA@ 1000f5f0     libucrt:lcidtoname_downlevel.obj
 0002:000025f8       ??_C@_15BAAIOGMK@?$AAs?$AAq?$AA?$AA@ 1000f5f8     libucrt:lcidtoname_downlevel.obj
 0002:00002600       ??_C@_15INNPNOHD@?$AAs?$AAv?$AA?$AA@ 1000f600     libucrt:lcidtoname_downlevel.obj
 0002:00002608       ??_C@_15CABMMOGH@?$AAt?$AAh?$AA?$AA@ 1000f608     libucrt:lcidtoname_downlevel.obj
 0002:00002610       ??_C@_15BPLIHJJM@?$AAt?$AAr?$AA?$AA@ 1000f610     libucrt:lcidtoname_downlevel.obj
 0002:00002618       ??_C@_15NEOEKKDJ@?$AAu?$AAr?$AA?$AA@ 1000f618     libucrt:lcidtoname_downlevel.obj
 0002:00002620       ??_C@_15NFICGAJK@?$AAi?$AAd?$AA?$AA@ 1000f620     libucrt:lcidtoname_downlevel.obj
 0002:00002628       ??_C@_15HPJPHDM@?$AAb?$AAe?$AA?$AA@ 1000f628     libucrt:lcidtoname_downlevel.obj
 0002:00002630       ??_C@_15LCHLGJII@?$AAs?$AAl?$AA?$AA@ 1000f630     libucrt:lcidtoname_downlevel.obj
 0002:00002638       ??_C@_15PCFJPHHO@?$AAe?$AAt?$AA?$AA@ 1000f638     libucrt:lcidtoname_downlevel.obj
 0002:00002640       ??_C@_15HPFPGODN@?$AAl?$AAv?$AA?$AA@ 1000f640     libucrt:lcidtoname_downlevel.obj
 0002:00002648       ??_C@_15NFFGKGLG@?$AAl?$AAt?$AA?$AA@ 1000f648     libucrt:lcidtoname_downlevel.obj
 0002:00002650       ??_C@_15BDAKCCHN@?$AAf?$AAa?$AA?$AA@ 1000f650     libucrt:lcidtoname_downlevel.obj
 0002:00002658       ??_C@_15NFGIAIAJ@?$AAv?$AAi?$AA?$AA@ 1000f658     libucrt:lcidtoname_downlevel.obj
 0002:00002660       ??_C@_15LMKNDMHN@?$AAh?$AAy?$AA?$AA@ 1000f660     libucrt:lcidtoname_downlevel.obj
 0002:00002668       ??_C@_15IJBHMCFL@?$AAa?$AAz?$AA?$AA@ 1000f668     libucrt:lcidtoname_downlevel.obj
 0002:00002670       ??_C@_15EKOFJABL@?$AAe?$AAu?$AA?$AA@ 1000f670     libucrt:lcidtoname_downlevel.obj
 0002:00002678       ??_C@_15BGHADCNK@?$AAm?$AAk?$AA?$AA@ 1000f678     libucrt:lcidtoname_downlevel.obj
 0002:00002680       ??_C@_15JDNICKHM@?$AAa?$AAf?$AA?$AA@ 1000f680     libucrt:lcidtoname_downlevel.obj
 0002:00002688       ??_C@_15KPJEDBKD@?$AAk?$AAa?$AA?$AA@ 1000f688     libucrt:lcidtoname_downlevel.obj
 0002:00002690       ??_C@_15PDNFFFEO@?$AAf?$AAo?$AA?$AA@ 1000f690     libucrt:lcidtoname_downlevel.obj
 0002:00002698       ??_C@_15OMLEGLOC@?$AAh?$AAi?$AA?$AA@ 1000f698     libucrt:lcidtoname_downlevel.obj
 0002:000026a0       ??_C@_15IDNNENKK@?$AAm?$AAs?$AA?$AA@ 1000f6a0     libucrt:lcidtoname_downlevel.obj
 0002:000026a8       ??_C@_15MACJNBMH@?$AAk?$AAk?$AA?$AA@ 1000f6a8     libucrt:lcidtoname_downlevel.obj
 0002:000026b0       ??_C@_15DKDJEOND@?$AAk?$AAy?$AA?$AA@ 1000f6b0     libucrt:lcidtoname_downlevel.obj
 0002:000026b8       ??_C@_15DFGDLJBG@?$AAs?$AAw?$AA?$AA@ 1000f6b8     libucrt:lcidtoname_downlevel.obj
 0002:000026c0       ??_C@_15BBFAICNG@?$AAu?$AAz?$AA?$AA@ 1000f6c0     libucrt:lcidtoname_downlevel.obj
 0002:000026c8       ??_C@_15DKNDCGEA@?$AAt?$AAt?$AA?$AA@ 1000f6c8     libucrt:lcidtoname_downlevel.obj
 0002:000026d0       ??_C@_15MGIFMDPL@?$AAp?$AAa?$AA?$AA@ 1000f6d0     libucrt:lcidtoname_downlevel.obj
 0002:000026d8       ??_C@_15HCNDBBA@?$AAg?$AAu?$AA?$AA@ 1000f6d8     libucrt:lcidtoname_downlevel.obj
 0002:000026e0       ??_C@_15FNBEIBON@?$AAt?$AAa?$AA?$AA@ 1000f6e0     libucrt:lcidtoname_downlevel.obj
 0002:000026e8       ??_C@_15NCHGBGLK@?$AAt?$AAe?$AA?$AA@ 1000f6e8     libucrt:lcidtoname_downlevel.obj
 0002:000026f0       ??_C@_15PHPHCBPF@?$AAk?$AAn?$AA?$AA@ 1000f6f0     libucrt:lcidtoname_downlevel.obj
 0002:000026f8       ??_C@_15DLGBCKMP@?$AAm?$AAr?$AA?$AA@ 1000f6f8     libucrt:lcidtoname_downlevel.obj
 0002:00002700       ??_C@_15EABBLBFF@?$AAs?$AAa?$AA?$AA@ 1000f700     libucrt:lcidtoname_downlevel.obj
 0002:00002708       ??_C@_15CBKOMCOI@?$AAm?$AAn?$AA?$AA@ 1000f708     libucrt:lcidtoname_downlevel.obj
 0002:00002710       ??_C@_15CKDMCJAF@?$AAg?$AAl?$AA?$AA@ 1000f710     libucrt:lcidtoname_downlevel.obj
 0002:00002718       ??_C@_17CNJFBPG@?$AAk?$AAo?$AAk?$AA?$AA@ 1000f718     libucrt:lcidtoname_downlevel.obj
 0002:00002720       ??_C@_17FFBJICPL@?$AAs?$AAy?$AAr?$AA?$AA@ 1000f720     libucrt:lcidtoname_downlevel.obj
 0002:00002728       ??_C@_17KPNDCPAF@?$AAd?$AAi?$AAv?$AA?$AA@ 1000f728     libucrt:lcidtoname_downlevel.obj
 0002:00002730       ??_C@_11LOCGONAA@?$AA?$AA@ 1000f730     libucrt:lcidtoname_downlevel.obj
 0002:00002734       ??_C@_1M@OKAHONE@?$AAa?$AAr?$AA?9?$AAS?$AAA?$AA?$AA@ 1000f734     libucrt:lcidtoname_downlevel.obj
 0002:00002740       ??_C@_1M@FFFIGIGK@?$AAb?$AAg?$AA?9?$AAB?$AAG?$AA?$AA@ 1000f740     libucrt:lcidtoname_downlevel.obj
 0002:0000274c       ??_C@_1M@BJNKEDC@?$AAc?$AAa?$AA?9?$AAE?$AAS?$AA?$AA@ 1000f74c     libucrt:lcidtoname_downlevel.obj
 0002:00002758       ??_C@_1M@IJJHFJHA@?$AAc?$AAs?$AA?9?$AAC?$AAZ?$AA?$AA@ 1000f758     libucrt:lcidtoname_downlevel.obj
 0002:00002764       ??_C@_1M@CLPEOBGI@?$AAd?$AAa?$AA?9?$AAD?$AAK?$AA?$AA@ 1000f764     libucrt:lcidtoname_downlevel.obj
 0002:00002770       ??_C@_1M@MCMADGCB@?$AAd?$AAe?$AA?9?$AAD?$AAE?$AA?$AA@ 1000f770     libucrt:lcidtoname_downlevel.obj
 0002:0000277c       ??_C@_1M@OOCKEMAM@?$AAe?$AAl?$AA?9?$AAG?$AAR?$AA?$AA@ 1000f77c     libucrt:lcidtoname_downlevel.obj
 0002:00002788       ??_C@_1M@DDNJFGID@?$AAf?$AAi?$AA?9?$AAF?$AAI?$AA?$AA@ 1000f788     libucrt:lcidtoname_downlevel.obj
 0002:00002794       ??_C@_1M@GLIPPMAC@?$AAf?$AAr?$AA?9?$AAF?$AAR?$AA?$AA@ 1000f794     libucrt:lcidtoname_downlevel.obj
 0002:000027a0       ??_C@_1M@GFMCHPE@?$AAh?$AAe?$AA?9?$AAI?$AAL?$AA?$AA@ 1000f7a0     libucrt:lcidtoname_downlevel.obj
 0002:000027ac       ??_C@_1M@MHLPGNKM@?$AAh?$AAu?$AA?9?$AAH?$AAU?$AA?$AA@ 1000f7ac     libucrt:lcidtoname_downlevel.obj
 0002:000027b8       ??_C@_1M@LPDDNNPN@?$AAi?$AAs?$AA?9?$AAI?$AAS?$AA?$AA@ 1000f7b8     libucrt:lcidtoname_downlevel.obj
 0002:000027c4       ??_C@_1M@MADIPODN@?$AAi?$AAt?$AA?9?$AAI?$AAT?$AA?$AA@ 1000f7c4     libucrt:lcidtoname_downlevel.obj
 0002:000027d0       ??_C@_1M@IHBJJGG@?$AAn?$AAl?$AA?9?$AAN?$AAL?$AA?$AA@ 1000f7d0     libucrt:lcidtoname_downlevel.obj
 0002:000027dc       ??_C@_1M@EANAGDL@?$AAn?$AAb?$AA?9?$AAN?$AAO?$AA?$AA@ 1000f7dc     libucrt:lcidtoname_downlevel.obj
 0002:000027e8       ??_C@_1M@NEIEMEGP@?$AAp?$AAl?$AA?9?$AAP?$AAL?$AA?$AA@ 1000f7e8     libucrt:lcidtoname_downlevel.obj
 0002:000027f4       ??_C@_1M@BOCFIGEP@?$AAp?$AAt?$AA?9?$AAB?$AAR?$AA?$AA@ 1000f7f4     libucrt:lcidtoname_downlevel.obj
 0002:00002800       ??_C@_1M@IMPFOPBG@?$AAr?$AAo?$AA?9?$AAR?$AAO?$AA?$AA@ 1000f800     libucrt:lcidtoname_downlevel.obj
 0002:0000280c       ??_C@_1M@IDNNEJMM@?$AAr?$AAu?$AA?9?$AAR?$AAU?$AA?$AA@ 1000f80c     libucrt:lcidtoname_downlevel.obj
 0002:00002818       ??_C@_1M@LILEEOGM@?$AAh?$AAr?$AA?9?$AAH?$AAR?$AA?$AA@ 1000f818     libucrt:lcidtoname_downlevel.obj
 0002:00002824       ??_C@_1M@FKIFEHPB@?$AAs?$AAk?$AA?9?$AAS?$AAK?$AA?$AA@ 1000f824     libucrt:lcidtoname_downlevel.obj
 0002:00002830       ??_C@_1M@LJMAMNPJ@?$AAs?$AAq?$AA?9?$AAA?$AAL?$AA?$AA@ 1000f830     libucrt:lcidtoname_downlevel.obj
 0002:0000283c       ??_C@_1M@GIAKDKJK@?$AAs?$AAv?$AA?9?$AAS?$AAE?$AA?$AA@ 1000f83c     libucrt:lcidtoname_downlevel.obj
 0002:00002848       ??_C@_1M@MKJKIKCL@?$AAt?$AAh?$AA?9?$AAT?$AAH?$AA?$AA@ 1000f848     libucrt:lcidtoname_downlevel.obj
 0002:00002854       ??_C@_1M@MFLCCMPB@?$AAt?$AAr?$AA?9?$AAT?$AAR?$AA?$AA@ 1000f854     libucrt:lcidtoname_downlevel.obj
 0002:00002860       ??_C@_1M@OIJHDKJN@?$AAu?$AAr?$AA?9?$AAP?$AAK?$AA?$AA@ 1000f860     libucrt:lcidtoname_downlevel.obj
 0002:0000286c       ??_C@_1M@LHIPCIEK@?$AAi?$AAd?$AA?9?$AAI?$AAD?$AA?$AA@ 1000f86c     libucrt:lcidtoname_downlevel.obj
 0002:00002878       ??_C@_1M@MFMOBGI@?$AAu?$AAk?$AA?9?$AAU?$AAA?$AA?$AA@ 1000f878     libucrt:lcidtoname_downlevel.obj
 0002:00002884       ??_C@_1M@OBGLJIPL@?$AAb?$AAe?$AA?9?$AAB?$AAY?$AA?$AA@ 1000f884     libucrt:lcidtoname_downlevel.obj
 0002:00002890       ??_C@_1M@BCFAJEAD@?$AAs?$AAl?$AA?9?$AAS?$AAI?$AA?$AA@ 1000f890     libucrt:lcidtoname_downlevel.obj
 0002:0000289c       ??_C@_1M@FKFFEDDN@?$AAe?$AAt?$AA?9?$AAE?$AAE?$AA?$AA@ 1000f89c     libucrt:lcidtoname_downlevel.obj
 0002:000028a8       ??_C@_1M@KGKKAACI@?$AAl?$AAv?$AA?9?$AAL?$AAV?$AA?$AA@ 1000f8a8     libucrt:lcidtoname_downlevel.obj
 0002:000028b4       ??_C@_1M@IFGBIJO@?$AAl?$AAt?$AA?9?$AAL?$AAT?$AA?$AA@ 1000f8b4     libucrt:lcidtoname_downlevel.obj
 0002:000028c0       ??_C@_1M@FGEAHEDM@?$AAf?$AAa?$AA?9?$AAI?$AAR?$AA?$AA@ 1000f8c0     libucrt:lcidtoname_downlevel.obj
 0002:000028cc       ??_C@_1M@KBMAIBFN@?$AAv?$AAi?$AA?9?$AAV?$AAN?$AA?$AA@ 1000f8cc     libucrt:lcidtoname_downlevel.obj
 0002:000028d8       ??_C@_1M@GPCBKDJK@?$AAh?$AAy?$AA?9?$AAA?$AAM?$AA?$AA@ 1000f8d8     libucrt:lcidtoname_downlevel.obj
 0002:000028e4       ??_C@_1BG@BECMDDJB@?$AAa?$AAz?$AA?9?$AAA?$AAZ?$AA?9?$AAL?$AAa?$AAt?$AAn?$AA?$AA@ 1000f8e4     libucrt:lcidtoname_downlevel.obj
 0002:000028fc       ??_C@_1M@MAOFCAEA@?$AAe?$AAu?$AA?9?$AAE?$AAS?$AA?$AA@ 1000f8fc     libucrt:lcidtoname_downlevel.obj
 0002:00002908       ??_C@_1M@IGHABKPI@?$AAm?$AAk?$AA?9?$AAM?$AAK?$AA?$AA@ 1000f908     libucrt:lcidtoname_downlevel.obj
 0002:00002914       ??_C@_1M@IAIGNEJG@?$AAt?$AAn?$AA?9?$AAZ?$AAA?$AA?$AA@ 1000f914     libucrt:lcidtoname_downlevel.obj
 0002:00002920       ??_C@_1M@IIJCOJFA@?$AAx?$AAh?$AA?9?$AAZ?$AAA?$AA?$AA@ 1000f920     libucrt:lcidtoname_downlevel.obj
 0002:0000292c       ??_C@_1M@LGPJHNJH@?$AAz?$AAu?$AA?9?$AAZ?$AAA?$AA?$AA@ 1000f92c     libucrt:lcidtoname_downlevel.obj
 0002:00002938       ??_C@_1M@HOKAOIO@?$AAa?$AAf?$AA?9?$AAZ?$AAA?$AA?$AA@ 1000f938     libucrt:lcidtoname_downlevel.obj
 0002:00002944       ??_C@_1M@DPCLHLIE@?$AAk?$AAa?$AA?9?$AAG?$AAE?$AA?$AA@ 1000f944     libucrt:lcidtoname_downlevel.obj
 0002:00002950       ??_C@_1M@BLKMHJBI@?$AAf?$AAo?$AA?9?$AAF?$AAO?$AA?$AA@ 1000f950     libucrt:lcidtoname_downlevel.obj
 0002:0000295c       ??_C@_1M@LGGJAPPB@?$AAh?$AAi?$AA?9?$AAI?$AAN?$AA?$AA@ 1000f95c     libucrt:lcidtoname_downlevel.obj
 0002:00002968       ??_C@_1M@FIKPIHFE@?$AAm?$AAt?$AA?9?$AAM?$AAT?$AA?$AA@ 1000f968     libucrt:lcidtoname_downlevel.obj
 0002:00002974       ??_C@_1M@HEGGPBFA@?$AAs?$AAe?$AA?9?$AAN?$AAO?$AA?$AA@ 1000f974     libucrt:lcidtoname_downlevel.obj
 0002:00002980       ??_C@_1M@EIBJEEPA@?$AAm?$AAs?$AA?9?$AAM?$AAY?$AA?$AA@ 1000f980     libucrt:lcidtoname_downlevel.obj
 0002:0000298c       ??_C@_1M@FHLBGMPP@?$AAk?$AAk?$AA?9?$AAK?$AAZ?$AA?$AA@ 1000f98c     libucrt:lcidtoname_downlevel.obj
 0002:00002998       ??_C@_1M@NGJJLCGI@?$AAk?$AAy?$AA?9?$AAK?$AAG?$AA?$AA@ 1000f998     libucrt:lcidtoname_downlevel.obj
 0002:000029a4       ??_C@_1M@GIENNBFC@?$AAs?$AAw?$AA?9?$AAK?$AAE?$AA?$AA@ 1000f9a4     libucrt:lcidtoname_downlevel.obj
 0002:000029b0       ??_C@_1BG@NDGMJIMJ@?$AAu?$AAz?$AA?9?$AAU?$AAZ?$AA?9?$AAL?$AAa?$AAt?$AAn?$AA?$AA@ 1000f9b0     libucrt:lcidtoname_downlevel.obj
 0002:000029c8       ??_C@_1M@IDCCIHBC@?$AAt?$AAt?$AA?9?$AAR?$AAU?$AA?$AA@ 1000f9c8     libucrt:lcidtoname_downlevel.obj
 0002:000029d4       ??_C@_1M@LOICPMOJ@?$AAb?$AAn?$AA?9?$AAI?$AAN?$AA?$AA@ 1000f9d4     libucrt:lcidtoname_downlevel.obj
 0002:000029e0       ??_C@_1M@KPKKNEAH@?$AAp?$AAa?$AA?9?$AAI?$AAN?$AA?$AA@ 1000f9e0     libucrt:lcidtoname_downlevel.obj
 0002:000029ec       ??_C@_1M@PJGPPBOG@?$AAg?$AAu?$AA?9?$AAI?$AAN?$AA?$AA@ 1000f9ec     libucrt:lcidtoname_downlevel.obj
 0002:000029f8       ??_C@_1M@KMKMOPHI@?$AAt?$AAa?$AA?9?$AAI?$AAN?$AA?$AA@ 1000f9f8     libucrt:lcidtoname_downlevel.obj
 0002:00002a04       ??_C@_1M@KFEHEPAC@?$AAt?$AAe?$AA?9?$AAI?$AAN?$AA?$AA@ 1000fa04     libucrt:lcidtoname_downlevel.obj
 0002:00002a10       ??_C@_1M@CDCLMGHI@?$AAk?$AAn?$AA?9?$AAI?$AAN?$AA?$AA@ 1000fa10     libucrt:lcidtoname_downlevel.obj
 0002:00002a1c       ??_C@_1M@MIODLDKF@?$AAm?$AAl?$AA?9?$AAI?$AAN?$AA?$AA@ 1000fa1c     libucrt:lcidtoname_downlevel.obj
 0002:00002a28       ??_C@_1M@PBIEACPO@?$AAm?$AAr?$AA?9?$AAI?$AAN?$AA?$AA@ 1000fa28     libucrt:lcidtoname_downlevel.obj
 0002:00002a34       ??_C@_1M@NIDEAGPH@?$AAs?$AAa?$AA?9?$AAI?$AAN?$AA?$AA@ 1000fa34     libucrt:lcidtoname_downlevel.obj
 0002:00002a40       ??_C@_1M@FHIHCBIO@?$AAm?$AAn?$AA?9?$AAM?$AAN?$AA?$AA@ 1000fa40     libucrt:lcidtoname_downlevel.obj
 0002:00002a4c       ??_C@_1M@JAIJPENP@?$AAc?$AAy?$AA?9?$AAG?$AAB?$AA?$AA@ 1000fa4c     libucrt:lcidtoname_downlevel.obj
 0002:00002a58       ??_C@_1M@PHGFBEPN@?$AAg?$AAl?$AA?9?$AAE?$AAS?$AA?$AA@ 1000fa58     libucrt:lcidtoname_downlevel.obj
 0002:00002a64       ??_C@_1O@KPIPDNCP@?$AAk?$AAo?$AAk?$AA?9?$AAI?$AAN?$AA?$AA@ 1000fa64     libucrt:lcidtoname_downlevel.obj
 0002:00002a74       ??_C@_1O@KNHJLDJA@?$AAs?$AAy?$AAr?$AA?9?$AAS?$AAY?$AA?$AA@ 1000fa74     libucrt:lcidtoname_downlevel.obj
 0002:00002a84       ??_C@_1O@MKEKBLAH@?$AAd?$AAi?$AAv?$AA?9?$AAM?$AAV?$AA?$AA@ 1000fa84     libucrt:lcidtoname_downlevel.obj
 0002:00002a94       ??_C@_1O@OHDCKDDF@?$AAq?$AAu?$AAz?$AA?9?$AAB?$AAO?$AA?$AA@ 1000fa94     libucrt:lcidtoname_downlevel.obj
 0002:00002aa4       ??_C@_1M@LEPJNLFD@?$AAn?$AAs?$AA?9?$AAZ?$AAA?$AA?$AA@ 1000faa4     libucrt:lcidtoname_downlevel.obj
 0002:00002ab0       ??_C@_1M@OMLEIIJB@?$AAm?$AAi?$AA?9?$AAN?$AAZ?$AA?$AA@ 1000fab0     libucrt:lcidtoname_downlevel.obj
 0002:00002abc       ??_C@_1M@PMPEAILG@?$AAa?$AAr?$AA?9?$AAI?$AAQ?$AA?$AA@ 1000fabc     libucrt:lcidtoname_downlevel.obj
 0002:00002ac8       ??_C@_1M@CNKPNOEE@?$AAd?$AAe?$AA?9?$AAC?$AAH?$AA?$AA@ 1000fac8     libucrt:lcidtoname_downlevel.obj
 0002:00002ad4       ??_C@_1M@LKMGMLKO@?$AAe?$AAn?$AA?9?$AAG?$AAB?$AA?$AA@ 1000fad4     libucrt:lcidtoname_downlevel.obj
 0002:00002ae0       ??_C@_1M@PGKJFFGL@?$AAe?$AAs?$AA?9?$AAM?$AAX?$AA?$AA@ 1000fae0     libucrt:lcidtoname_downlevel.obj
 0002:00002aec       ??_C@_1M@DNNANBDC@?$AAf?$AAr?$AA?9?$AAB?$AAE?$AA?$AA@ 1000faec     libucrt:lcidtoname_downlevel.obj
 0002:00002af8       ??_C@_1M@HLGMDFHM@?$AAi?$AAt?$AA?9?$AAC?$AAH?$AA?$AA@ 1000faf8     libucrt:lcidtoname_downlevel.obj
 0002:00002b04       ??_C@_1M@CLLBGJH@?$AAn?$AAl?$AA?9?$AAB?$AAE?$AA?$AA@ 1000fb04     libucrt:lcidtoname_downlevel.obj
 0002:00002b10       ??_C@_1M@BODBOGLF@?$AAn?$AAn?$AA?9?$AAN?$AAO?$AA?$AA@ 1000fb10     libucrt:lcidtoname_downlevel.obj
 0002:00002b1c       ??_C@_1M@HFFAHKAD@?$AAp?$AAt?$AA?9?$AAP?$AAT?$AA?$AA@ 1000fb1c     libucrt:lcidtoname_downlevel.obj
 0002:00002b28       ??_C@_1BG@LNOAKHIE@?$AAs?$AAr?$AA?9?$AAS?$AAP?$AA?9?$AAL?$AAa?$AAt?$AAn?$AA?$AA@ 1000fb28     libucrt:lcidtoname_downlevel.obj
 0002:00002b40       ??_C@_1M@HBMHBGAK@?$AAs?$AAv?$AA?9?$AAF?$AAI?$AA?$AA@ 1000fb40     libucrt:lcidtoname_downlevel.obj
 0002:00002b4c       ??_C@_1BG@DGCJGJBE@?$AAa?$AAz?$AA?9?$AAA?$AAZ?$AA?9?$AAC?$AAy?$AAr?$AAl?$AA?$AA@ 1000fb4c     libucrt:lcidtoname_downlevel.obj
 0002:00002b64       ??_C@_1M@KEJDAAHB@?$AAs?$AAe?$AA?9?$AAS?$AAE?$AA?$AA@ 1000fb64     libucrt:lcidtoname_downlevel.obj
 0002:00002b70       ??_C@_1M@HEIBJJAD@?$AAm?$AAs?$AA?9?$AAB?$AAN?$AA?$AA@ 1000fb70     libucrt:lcidtoname_downlevel.obj
 0002:00002b7c       ??_C@_1BG@PBGJMCEM@?$AAu?$AAz?$AA?9?$AAU?$AAZ?$AA?9?$AAC?$AAy?$AAr?$AAl?$AA?$AA@ 1000fb7c     libucrt:lcidtoname_downlevel.obj
 0002:00002b94       ??_C@_1O@LAOBCMDF@?$AAq?$AAu?$AAz?$AA?9?$AAE?$AAC?$AA?$AA@ 1000fb94     libucrt:lcidtoname_downlevel.obj
 0002:00002ba4       ??_C@_1M@POEEMAIO@?$AAa?$AAr?$AA?9?$AAE?$AAG?$AA?$AA@ 1000fba4     libucrt:lcidtoname_downlevel.obj
 0002:00002bb0       ??_C@_1M@EFAKDEDL@?$AAz?$AAh?$AA?9?$AAH?$AAK?$AA?$AA@ 1000fbb0     libucrt:lcidtoname_downlevel.obj
 0002:00002bbc       ??_C@_1M@HKKIJHGI@?$AAd?$AAe?$AA?9?$AAA?$AAT?$AA?$AA@ 1000fbbc     libucrt:lcidtoname_downlevel.obj
 0002:00002bc8       ??_C@_1M@KBFBEHJF@?$AAe?$AAn?$AA?9?$AAA?$AAU?$AA?$AA@ 1000fbc8     libucrt:lcidtoname_downlevel.obj
 0002:00002bd4       ??_C@_1M@MNPLFAAH@?$AAe?$AAs?$AA?9?$AAE?$AAS?$AA?$AA@ 1000fbd4     libucrt:lcidtoname_downlevel.obj
 0002:00002be0       ??_C@_1M@HJOOJFMA@?$AAf?$AAr?$AA?9?$AAC?$AAA?$AA?$AA@ 1000fbe0     libucrt:lcidtoname_downlevel.obj
 0002:00002bec       ??_C@_1BG@JPOFPNAB@?$AAs?$AAr?$AA?9?$AAS?$AAP?$AA?9?$AAC?$AAy?$AAr?$AAl?$AA?$AA@ 1000fbec     libucrt:lcidtoname_downlevel.obj
 0002:00002c04       ??_C@_1M@LNFOCMOB@?$AAs?$AAe?$AA?9?$AAF?$AAI?$AA?$AA@ 1000fc04     libucrt:lcidtoname_downlevel.obj
 0002:00002c10       ??_C@_1O@MGJBOAMB@?$AAq?$AAu?$AAz?$AA?9?$AAP?$AAE?$AA?$AA@ 1000fc10     libucrt:lcidtoname_downlevel.obj
 0002:00002c20       ??_C@_1M@GJINLBOK@?$AAa?$AAr?$AA?9?$AAL?$AAY?$AA?$AA@ 1000fc20     libucrt:lcidtoname_downlevel.obj
 0002:00002c2c       ??_C@_1M@GGMNHJNL@?$AAz?$AAh?$AA?9?$AAS?$AAG?$AA?$AA@ 1000fc2c     libucrt:lcidtoname_downlevel.obj
 0002:00002c38       ??_C@_1M@HOIKODND@?$AAd?$AAe?$AA?9?$AAL?$AAU?$AA?$AA@ 1000fc38     libucrt:lcidtoname_downlevel.obj
 0002:00002c44       ??_C@_1M@DDOCCGFG@?$AAe?$AAn?$AA?9?$AAC?$AAA?$AA?$AA@ 1000fc44     libucrt:lcidtoname_downlevel.obj
 0002:00002c50       ??_C@_1M@BNOEMJLF@?$AAe?$AAs?$AA?9?$AAG?$AAT?$AA?$AA@ 1000fc50     libucrt:lcidtoname_downlevel.obj
 0002:00002c5c       ??_C@_1M@EOGNKEK@?$AAf?$AAr?$AA?9?$AAC?$AAH?$AA?$AA@ 1000fc5c     libucrt:lcidtoname_downlevel.obj
 0002:00002c68       ??_C@_1M@FLIDJFHL@?$AAh?$AAr?$AA?9?$AAB?$AAA?$AA?$AA@ 1000fc68     libucrt:lcidtoname_downlevel.obj
 0002:00002c74       ??_C@_1O@FMCELNAJ@?$AAs?$AAm?$AAj?$AA?9?$AAN?$AAO?$AA?$AA@ 1000fc74     libucrt:lcidtoname_downlevel.obj
 0002:00002c84       ??_C@_1M@JHGLJMGJ@?$AAa?$AAr?$AA?9?$AAD?$AAZ?$AA?$AA@ 1000fc84     libucrt:lcidtoname_downlevel.obj
 0002:00002c90       ??_C@_1M@JKKFDCNP@?$AAz?$AAh?$AA?9?$AAM?$AAO?$AA?$AA@ 1000fc90     libucrt:lcidtoname_downlevel.obj
 0002:00002c9c       ??_C@_1M@GEEFALPE@?$AAd?$AAe?$AA?9?$AAL?$AAI?$AA?$AA@ 1000fc9c     libucrt:lcidtoname_downlevel.obj
 0002:00002ca8       ??_C@_1M@IGEOFBG@?$AAe?$AAn?$AA?9?$AAN?$AAZ?$AA?$AA@ 1000fca8     libucrt:lcidtoname_downlevel.obj
 0002:00002cb4       ??_C@_1M@KDBONEHP@?$AAe?$AAs?$AA?9?$AAC?$AAR?$AA?$AA@ 1000fcb4     libucrt:lcidtoname_downlevel.obj
 0002:00002cc0       ??_C@_1M@FHMDOHNN@?$AAf?$AAr?$AA?9?$AAL?$AAU?$AA?$AA@ 1000fcc0     libucrt:lcidtoname_downlevel.obj
 0002:00002ccc       ??_C@_1BG@NFKKMAFG@?$AAb?$AAs?$AA?9?$AAB?$AAA?$AA?9?$AAL?$AAa?$AAt?$AAn?$AA?$AA@ 1000fccc     libucrt:lcidtoname_downlevel.obj
 0002:00002ce4       ??_C@_1O@IMNBEMCI@?$AAs?$AAm?$AAj?$AA?9?$AAS?$AAE?$AA?$AA@ 1000fce4     libucrt:lcidtoname_downlevel.obj
 0002:00002cf4       ??_C@_1M@DHHMBNDP@?$AAa?$AAr?$AA?9?$AAM?$AAA?$AA?$AA@ 1000fcf4     libucrt:lcidtoname_downlevel.obj
 0002:00002d00       ??_C@_1M@BNBLJCGH@?$AAe?$AAn?$AA?9?$AAI?$AAE?$AA?$AA@ 1000fd00     libucrt:lcidtoname_downlevel.obj
 0002:00002d0c       ??_C@_1M@GEPAFMDL@?$AAe?$AAs?$AA?9?$AAP?$AAA?$AA?$AA@ 1000fd0c     libucrt:lcidtoname_downlevel.obj
 0002:00002d18       ??_C@_1M@OJONDMDL@?$AAf?$AAr?$AA?9?$AAM?$AAC?$AA?$AA@ 1000fd18     libucrt:lcidtoname_downlevel.obj
 0002:00002d24       ??_C@_1BG@OBCNFJB@?$AAs?$AAr?$AA?9?$AAB?$AAA?$AA?9?$AAL?$AAa?$AAt?$AAn?$AA?$AA@ 1000fd24     libucrt:lcidtoname_downlevel.obj
 0002:00002d3c       ??_C@_1O@KEMEEGPO@?$AAs?$AAm?$AAa?$AA?9?$AAN?$AAO?$AA?$AA@ 1000fd3c     libucrt:lcidtoname_downlevel.obj
 0002:00002d4c       ??_C@_1M@ELMGFODK@?$AAa?$AAr?$AA?9?$AAT?$AAN?$AA?$AA@ 1000fd4c     libucrt:lcidtoname_downlevel.obj
 0002:00002d58       ??_C@_1M@BHDLHFAF@?$AAe?$AAn?$AA?9?$AAZ?$AAA?$AA?$AA@ 1000fd58     libucrt:lcidtoname_downlevel.obj
 0002:00002d64       ??_C@_1M@BMGIGLIF@?$AAe?$AAs?$AA?9?$AAD?$AAO?$AA?$AA@ 1000fd64     libucrt:lcidtoname_downlevel.obj
 0002:00002d70       ??_C@_1BG@CMBHIPBE@?$AAs?$AAr?$AA?9?$AAB?$AAA?$AA?9?$AAC?$AAy?$AAr?$AAl?$AA?$AA@ 1000fd70     libucrt:lcidtoname_downlevel.obj
 0002:00002d88       ??_C@_1O@HEDBLHNP@?$AAs?$AAm?$AAa?$AA?9?$AAS?$AAE?$AA?$AA@ 1000fd88     libucrt:lcidtoname_downlevel.obj
 0002:00002d98       ??_C@_1M@DAGCADIM@?$AAa?$AAr?$AA?9?$AAO?$AAM?$AA?$AA@ 1000fd98     libucrt:lcidtoname_downlevel.obj
 0002:00002da4       ??_C@_1M@FODLMICG@?$AAe?$AAn?$AA?9?$AAJ?$AAM?$AA?$AA@ 1000fda4     libucrt:lcidtoname_downlevel.obj
 0002:00002db0       ??_C@_1M@DNMLCIHB@?$AAe?$AAs?$AA?9?$AAV?$AAE?$AA?$AA@ 1000fdb0     libucrt:lcidtoname_downlevel.obj
 0002:00002dbc       ??_C@_1O@EOKHMKJK@?$AAs?$AAm?$AAs?$AA?9?$AAF?$AAI?$AA?$AA@ 1000fdbc     libucrt:lcidtoname_downlevel.obj
 0002:00002dcc       ??_C@_1M@CAFJMKOF@?$AAa?$AAr?$AA?9?$AAY?$AAE?$AA?$AA@ 1000fdcc     libucrt:lcidtoname_downlevel.obj
 0002:00002dd8       ??_C@_1M@CBFHIJLI@?$AAe?$AAn?$AA?9?$AAC?$AAB?$AA?$AA@ 1000fdd8     libucrt:lcidtoname_downlevel.obj
 0002:00002de4       ??_C@_1M@BGNFLDN@?$AAe?$AAs?$AA?9?$AAC?$AAO?$AA?$AA@ 1000fde4     libucrt:lcidtoname_downlevel.obj
 0002:00002df0       ??_C@_1O@JMPHMAMC@?$AAs?$AAm?$AAn?$AA?9?$AAF?$AAI?$AA?$AA@ 1000fdf0     libucrt:lcidtoname_downlevel.obj
 0002:00002e00       ??_C@_1M@JLANABKE@?$AAa?$AAr?$AA?9?$AAS?$AAY?$AA?$AA@ 1000fe00     libucrt:lcidtoname_downlevel.obj
 0002:00002e0c       ??_C@_1M@HPKGCFGN@?$AAe?$AAn?$AA?9?$AAB?$AAZ?$AA?$AA@ 1000fe0c     libucrt:lcidtoname_downlevel.obj
 0002:00002e18       ??_C@_1M@OLJCMLGM@?$AAe?$AAs?$AA?9?$AAP?$AAE?$AA?$AA@ 1000fe18     libucrt:lcidtoname_downlevel.obj
 0002:00002e24       ??_C@_1M@MKKGFKLE@?$AAa?$AAr?$AA?9?$AAJ?$AAO?$AA?$AA@ 1000fe24     libucrt:lcidtoname_downlevel.obj
 0002:00002e30       ??_C@_1M@EKPGLDNI@?$AAe?$AAn?$AA?9?$AAT?$AAT?$AA?$AA@ 1000fe30     libucrt:lcidtoname_downlevel.obj
 0002:00002e3c       ??_C@_1M@OONGHFHE@?$AAe?$AAs?$AA?9?$AAA?$AAR?$AA?$AA@ 1000fe3c     libucrt:lcidtoname_downlevel.obj
 0002:00002e48       ??_C@_1M@OOJFGBHE@?$AAa?$AAr?$AA?9?$AAL?$AAB?$AA?$AA@ 1000fe48     libucrt:lcidtoname_downlevel.obj
 0002:00002e54       ??_C@_1M@GCEJHNEG@?$AAe?$AAn?$AA?9?$AAZ?$AAW?$AA?$AA@ 1000fe54     libucrt:lcidtoname_downlevel.obj
 0002:00002e60       ??_C@_1M@JNOCAHJI@?$AAe?$AAs?$AA?9?$AAE?$AAC?$AA?$AA@ 1000fe60     libucrt:lcidtoname_downlevel.obj
 0002:00002e6c       ??_C@_1M@JEFHPGGB@?$AAa?$AAr?$AA?9?$AAK?$AAW?$AA?$AA@ 1000fe6c     libucrt:lcidtoname_downlevel.obj
 0002:00002e78       ??_C@_1M@MLKIBJOJ@?$AAe?$AAn?$AA?9?$AAP?$AAH?$AA?$AA@ 1000fe78     libucrt:lcidtoname_downlevel.obj
 0002:00002e84       ??_C@_1M@BDNIPEND@?$AAe?$AAs?$AA?9?$AAC?$AAL?$AA?$AA@ 1000fe84     libucrt:lcidtoname_downlevel.obj
 0002:00002e90       ??_C@_1M@MPNMEKBD@?$AAa?$AAr?$AA?9?$AAA?$AAE?$AA?$AA@ 1000fe90     libucrt:lcidtoname_downlevel.obj
 0002:00002e9c       ??_C@_1M@KBJALCPI@?$AAe?$AAs?$AA?9?$AAU?$AAY?$AA?$AA@ 1000fe9c     libucrt:lcidtoname_downlevel.obj
 0002:00002ea8       ??_C@_1M@LLCCOAGA@?$AAa?$AAr?$AA?9?$AAB?$AAH?$AA?$AA@ 1000fea8     libucrt:lcidtoname_downlevel.obj
 0002:00002eb4       ??_C@_1M@PBFNCDEL@?$AAe?$AAs?$AA?9?$AAP?$AAY?$AA?$AA@ 1000feb4     libucrt:lcidtoname_downlevel.obj
 0002:00002ec0       ??_C@_1M@EDGINPNP@?$AAa?$AAr?$AA?9?$AAQ?$AAA?$AA?$AA@ 1000fec0     libucrt:lcidtoname_downlevel.obj
 0002:00002ecc       ??_C@_1M@MKDBIIJI@?$AAe?$AAs?$AA?9?$AAB?$AAO?$AA?$AA@ 1000fecc     libucrt:lcidtoname_downlevel.obj
 0002:00002ed8       ??_C@_1M@CPKKEBLD@?$AAe?$AAs?$AA?9?$AAS?$AAV?$AA?$AA@ 1000fed8     libucrt:lcidtoname_downlevel.obj
 0002:00002ee4       ??_C@_1M@NDBGMMJL@?$AAe?$AAs?$AA?9?$AAH?$AAN?$AA?$AA@ 1000fee4     libucrt:lcidtoname_downlevel.obj
 0002:00002ef0       ??_C@_1M@JIJIBHDP@?$AAe?$AAs?$AA?9?$AAN?$AAI?$AA?$AA@ 1000fef0     libucrt:lcidtoname_downlevel.obj
 0002:00002efc       ??_C@_1M@CGFMKEEK@?$AAe?$AAs?$AA?9?$AAP?$AAR?$AA?$AA@ 1000fefc     libucrt:lcidtoname_downlevel.obj
 0002:00002f08       ??_C@_1O@ICJHKIIK@?$AAz?$AAh?$AA?9?$AAC?$AAH?$AAT?$AA?$AA@ 1000ff08     libucrt:lcidtoname_downlevel.obj
 0002:00002f18       ??_C@_15CLNEJCE@?$AAs?$AAr?$AA?$AA@ 1000ff18     libucrt:lcidtoname_downlevel.obj
 0002:00003640       ??_C@_1M@KAHEKEIG@?$AAa?$AAf?$AA?9?$AAz?$AAa?$AA?$AA@ 10010640     libucrt:lcidtoname_downlevel.obj
 0002:0000364c       ??_C@_1M@GIECOABL@?$AAa?$AAr?$AA?9?$AAa?$AAe?$AA?$AA@ 1001064c     libucrt:lcidtoname_downlevel.obj
 0002:00003658       ??_C@_1M@BMLMEKGI@?$AAa?$AAr?$AA?9?$AAb?$AAh?$AA?$AA@ 10010658     libucrt:lcidtoname_downlevel.obj
 0002:00003664       ??_C@_1M@DAPFDGGB@?$AAa?$AAr?$AA?9?$AAd?$AAz?$AA?$AA@ 10010664     libucrt:lcidtoname_downlevel.obj
 0002:00003670       ??_C@_1M@FJNKGKIG@?$AAa?$AAr?$AA?9?$AAe?$AAg?$AA?$AA@ 10010670     libucrt:lcidtoname_downlevel.obj
 0002:0000367c       ??_C@_1M@FLGKKCLO@?$AAa?$AAr?$AA?9?$AAi?$AAq?$AA?$AA@ 1001067c     libucrt:lcidtoname_downlevel.obj
 0002:00003688       ??_C@_1M@GNDIPALM@?$AAa?$AAr?$AA?9?$AAj?$AAo?$AA?$AA@ 10010688     libucrt:lcidtoname_downlevel.obj
 0002:00003694       ??_C@_1M@DDMJFMGJ@?$AAa?$AAr?$AA?9?$AAk?$AAw?$AA?$AA@ 10010694     libucrt:lcidtoname_downlevel.obj
 0002:000036a0       ??_C@_1M@EJALMLHM@?$AAa?$AAr?$AA?9?$AAl?$AAb?$AA?$AA@ 100106a0     libucrt:lcidtoname_downlevel.obj
 0002:000036ac       ??_C@_1M@MOBDBLOC@?$AAa?$AAr?$AA?9?$AAl?$AAy?$AA?$AA@ 100106ac     libucrt:lcidtoname_downlevel.obj
 0002:000036b8       ??_C@_1M@JAOCLHDH@?$AAa?$AAr?$AA?9?$AAm?$AAa?$AA?$AA@ 100106b8     libucrt:lcidtoname_downlevel.obj
 0002:000036c4       ??_C@_1M@JHPMKJIE@?$AAa?$AAr?$AA?9?$AAo?$AAm?$AA?$AA@ 100106c4     libucrt:lcidtoname_downlevel.obj
 0002:000036d0       ??_C@_1M@OEPGHFNH@?$AAa?$AAr?$AA?9?$AAq?$AAa?$AA?$AA@ 100106d0     libucrt:lcidtoname_downlevel.obj
 0002:000036dc       ??_C@_1M@KJDONENM@?$AAa?$AAr?$AA?9?$AAs?$AAa?$AA?$AA@ 100106dc     libucrt:lcidtoname_downlevel.obj
 0002:000036e8       ??_C@_1M@DMJDKLKM@?$AAa?$AAr?$AA?9?$AAs?$AAy?$AA?$AA@ 100106e8     libucrt:lcidtoname_downlevel.obj
 0002:000036f4       ??_C@_1M@OMFIPEDC@?$AAa?$AAr?$AA?9?$AAt?$AAn?$AA?$AA@ 100106f4     libucrt:lcidtoname_downlevel.obj
 0002:00003700       ??_C@_1M@IHMHGAON@?$AAa?$AAr?$AA?9?$AAy?$AAe?$AA?$AA@ 10010700     libucrt:lcidtoname_downlevel.obj
 0002:0000370c       ??_C@_1BG@KDCPGJGB@?$AAa?$AAz?$AA?9?$AAa?$AAz?$AA?9?$AAc?$AAy?$AAr?$AAl?$AA?$AA@ 1001070c     libucrt:lcidtoname_downlevel.obj
 0002:00003724       ??_C@_1BG@IBCKDDOE@?$AAa?$AAz?$AA?9?$AAa?$AAz?$AA?9?$AAl?$AAa?$AAt?$AAn?$AA?$AA@ 10010724     libucrt:lcidtoname_downlevel.obj
 0002:0000373c       ??_C@_1M@EGPFDCPD@?$AAb?$AAe?$AA?9?$AAb?$AAy?$AA?$AA@ 1001073c     libucrt:lcidtoname_downlevel.obj
 0002:00003748       ??_C@_1M@PCMGMCGC@?$AAb?$AAg?$AA?9?$AAb?$AAg?$AA?$AA@ 10010748     libucrt:lcidtoname_downlevel.obj
 0002:00003754       ??_C@_1M@BJBMFGOB@?$AAb?$AAn?$AA?9?$AAi?$AAn?$AA?$AA@ 10010754     libucrt:lcidtoname_downlevel.obj
 0002:00003760       ??_C@_1BG@EAKMMACD@?$AAb?$AAs?$AA?9?$AAb?$AAa?$AA?9?$AAl?$AAa?$AAt?$AAn?$AA?$AA@ 10010760     libucrt:lcidtoname_downlevel.obj
 0002:00003778       ??_C@_1M@KGADAODK@?$AAc?$AAa?$AA?9?$AAe?$AAs?$AA?$AA@ 10010778     libucrt:lcidtoname_downlevel.obj
 0002:00003784       ??_C@_1M@COAJPDHI@?$AAc?$AAs?$AA?9?$AAc?$AAz?$AA?$AA@ 10010784     libucrt:lcidtoname_downlevel.obj
 0002:00003790       ??_C@_1M@DHBHFONH@?$AAc?$AAy?$AA?9?$AAg?$AAb?$AA?$AA@ 10010790     libucrt:lcidtoname_downlevel.obj
 0002:0000379c       ??_C@_1M@IMGKELGA@?$AAd?$AAa?$AA?9?$AAd?$AAk?$AA?$AA@ 1001079c     libucrt:lcidtoname_downlevel.obj
 0002:000037a8       ??_C@_1M@NNDGDNGA@?$AAd?$AAe?$AA?9?$AAa?$AAt?$AA?$AA@ 100107a8     libucrt:lcidtoname_downlevel.obj
 0002:000037b4       ??_C@_1M@IKDBHEEM@?$AAd?$AAe?$AA?9?$AAc?$AAh?$AA?$AA@ 100107b4     libucrt:lcidtoname_downlevel.obj
 0002:000037c0       ??_C@_1M@GFFOJMCJ@?$AAd?$AAe?$AA?9?$AAd?$AAe?$AA?$AA@ 100107c0     libucrt:lcidtoname_downlevel.obj
 0002:000037cc       ??_C@_1M@MDNLKBPM@?$AAd?$AAe?$AA?9?$AAl?$AAi?$AA?$AA@ 100107cc     libucrt:lcidtoname_downlevel.obj
 0002:000037d8       ??_C@_1M@NJBEEJNL@?$AAd?$AAe?$AA?9?$AAl?$AAu?$AA?$AA@ 100107d8     libucrt:lcidtoname_downlevel.obj
 0002:000037e4       ??_C@_1O@GNNELBAP@?$AAd?$AAi?$AAv?$AA?9?$AAm?$AAv?$AA?$AA@ 100107e4     libucrt:lcidtoname_downlevel.obj
 0002:000037f4       ??_C@_1M@EJLEOGAE@?$AAe?$AAl?$AA?9?$AAg?$AAr?$AA?$AA@ 100107f4     libucrt:lcidtoname_downlevel.obj
 0002:00003800       ??_C@_1M@GMPONJN@?$AAe?$AAn?$AA?9?$AAa?$AAu?$AA?$AA@ 10010800     libucrt:lcidtoname_downlevel.obj
 0002:0000380c       ??_C@_1M@NIDIIPGF@?$AAe?$AAn?$AA?9?$AAb?$AAz?$AA?$AA@ 1001080c     libucrt:lcidtoname_downlevel.obj
 0002:00003818       ??_C@_1M@JEHMIMFO@?$AAe?$AAn?$AA?9?$AAc?$AAa?$AA?$AA@ 10010818     libucrt:lcidtoname_downlevel.obj
 0002:00003824       ??_C@_1M@IGMJCDLA@?$AAe?$AAn?$AA?9?$AAc?$AAb?$AA?$AA@ 10010824     libucrt:lcidtoname_downlevel.obj
 0002:00003830       ??_C@_1M@BNFIGBKG@?$AAe?$AAn?$AA?9?$AAg?$AAb?$AA?$AA@ 10010830     libucrt:lcidtoname_downlevel.obj
 0002:0000383c       ??_C@_1M@LKIFDIGP@?$AAe?$AAn?$AA?9?$AAi?$AAe?$AA?$AA@ 1001083c     libucrt:lcidtoname_downlevel.obj
 0002:00003848       ??_C@_1M@PJKFGCCO@?$AAe?$AAn?$AA?9?$AAj?$AAm?$AA?$AA@ 10010848     libucrt:lcidtoname_downlevel.obj
 0002:00003854       ??_C@_1M@KPPKEPBO@?$AAe?$AAn?$AA?9?$AAn?$AAz?$AA?$AA@ 10010854     libucrt:lcidtoname_downlevel.obj
 0002:00003860       ??_C@_1M@GMDGLDOB@?$AAe?$AAn?$AA?9?$AAp?$AAh?$AA?$AA@ 10010860     libucrt:lcidtoname_downlevel.obj
 0002:0000386c       ??_C@_1M@ONGIBJNA@?$AAe?$AAn?$AA?9?$AAt?$AAt?$AA?$AA@ 1001086c     libucrt:lcidtoname_downlevel.obj
 0002:00003878       ??_C@_1M@LLODPCMM@?$AAe?$AAn?$AA?9?$AAu?$AAs?$AA?$AA@ 10010878     libucrt:lcidtoname_downlevel.obj
 0002:00003884       ??_C@_1M@LAKFNPAN@?$AAe?$AAn?$AA?9?$AAz?$AAa?$AA?$AA@ 10010884     libucrt:lcidtoname_downlevel.obj
 0002:00003890       ??_C@_1M@MFNHNHEO@?$AAe?$AAn?$AA?9?$AAz?$AAw?$AA?$AA@ 10010890     libucrt:lcidtoname_downlevel.obj
 0002:0000389c       ??_C@_1M@EJEINPHM@?$AAe?$AAs?$AA?9?$AAa?$AAr?$AA?$AA@ 1001089c     libucrt:lcidtoname_downlevel.obj
 0002:000038a8       ??_C@_1M@GNKPCCJA@?$AAe?$AAs?$AA?9?$AAb?$AAo?$AA?$AA@ 100108a8     libucrt:lcidtoname_downlevel.obj
 0002:000038b4       ??_C@_1M@LEEGFONL@?$AAe?$AAs?$AA?9?$AAc?$AAl?$AA?$AA@ 100108b4     libucrt:lcidtoname_downlevel.obj
 0002:000038c0       ??_C@_1M@KGPDPBDF@?$AAe?$AAs?$AA?9?$AAc?$AAo?$AA?$AA@ 100108c0     libucrt:lcidtoname_downlevel.obj
 0002:000038cc       ??_C@_1M@EIAHOHH@?$AAe?$AAs?$AA?9?$AAc?$AAr?$AA?$AA@ 100108cc     libucrt:lcidtoname_downlevel.obj
 0002:000038d8       ??_C@_1M@LLPGMBIN@?$AAe?$AAs?$AA?9?$AAd?$AAo?$AA?$AA@ 100108d8     libucrt:lcidtoname_downlevel.obj
 0002:000038e4       ??_C@_1M@DKHMKNJA@?$AAe?$AAs?$AA?9?$AAe?$AAc?$AA?$AA@ 100108e4     libucrt:lcidtoname_downlevel.obj
 0002:000038f0       ??_C@_1M@GKGFPKAP@?$AAe?$AAs?$AA?9?$AAe?$AAs?$AA?$AA@ 100108f0     libucrt:lcidtoname_downlevel.obj
 0002:000038fc       ??_C@_1M@LKHKGDLN@?$AAe?$AAs?$AA?9?$AAg?$AAt?$AA?$AA@ 100108fc     libucrt:lcidtoname_downlevel.obj
 0002:00003908       ??_C@_1M@HEIIGGJD@?$AAe?$AAs?$AA?9?$AAh?$AAn?$AA?$AA@ 10010908     libucrt:lcidtoname_downlevel.obj
 0002:00003914       ??_C@_1M@FBDHPPGD@?$AAe?$AAs?$AA?9?$AAm?$AAx?$AA?$AA@ 10010914     libucrt:lcidtoname_downlevel.obj
 0002:00003920       ??_C@_1M@DPAGLNDH@?$AAe?$AAs?$AA?9?$AAn?$AAi?$AA?$AA@ 10010920     libucrt:lcidtoname_downlevel.obj
 0002:0000392c       ??_C@_1M@MDGOPGDD@?$AAe?$AAs?$AA?9?$AAp?$AAa?$AA?$AA@ 1001092c     libucrt:lcidtoname_downlevel.obj
 0002:00003938       ??_C@_1M@EMAMGBGE@?$AAe?$AAs?$AA?9?$AAp?$AAe?$AA?$AA@ 10010938     libucrt:lcidtoname_downlevel.obj
 0002:00003944       ??_C@_1M@IBMCAOEC@?$AAe?$AAs?$AA?9?$AAp?$AAr?$AA?$AA@ 10010944     libucrt:lcidtoname_downlevel.obj
 0002:00003950       ??_C@_1M@FGMDIJED@?$AAe?$AAs?$AA?9?$AAp?$AAy?$AA?$AA@ 10010950     libucrt:lcidtoname_downlevel.obj
 0002:0000395c       ??_C@_1M@IIDEOLLL@?$AAe?$AAs?$AA?9?$AAs?$AAv?$AA?$AA@ 1001095c     libucrt:lcidtoname_downlevel.obj
 0002:00003968       ??_C@_1M@GAOBIPA@?$AAe?$AAs?$AA?9?$AAu?$AAy?$AA?$AA@ 10010968     libucrt:lcidtoname_downlevel.obj
 0002:00003974       ??_C@_1M@JKFFICHJ@?$AAe?$AAs?$AA?9?$AAv?$AAe?$AA?$AA@ 10010974     libucrt:lcidtoname_downlevel.obj
 0002:00003980       ??_C@_1M@PNMLOJDF@?$AAe?$AAt?$AA?9?$AAe?$AAe?$AA?$AA@ 10010980     libucrt:lcidtoname_downlevel.obj
 0002:0000398c       ??_C@_1M@GHHLIKEI@?$AAe?$AAu?$AA?9?$AAe?$AAs?$AA?$AA@ 1001098c     libucrt:lcidtoname_downlevel.obj
 0002:00003998       ??_C@_1M@PBNONODE@?$AAf?$AAa?$AA?9?$AAi?$AAr?$AA?$AA@ 10010998     libucrt:lcidtoname_downlevel.obj
 0002:000039a4       ??_C@_1M@JEEHPMIL@?$AAf?$AAi?$AA?9?$AAf?$AAi?$AA?$AA@ 100109a4     libucrt:lcidtoname_downlevel.obj
 0002:000039b0       ??_C@_1M@LMDCNDBA@?$AAf?$AAo?$AA?9?$AAf?$AAo?$AA?$AA@ 100109b0     libucrt:lcidtoname_downlevel.obj
 0002:000039bc       ??_C@_1M@JKEOHLDK@?$AAf?$AAr?$AA?9?$AAb?$AAe?$AA?$AA@ 100109bc     libucrt:lcidtoname_downlevel.obj
 0002:000039c8       ??_C@_1M@NOHADPMI@?$AAf?$AAr?$AA?9?$AAc?$AAa?$AA?$AA@ 100109c8     libucrt:lcidtoname_downlevel.obj
 0002:000039d4       ??_C@_1M@KDHIHAEC@?$AAf?$AAr?$AA?9?$AAc?$AAh?$AA?$AA@ 100109d4     libucrt:lcidtoname_downlevel.obj
 0002:000039e0       ??_C@_1M@MMBBFGAK@?$AAf?$AAr?$AA?9?$AAf?$AAr?$AA?$AA@ 100109e0     libucrt:lcidtoname_downlevel.obj
 0002:000039ec       ??_C@_1M@PAFNENNF@?$AAf?$AAr?$AA?9?$AAl?$AAu?$AA?$AA@ 100109ec     libucrt:lcidtoname_downlevel.obj
 0002:000039f8       ??_C@_1M@EOHDJGDD@?$AAf?$AAr?$AA?9?$AAm?$AAc?$AA?$AA@ 100109f8     libucrt:lcidtoname_downlevel.obj
 0002:00003a04       ??_C@_1M@FAPLLOPF@?$AAg?$AAl?$AA?9?$AAe?$AAs?$AA?$AA@ 10010a04     libucrt:lcidtoname_downlevel.obj
 0002:00003a10       ??_C@_1M@FOPBFLOO@?$AAg?$AAu?$AA?9?$AAi?$AAn?$AA?$AA@ 10010a10     libucrt:lcidtoname_downlevel.obj
 0002:00003a1c       ??_C@_1M@KBMCINPM@?$AAh?$AAe?$AA?9?$AAi?$AAl?$AA?$AA@ 10010a1c     libucrt:lcidtoname_downlevel.obj
 0002:00003a28       ??_C@_1M@BBPHKFPJ@?$AAh?$AAi?$AA?9?$AAi?$AAn?$AA?$AA@ 10010a28     libucrt:lcidtoname_downlevel.obj
 0002:00003a34       ??_C@_1M@PMBNDPHD@?$AAh?$AAr?$AA?9?$AAb?$AAa?$AA?$AA@ 10010a34     libucrt:lcidtoname_downlevel.obj
 0002:00003a40       ??_C@_1M@BPCKOEGE@?$AAh?$AAr?$AA?9?$AAh?$AAr?$AA?$AA@ 10010a40     libucrt:lcidtoname_downlevel.obj
 0002:00003a4c       ??_C@_1M@GACBMHKE@?$AAh?$AAu?$AA?9?$AAh?$AAu?$AA?$AA@ 10010a4c     libucrt:lcidtoname_downlevel.obj
 0002:00003a58       ??_C@_1M@MILPAJJC@?$AAh?$AAy?$AA?9?$AAa?$AAm?$AA?$AA@ 10010a58     libucrt:lcidtoname_downlevel.obj
 0002:00003a64       ??_C@_1M@BABBICEC@?$AAi?$AAd?$AA?9?$AAi?$AAd?$AA?$AA@ 10010a64     libucrt:lcidtoname_downlevel.obj
 0002:00003a70       ??_C@_1M@BIKNHHPF@?$AAi?$AAs?$AA?9?$AAi?$AAs?$AA?$AA@ 10010a70     libucrt:lcidtoname_downlevel.obj
 0002:00003a7c       ??_C@_1M@NMPCJPHE@?$AAi?$AAt?$AA?9?$AAc?$AAh?$AA?$AA@ 10010a7c     libucrt:lcidtoname_downlevel.obj
 0002:00003a88       ??_C@_1M@GHKGFEDF@?$AAi?$AAt?$AA?9?$AAi?$AAt?$AA?$AA@ 10010a88     libucrt:lcidtoname_downlevel.obj
 0002:00003a94       ??_C@_1M@NIEJCJJA@?$AAj?$AAa?$AA?9?$AAj?$AAp?$AA?$AA@ 10010a94     libucrt:lcidtoname_downlevel.obj
 0002:00003aa0       ??_C@_1M@JILFNBIM@?$AAk?$AAa?$AA?9?$AAg?$AAe?$AA?$AA@ 10010aa0     libucrt:lcidtoname_downlevel.obj
 0002:00003aac       ??_C@_1M@PACPMGPH@?$AAk?$AAk?$AA?9?$AAk?$AAz?$AA?$AA@ 10010aac     libucrt:lcidtoname_downlevel.obj
 0002:00003ab8       ??_C@_1M@IELFGMHA@?$AAk?$AAn?$AA?9?$AAi?$AAn?$AA?$AA@ 10010ab8     libucrt:lcidtoname_downlevel.obj
 0002:00003ac4       ??_C@_1O@IBBJHCH@?$AAk?$AAo?$AAk?$AA?9?$AAi?$AAn?$AA?$AA@ 10010ac4     libucrt:lcidtoname_downlevel.obj
 0002:00003ad4       ??_C@_1M@DMHAEOGC@?$AAk?$AAo?$AA?9?$AAk?$AAr?$AA?$AA@ 10010ad4     libucrt:lcidtoname_downlevel.obj
 0002:00003ae0       ??_C@_1M@HBAHBIGA@?$AAk?$AAy?$AA?9?$AAk?$AAg?$AA?$AA@ 10010ae0     libucrt:lcidtoname_downlevel.obj
 0002:00003aec       ??_C@_1M@KPMILCJG@?$AAl?$AAt?$AA?9?$AAl?$AAt?$AA?$AA@ 10010aec     libucrt:lcidtoname_downlevel.obj
 0002:00003af8       ??_C@_1M@BDEKKCA@?$AAl?$AAv?$AA?9?$AAl?$AAv?$AA?$AA@ 10010af8     libucrt:lcidtoname_downlevel.obj
 0002:00003b04       ??_C@_1M@ELCKCCJJ@?$AAm?$AAi?$AA?9?$AAn?$AAz?$AA?$AA@ 10010b04     libucrt:lcidtoname_downlevel.obj
 0002:00003b10       ??_C@_1M@CBOOLAPA@?$AAm?$AAk?$AA?9?$AAm?$AAk?$AA?$AA@ 10010b10     libucrt:lcidtoname_downlevel.obj
 0002:00003b1c       ??_C@_1M@GPHNBJKN@?$AAm?$AAl?$AA?9?$AAi?$AAn?$AA?$AA@ 10010b1c     libucrt:lcidtoname_downlevel.obj
 0002:00003b28       ??_C@_1M@PABJILIG@?$AAm?$AAn?$AA?9?$AAm?$AAn?$AA?$AA@ 10010b28     libucrt:lcidtoname_downlevel.obj
 0002:00003b34       ??_C@_1M@FGBKKIPG@?$AAm?$AAr?$AA?9?$AAi?$AAn?$AA?$AA@ 10010b34     libucrt:lcidtoname_downlevel.obj
 0002:00003b40       ??_C@_1M@NDBPDDAL@?$AAm?$AAs?$AA?9?$AAb?$AAn?$AA?$AA@ 10010b40     libucrt:lcidtoname_downlevel.obj
 0002:00003b4c       ??_C@_1M@OPIHOOPI@?$AAm?$AAs?$AA?9?$AAm?$AAy?$AA?$AA@ 10010b4c     libucrt:lcidtoname_downlevel.obj
 0002:00003b58       ??_C@_1M@PPDBCNFM@?$AAm?$AAt?$AA?9?$AAm?$AAt?$AA?$AA@ 10010b58     libucrt:lcidtoname_downlevel.obj
 0002:00003b64       ??_C@_1M@KDJDKMDD@?$AAn?$AAb?$AA?9?$AAn?$AAo?$AA?$AA@ 10010b64     libucrt:lcidtoname_downlevel.obj
 0002:00003b70       ??_C@_1M@KFCFLMJP@?$AAn?$AAl?$AA?9?$AAb?$AAe?$AA?$AA@ 10010b70     libucrt:lcidtoname_downlevel.obj
 0002:00003b7c       ??_C@_1M@KPOPDDGO@?$AAn?$AAl?$AA?9?$AAn?$AAl?$AA?$AA@ 10010b7c     libucrt:lcidtoname_downlevel.obj
 0002:00003b88       ??_C@_1M@LJKPEMLN@?$AAn?$AAn?$AA?9?$AAn?$AAo?$AA?$AA@ 10010b88     libucrt:lcidtoname_downlevel.obj
 0002:00003b94       ??_C@_1M@BDGHHBFL@?$AAn?$AAs?$AA?9?$AAz?$AAa?$AA?$AA@ 10010b94     libucrt:lcidtoname_downlevel.obj
 0002:00003ba0       ??_C@_1M@IDEHOAP@?$AAp?$AAa?$AA?9?$AAi?$AAn?$AA?$AA@ 10010ba0     libucrt:lcidtoname_downlevel.obj
 0002:00003bac       ??_C@_1M@HDBKGOGH@?$AAp?$AAl?$AA?9?$AAp?$AAl?$AA?$AA@ 10010bac     libucrt:lcidtoname_downlevel.obj
 0002:00003bb8       ??_C@_1M@LJLLCMEH@?$AAp?$AAt?$AA?9?$AAb?$AAr?$AA?$AA@ 10010bb8     libucrt:lcidtoname_downlevel.obj
 0002:00003bc4       ??_C@_1M@NCMONAAL@?$AAp?$AAt?$AA?9?$AAp?$AAt?$AA?$AA@ 10010bc4     libucrt:lcidtoname_downlevel.obj
 0002:00003bd0       ??_C@_1O@EAKMAJDN@?$AAq?$AAu?$AAz?$AA?9?$AAb?$AAo?$AA?$AA@ 10010bd0     libucrt:lcidtoname_downlevel.obj
 0002:00003be0       ??_C@_1O@BHHPIGDN@?$AAq?$AAu?$AAz?$AA?9?$AAe?$AAc?$AA?$AA@ 10010be0     libucrt:lcidtoname_downlevel.obj
 0002:00003bf0       ??_C@_1O@GBAPEKMJ@?$AAq?$AAu?$AAz?$AA?9?$AAp?$AAe?$AA?$AA@ 10010bf0     libucrt:lcidtoname_downlevel.obj
 0002:00003c00       ??_C@_1M@CLGLEFBO@?$AAr?$AAo?$AA?9?$AAr?$AAo?$AA?$AA@ 10010c00     libucrt:lcidtoname_downlevel.obj
 0002:00003c0c       ??_C@_1M@CEEDODME@?$AAr?$AAu?$AA?9?$AAr?$AAu?$AA?$AA@ 10010c0c     libucrt:lcidtoname_downlevel.obj
 0002:00003c18       ??_C@_1M@HPKKKMPP@?$AAs?$AAa?$AA?9?$AAi?$AAn?$AA?$AA@ 10010c18     libucrt:lcidtoname_downlevel.obj
 0002:00003c24       ??_C@_1M@BKMAIGOJ@?$AAs?$AAe?$AA?9?$AAf?$AAi?$AA?$AA@ 10010c24     libucrt:lcidtoname_downlevel.obj
 0002:00003c30       ??_C@_1M@NDPIFLFI@?$AAs?$AAe?$AA?9?$AAn?$AAo?$AA?$AA@ 10010c30     libucrt:lcidtoname_downlevel.obj
 0002:00003c3c       ??_C@_1M@DANKKHJ@?$AAs?$AAe?$AA?9?$AAs?$AAe?$AA?$AA@ 10010c3c     libucrt:lcidtoname_downlevel.obj
 0002:00003c48       ??_C@_1M@PNBLONPJ@?$AAs?$AAk?$AA?9?$AAs?$AAk?$AA?$AA@ 10010c48     libucrt:lcidtoname_downlevel.obj
 0002:00003c54       ??_C@_1M@LFMODOAL@?$AAs?$AAl?$AA?9?$AAs?$AAi?$AA?$AA@ 10010c54     libucrt:lcidtoname_downlevel.obj
 0002:00003c60       ??_C@_1O@DFKOMPG@?$AAs?$AAm?$AAa?$AA?9?$AAn?$AAo?$AA?$AA@ 10010c60     libucrt:lcidtoname_downlevel.obj
 0002:00003c70       ??_C@_1O@NDKPBNNH@?$AAs?$AAm?$AAa?$AA?9?$AAs?$AAe?$AA?$AA@ 10010c70     libucrt:lcidtoname_downlevel.obj
 0002:00003c80       ??_C@_1O@PLLKBHAB@?$AAs?$AAm?$AAj?$AA?9?$AAn?$AAo?$AA?$AA@ 10010c80     libucrt:lcidtoname_downlevel.obj
 0002:00003c90       ??_C@_1O@CLEPOGCA@?$AAs?$AAm?$AAj?$AA?9?$AAs?$AAe?$AA?$AA@ 10010c90     libucrt:lcidtoname_downlevel.obj
 0002:00003ca0       ??_C@_1O@DLGJGKMK@?$AAs?$AAm?$AAn?$AA?9?$AAf?$AAi?$AA?$AA@ 10010ca0     libucrt:lcidtoname_downlevel.obj
 0002:00003cb0       ??_C@_1O@OJDJGAJC@?$AAs?$AAm?$AAs?$AA?9?$AAf?$AAi?$AA?$AA@ 10010cb0     libucrt:lcidtoname_downlevel.obj
 0002:00003cc0       ??_C@_1M@BOFOGHPB@?$AAs?$AAq?$AA?9?$AAa?$AAl?$AA?$AA@ 10010cc0     libucrt:lcidtoname_downlevel.obj
 0002:00003ccc       ??_C@_1BG@LJBBIPGB@?$AAs?$AAr?$AA?9?$AAb?$AAa?$AA?9?$AAc?$AAy?$AAr?$AAl?$AA?$AA@ 10010ccc     libucrt:lcidtoname_downlevel.obj
 0002:00003ce4       ??_C@_1BG@JLBENFOE@?$AAs?$AAr?$AA?9?$AAb?$AAa?$AA?9?$AAl?$AAa?$AAt?$AAn?$AA?$AA@ 10010ce4     libucrt:lcidtoname_downlevel.obj
 0002:00003cfc       ??_C@_1BG@KODPNHE@?$AAs?$AAr?$AA?9?$AAs?$AAp?$AA?9?$AAc?$AAy?$AAr?$AAl?$AA?$AA@ 10010cfc     libucrt:lcidtoname_downlevel.obj
 0002:00003d14       ??_C@_1BG@CIOGKHPB@?$AAs?$AAr?$AA?9?$AAs?$AAp?$AA?9?$AAl?$AAa?$AAt?$AAn?$AA?$AA@ 10010d14     libucrt:lcidtoname_downlevel.obj
 0002:00003d2c       ??_C@_1M@NGFJLMAC@?$AAs?$AAv?$AA?9?$AAf?$AAi?$AA?$AA@ 10010d2c     libucrt:lcidtoname_downlevel.obj
 0002:00003d38       ??_C@_1M@MPJEJAJC@?$AAs?$AAv?$AA?9?$AAs?$AAe?$AA?$AA@ 10010d38     libucrt:lcidtoname_downlevel.obj
 0002:00003d44       ??_C@_1M@MPNDHLFK@?$AAs?$AAw?$AA?9?$AAk?$AAe?$AA?$AA@ 10010d44     libucrt:lcidtoname_downlevel.obj
 0002:00003d50       ??_C@_1O@KOHBJJI@?$AAs?$AAy?$AAr?$AA?9?$AAs?$AAy?$AA?$AA@ 10010d50     libucrt:lcidtoname_downlevel.obj
 0002:00003d60       ??_C@_1M@LDCEFHA@?$AAt?$AAa?$AA?9?$AAi?$AAn?$AA?$AA@ 10010d60     libucrt:lcidtoname_downlevel.obj
 0002:00003d6c       ??_C@_1M@CNJOFAK@?$AAt?$AAe?$AA?9?$AAi?$AAn?$AA?$AA@ 10010d6c     libucrt:lcidtoname_downlevel.obj
 0002:00003d78       ??_C@_1M@GNAECACD@?$AAt?$AAh?$AA?9?$AAt?$AAh?$AA?$AA@ 10010d78     libucrt:lcidtoname_downlevel.obj
 0002:00003d84       ??_C@_1M@CHBIHOJO@?$AAt?$AAn?$AA?9?$AAz?$AAa?$AA?$AA@ 10010d84     libucrt:lcidtoname_downlevel.obj
 0002:00003d90       ??_C@_1M@GCCMIGPJ@?$AAt?$AAr?$AA?9?$AAt?$AAr?$AA?$AA@ 10010d90     libucrt:lcidtoname_downlevel.obj
 0002:00003d9c       ??_C@_1M@CELMCNBK@?$AAt?$AAt?$AA?9?$AAr?$AAu?$AA?$AA@ 10010d9c     libucrt:lcidtoname_downlevel.obj
 0002:00003da8       ??_C@_1M@KLMCELGA@?$AAu?$AAk?$AA?9?$AAu?$AAa?$AA?$AA@ 10010da8     libucrt:lcidtoname_downlevel.obj
 0002:00003db4       ??_C@_1M@EPAJJAJF@?$AAu?$AAr?$AA?9?$AAp?$AAk?$AA?$AA@ 10010db4     libucrt:lcidtoname_downlevel.obj
 0002:00003dc0       ??_C@_1BG@GEGPMCDJ@?$AAu?$AAz?$AA?9?$AAu?$AAz?$AA?9?$AAc?$AAy?$AAr?$AAl?$AA?$AA@ 10010dc0     libucrt:lcidtoname_downlevel.obj
 0002:00003dd8       ??_C@_1BG@EGGKJILM@?$AAu?$AAz?$AA?9?$AAu?$AAz?$AA?9?$AAl?$AAa?$AAt?$AAn?$AA?$AA@ 10010dd8     libucrt:lcidtoname_downlevel.obj
 0002:00003df0       ??_C@_1M@GFOCLFF@?$AAv?$AAi?$AA?9?$AAv?$AAn?$AA?$AA@ 10010df0     libucrt:lcidtoname_downlevel.obj
 0002:00003dfc       ??_C@_1M@CPAMEDFI@?$AAx?$AAh?$AA?9?$AAz?$AAa?$AA?$AA@ 10010dfc     libucrt:lcidtoname_downlevel.obj
 0002:00003e08       ??_C@_1O@EBKIFIGN@?$AAz?$AAh?$AA?9?$AAc?$AAh?$AAs?$AA?$AA@ 10010e08     libucrt:lcidtoname_downlevel.obj
 0002:00003e18       ??_C@_1O@NMHPGANE@?$AAz?$AAh?$AA?9?$AAc?$AAh?$AAt?$AA?$AA@ 10010e18     libucrt:lcidtoname_downlevel.obj
 0002:00003e28       ??_C@_1M@LPINJOMC@?$AAz?$AAh?$AA?9?$AAc?$AAn?$AA?$AA@ 10010e28     libucrt:lcidtoname_downlevel.obj
 0002:00003e34       ??_C@_1M@OCJEJODD@?$AAz?$AAh?$AA?9?$AAh?$AAk?$AA?$AA@ 10010e34     libucrt:lcidtoname_downlevel.obj
 0002:00003e40       ??_C@_1M@DNDLJINH@?$AAz?$AAh?$AA?9?$AAm?$AAo?$AA?$AA@ 10010e40     libucrt:lcidtoname_downlevel.obj
 0002:00003e4c       ??_C@_1M@MBFDNDND@?$AAz?$AAh?$AA?9?$AAs?$AAg?$AA?$AA@ 10010e4c     libucrt:lcidtoname_downlevel.obj
 0002:00003e58       ??_C@_1M@IMEPLEPE@?$AAz?$AAh?$AA?9?$AAt?$AAw?$AA?$AA@ 10010e58     libucrt:lcidtoname_downlevel.obj
 0002:00003e64       ??_C@_1M@BBGHNHJP@?$AAz?$AAu?$AA?9?$AAz?$AAa?$AA?$AA@ 10010e64     libucrt:lcidtoname_downlevel.obj
 0002:00003e70       ??_C@_00CNPNBAHC@?$AA@     10010e70     libucrt:mbrtowc.obj
 0002:00003ed8       ??_C@_1BA@BALFACEM@?$AAC?$AAO?$AAN?$AAO?$AAU?$AAT?$AA$?$AA?$AA@ 10010ed8     libucrt:initcon.obj
 0002:00003ff0       __infinity                 10010ff0     libucrt:87tran.obj
 0002:00003ffa       __minfinity                10010ffa     libucrt:87tran.obj
 0002:00004004       __logemax                  10011004     libucrt:87tran.obj
 0002:0000402a       __OP_EXPjmptab             1001102a     libucrt:87tran.obj
 0002:00004050       __indefinite               10011050     libucrt:87disp.obj
 0002:0000405a       __piby2                    1001105a     libucrt:87disp.obj
 0002:00004064       __piby4                    10011064     libucrt:87disp.obj
 0002:00004098       __DEFAULT_CW_in_mem        10011098     libucrt:common.obj
 0002:0000409a       __pi_by_2_to_61            1001109a     libucrt:common.obj
 0002:000040d4       ??_C@_03MGHMBJCF@log?$AA@  100110d4     libucrt:libm_error.obj
 0002:000040d8       ??_C@_05HGHHAHAP@log10?$AA@ 100110d8     libucrt:libm_error.obj
 0002:000040e0       ??_C@_03KHJOGHMM@exp?$AA@  100110e0     libucrt:libm_error.obj
 0002:000040e4       ??_C@_03JGHBODFD@pow?$AA@  100110e4     libucrt:libm_error.obj
 0002:000040e8       ??_C@_04FIHNOPOL@asin?$AA@ 100110e8     libucrt:libm_error.obj
 0002:000040f0       ??_C@_04PDIFKINK@acos?$AA@ 100110f0     libucrt:libm_error.obj
 0002:000040f8       ??_C@_04EIAKFFMI@sqrt?$AA@ 100110f8     libucrt:libm_error.obj
 0002:00004100       __real@3ff0000000000000    10011100     libucrt:libm_error.obj
 0002:00004120       ___acrt_log10_table_t      10011120     libucrt:log10_tables.obj
 0002:00004530       ___acrt_log10_table_cb     10011530     libucrt:log10_tables.obj
 0002:00004940       __real@3fe0000000000000    10011940     libucrt:powhlp.obj
 0002:00004a30       ??_C@_04COOMCNPB@sinh?$AA@ 10011a30     libucrt:fpexcept.obj
 0002:00004a38       ??_C@_04HPJJNFIM@cosh?$AA@ 10011a38     libucrt:fpexcept.obj
 0002:00004a40       ??_C@_04FJHINJAO@tanh?$AA@ 10011a40     libucrt:fpexcept.obj
 0002:00004a48       ??_C@_04MLLJIGOK@atan?$AA@ 10011a48     libucrt:fpexcept.obj
 0002:00004a50       ??_C@_05KNGEOGJB@atan2?$AA@ 10011a50     libucrt:fpexcept.obj
 0002:00004a58       ??_C@_03BLEJJJBH@sin?$AA@  10011a58     libucrt:fpexcept.obj
 0002:00004a5c       ??_C@_03LALBNOCG@cos?$AA@  10011a5c     libucrt:fpexcept.obj
 0002:00004a60       ??_C@_03IIINPABG@tan?$AA@  10011a60     libucrt:fpexcept.obj
 0002:00004a64       ??_C@_04GFPJNGEK@ceil?$AA@ 10011a64     libucrt:fpexcept.obj
 0002:00004a6c       ??_C@_05PBJFFIGL@floor?$AA@ 10011a6c     libucrt:fpexcept.obj
 0002:00004a74       ??_C@_04ODHECPBC@fabs?$AA@ 10011a74     libucrt:fpexcept.obj
 0002:00004a7c       ??_C@_04EHEDPDJG@modf?$AA@ 10011a7c     libucrt:fpexcept.obj
 0002:00004a84       ??_C@_05CEJMAHNP@ldexp?$AA@ 10011a84     libucrt:fpexcept.obj
 0002:00004a8c       ??_C@_05KBKMEMPO@_cabs?$AA@ 10011a8c     libucrt:fpexcept.obj
 0002:00004a94       ??_C@_06MEIMCGCF@_hypot?$AA@ 10011a94     libucrt:fpexcept.obj
 0002:00004a9c       ??_C@_04KEPJIHGP@fmod?$AA@ 10011a9c     libucrt:fpexcept.obj
 0002:00004aa4       ??_C@_05GKKHEGJL@frexp?$AA@ 10011aa4     libucrt:fpexcept.obj
 0002:00004aac       ??_C@_03MJLDFKDL@_y0?$AA@  10011aac     libucrt:fpexcept.obj
 0002:00004ab0       ??_C@_03NAKIGLHK@_y1?$AA@  10011ab0     libucrt:fpexcept.obj
 0002:00004ab4       ??_C@_03ONILCKOB@_yn?$AA@  10011ab4     libucrt:fpexcept.obj
 0002:00004ab8       ??_C@_05JGDBENOH@_logb?$AA@ 10011ab8     libucrt:fpexcept.obj
 0002:00004ac0       ??_C@_0L@KDOEJCKC@_nextafter?$AA@ 10011ac0     libucrt:fpexcept.obj
 0002:00004ad0       __d_inf                    10011ad0     libucrt:util.obj
 0002:00004ad8       __d_max                    10011ad8     libucrt:util.obj
 0002:00004ae0       __d_mzero                  10011ae0     libucrt:util.obj
 0002:00004ae8       ??_C@_1BK@DBDEIDLH@?$AAK?$AAE?$AAR?$AAN?$AAE?$AAL?$AA3?$AA2?$AA?4?$AAD?$AAL?$AAL@ 10011ae8     DelayImp:delayhlp.obj
 0002:00004b04       ??_C@_0BI@OMNLIJDB@AcquireSRWLockExclusive@ 10011b04     DelayImp:delayhlp.obj
 0002:00004b1c       ??_C@_0BI@HMIEPCNJ@ReleaseSRWLockExclusive@ 10011b1c     DelayImp:delayhlp.obj
 0002:00004b34       ___pfnDliFailureHook2      10011b34     DelayImp:delayhk1.obj
 0002:00004b38       __load_config_used         10011b38     LIBCMT:loadcfg.obj
 0002:00004bd8       ??_C@_0BB@DNKCABP@getAsyncKeyState@ 10011bd8     asynckeystate.obj
 0002:00004bf0       ??_C@_0FM@LMFPFDFD@c?3?2users?2salki?2desktop?2node_glo@ 10011bf0     asynckeystate.obj
 0002:00004c4c       ??_C@_05ONJGPJEO@addon@    10011c4c     asynckeystate.obj
 0002:00004c54       ??_C@_08HCOMDCCD@iojs?4exe@ 10011c54     win_delay_load_hook.obj
 0002:00004c60       ??_C@_08JDDNMFDB@node?4exe@ 10011c60     win_delay_load_hook.obj
 0002:00004c6c       ___pfnDliNotifyHook2       10011c6c     win_delay_load_hook.obj
 0002:00004ce0       ___safe_se_handler_table   10011ce0     <linker-defined>
 0002:00005074       ___rtc_iaa                 10012074     LIBCMT:initsect.obj
 0002:00005078       ___rtc_izz                 10012078     LIBCMT:initsect.obj
 0002:0000507c       ___rtc_taa                 1001207c     LIBCMT:initsect.obj
 0002:00005080       ___rtc_tzz                 10012080     LIBCMT:initsect.obj
 0002:00005444       __DELAY_IMPORT_DESCRIPTOR_node_exe 10012444     node:node.exe
 0002:00005464       __NULL_DELAY_IMPORT_DESCRIPTOR 10012464     node:node.exe
 0002:000054b4       \177node_NULL_THUNK_DATA_DLN 100124b4     node:node.exe
 0002:000057d0       \177node_NULL_THUNK_DATA_DLB 100127d0     node:node.exe
 0002:00005858       __IMPORT_DESCRIPTOR_KERNEL32 10012858     kernel32:KERNEL32.dll
 0002:0000586c       __IMPORT_DESCRIPTOR_USER32 1001286c     user32:USER32.dll
 0002:00005880       __NULL_IMPORT_DESCRIPTOR   10012880     kernel32:KERNEL32.dll
 0003:00000000       ___security_cookie_complement 10013000     LIBCMT:gs_cookie.obj
 0003:00000004       ___security_cookie         10013004     LIBCMT:gs_cookie.obj
 0003:00000008       ___scrt_native_dllmain_reason 10013008     LIBCMT:utility.obj
 0003:00000010       ___isa_enabled             10013010     LIBCMT:cpu_disp.obj
 0003:00000030       __NLG_Destination          10013030     libvcruntime:exsup.obj
 0003:00000040       ___abort_behavior          10013040     libucrt:abort.obj
 0003:00000050       ___acrt_initial_locale_data 10013050     libucrt:nlsdata.obj
 0003:00000108       ___acrt_initial_locale_pointers 10013108     libucrt:nlsdata.obj
 0003:00000110       ___acrt_wide_c_locale_string 10013110     libucrt:nlsdata.obj
 0003:00000118       ___acrt_initial_multibyte_data 10013118     libucrt:mbctype.obj
 0003:00000638       __iob                      10013638     libucrt:_file.obj
 0003:000006e0       ___globallocalestatus      100136e0     libucrt:glstatus.obj
 0003:000006e8       ___acrt_lconv_c            100136e8     libucrt:localeconv.obj
 0003:00000738       ___acrt_lconv_static_decimal 10013738     libucrt:localeconv.obj
 0003:0000073c       ___acrt_lconv_static_W_decimal 1001373c     libucrt:localeconv.obj
 0003:00000740       __lookuptrailbytes         10013740     libucrt:read.obj
 0003:00000850       __fltused                  10013850     LIBCMT:fltused.obj
 0003:00000884       __imp_?GetCurrentContext@Isolate@v8@@QAE?AV?$Local@VContext@v8@@@2@XZ 10013884     node:node.exe
 0003:00000888       __imp__node_module_register 10013888     node:node.exe
 0003:0000088c       __imp_?GetCurrent@Isolate@v8@@SAPAV12@XZ 1001388c     node:node.exe
 0003:00000890       __imp_??1HandleScope@v8@@QAE@XZ 10013890     node:node.exe
 0003:00000894       __imp_??0HandleScope@v8@@QAE@PAVIsolate@1@@Z 10013894     node:node.exe
 0003:00000898       __imp_?GetFunction@FunctionTemplate@v8@@QAE?AV?$MaybeLocal@VFunction@v8@@@2@V?$Local@VContext@v8@@@2@@Z 10013898     node:node.exe
 0003:0000089c       __imp_?New@FunctionTemplate@v8@@SA?AV?$Local@VFunctionTemplate@v8@@@2@PAVIsolate@2@P6AXABV?$FunctionCallbackInfo@VValue@v8@@@2@@ZV?$Local@VValue@v8@@@2@V?$Local@VSignature@v8@@@2@HW4ConstructorBehavior@2@W4SideEffectType@2@@Z 1001389c     node:node.exe
 0003:000008a0       __imp_?ToLocalEmpty@V8@v8@@CAXXZ 100138a0     node:node.exe
 0003:000008a4       __imp_?IntegerValue@Value@v8@@QBE_JXZ 100138a4     node:node.exe
 0003:000008a8       __imp_?NewFromUtf8@String@v8@@SA?AV?$MaybeLocal@VString@v8@@@2@PAVIsolate@2@PBDW4NewStringType@2@H@Z 100138a8     node:node.exe
 0003:000008ac       __imp_?Set@Object@v8@@QAE_NV?$Local@VValue@v8@@@2@0@Z 100138ac     node:node.exe
 0003:000008b0       __imp_?SetName@Function@v8@@QAEXV?$Local@VString@v8@@@2@@Z 100138b0     node:node.exe
 0003:000008b4       \177node_NULL_THUNK_DATA_DLA 100138b4     node:node.exe
 0003:000008b8       __hmod__node_exe           100138b8     node:node.exe
 0003:00000be0       ?__type_info_root_node@@3U__type_info_node@@A 10013be0     LIBCMT:tncleanup.obj
 0003:00000be8       ?_OptionsStorage@?1??__local_stdio_printf_options@@9@4_KA 10013be8     LIBCMT:default_local_stdio_options.obj
 0003:00000bf0       ?_OptionsStorage@?1??__local_stdio_scanf_options@@9@4_KA 10013bf0     LIBCMT:default_local_stdio_options.obj
 0003:00000bf8       ___scrt_current_native_startup_state 10013bf8     LIBCMT:utility.obj
 0003:00000bfc       ___scrt_native_startup_lock 10013bfc     LIBCMT:utility.obj
 0003:00000c1c       ___scrt_debugger_hook_flag 10013c1c     LIBCMT:utility_desktop.obj
 0003:00000c20       ___isa_available           10013c20     LIBCMT:cpu_disp.obj
 0003:00000c24       ___favor                   10013c24     LIBCMT:cpu_disp.obj
 0003:00000c28       ?pArgList@UnDecorator@@0PAVReplicator@@A 10013c28     libvcruntime:undname.obj
 0003:00000c2c       ?pZNameList@UnDecorator@@0PAVReplicator@@A 10013c2c     libvcruntime:undname.obj
 0003:00000c30       ?pTemplateArgList@UnDecorator@@0PAVReplicator@@A 10013c30     libvcruntime:undname.obj
 0003:00000c34       ?gName@UnDecorator@@0PBDB  10013c34     libvcruntime:undname.obj
 0003:00000c38       ?name@UnDecorator@@0PBDB   10013c38     libvcruntime:undname.obj
 0003:00000c3c       ?disableFlags@UnDecorator@@0KA 10013c3c     libvcruntime:undname.obj
 0003:00000c40       ?fExplicitTemplateParams@UnDecorator@@0_NA 10013c40     libvcruntime:undname.obj
 0003:00000c41       ?fGetTemplateArgumentList@UnDecorator@@0_NA 10013c41     libvcruntime:undname.obj
 0003:00000c44       ?m_pGetParameter@UnDecorator@@0P6APADJ@ZA 10013c44     libvcruntime:undname.obj
 0003:00000c48       ?m_CHPENameOffset@UnDecorator@@0KA 10013c48     libvcruntime:undname.obj
 0003:00000c4c       ?m_recursionLevel@UnDecorator@@0KA 10013c4c     libvcruntime:undname.obj
 0003:00000cc8       ___pPurecall               10013cc8     libvcruntime:purevirt_data.obj
 0003:00000ccc       ?__WinRTOutOfMemoryExceptionCallback@@3P6GPAXXZA 10013ccc     libvcruntime:ehhelpers.obj
 0003:00000cd8       ?c_exit_complete@?1???R<lambda_6e4b09c48022b2350581041d5f6b0c4c>@@QBE@XZ@4_NA 10013cd8     libucrt:exit.obj
 0003:00000de8       __environ_table            10013de8     libucrt:environment_initialization.obj
 0003:00000dec       __wenviron_table           10013dec     libucrt:environment_initialization.obj
 0003:00000df0       ___dcrt_initial_wide_environment 10013df0     libucrt:environment_initialization.obj
 0003:00000df4       ___dcrt_initial_narrow_environment 10013df4     libucrt:environment_initialization.obj
 0003:00000df8       ___acrt_atexit_table       10013df8     libucrt:onexit.obj
 0003:00000e04       ___acrt_at_quick_exit_table 10013e04     libucrt:onexit.obj
 0003:00000e14       ___acrt_locale_changed_data 10013e14     libucrt:wsetlocale.obj
 0003:00000e18       ___acrt_current_locale_data 10013e18     libucrt:nlsdata.obj
 0003:00000f74       ___acrt_current_multibyte_data 10013f74     libucrt:mbctype.obj
 0003:00000f78       __mbctype                  10013f78     libucrt:mbctype.obj
 0003:00000f7c       __mbcasemap                10013f7c     libucrt:mbctype.obj
 0003:00000f88       __pgmptr                   10013f88     libucrt:argv_data.obj
 0003:00000f8c       ___argc                    10013f8c     libucrt:argv_data.obj
 0003:00000f90       ___argv                    10013f90     libucrt:argv_data.obj
 0003:00000f94       ___wargv                   10013f94     libucrt:argv_data.obj
 0003:00000f98       __acmdln                   10013f98     libucrt:argv_data.obj
 0003:00000f9c       __wcmdln                   10013f9c     libucrt:argv_data.obj
 0003:00000fa0       ___pioinfo                 10013fa0     libucrt:ioinit.obj
 0003:000011a0       __nhandle                  100141a0     libucrt:ioinit.obj
 0003:00001280       ___acrt_heap               10014280     libucrt:heap_handle.obj
 0003:0000129c       __nstream                  1001429c     libucrt:_file.obj
 0003:000012a0       ___piob                    100142a0     libucrt:_file.obj
 0003:000012a4       ___acrt_stdout_buffer      100142a4     libucrt:_sftbuf.obj
 0003:000012a8       ___acrt_stderr_buffer      100142a8     libucrt:_sftbuf.obj
 0003:000012b4       ___acrt_lconv_static_null  100142b4     libucrt:localeconv.obj
 0003:000012b8       ___acrt_lconv_static_W_null 100142b8     libucrt:localeconv.obj
 0003:000012cc       ___fastflag                100142cc     libucrt:fp_flags.obj
 0003:000012d4       ?DloadKernel32@@3PAUHINSTANCE__@@A 100142d4     DelayImp:delayhlp.obj
 0003:000012d8       ?DloadAcquireSRWLockExclusive@@3P6GXPAK@ZA 100142d8     DelayImp:delayhlp.obj
 0003:000012dc       ?DloadReleaseSRWLockExclusive@@3P6GXPAK@ZA 100142dc     DelayImp:delayhlp.obj
 0003:000012e0       ?DloadSrwLock@@3KA         100142e0     DelayImp:delayhlp.obj
 0003:000012e4       ?DloadSectionLockCount@@3KA 100142e4     DelayImp:delayhlp.obj
 0003:000012e8       ?DloadSectionOldProtection@@3KA 100142e8     DelayImp:delayhlp.obj
 0003:000012ec       ?DloadSectionCommitPermanent@@3KA 100142ec     DelayImp:delayhlp.obj
 0003:000012f0       ___scrt_ucrt_dll_is_in_use 100142f0     <common>
 0003:000012f4       ___dyn_tls_init_callback   100142f4     <common>
 0003:000012f8       __pmatherr                 100142f8     <common>
 0003:000012fc       ___use_sse2_mathfcns       100142fc     <common>

 entry point at        0001:00000530

 Static symbols

 0000:fffe9000       .debug$S                   10000000     kernel32:KERNEL32.dll
 0000:fffe9000       .debug$S                   10000000     node:node.exe
 0000:fffe9000       .debug$S                   10000000     node:node.exe
 0000:fffe9000       .debug$S                   10000000     node:node.exe
 0000:fffe9000       .debug$S                   10000000     node:node.exe
 0000:fffe9000       .debug$S                   10000000     node:node.exe
 0000:fffe9000       .debug$S                   10000000     node:node.exe
 0000:fffe9000       .debug$S                   10000000     node:node.exe
 0000:fffe9000       .debug$S                   10000000     node:node.exe
 0000:fffe9000       .debug$S                   10000000     asynckeystate.exp
 0000:fffe9000       .debug$S                   10000000     node:node.exe
 0000:fffe9000       .debug$S                   10000000     kernel32:KERNEL32.dll
 0000:fffe9000       .debug$S                   10000000     kernel32:KERNEL32.dll
 0000:fffe9000       .debug$S                   10000000     kernel32:KERNEL32.dll
 0000:fffe9000       .debug$S                   10000000     kernel32:KERNEL32.dll
 0000:fffe9000       .debug$S                   10000000     node:node.exe
 0000:fffe9000       .debug$S                   10000000     node:node.exe
 0000:fffe9000       .debug$S                   10000000     node:node.exe
 0000:fffe9000       .debug$S                   10000000     node:node.exe
 0000:fffe9000       .debug$S                   10000000     user32:USER32.dll
 0000:fffe9000       .debug$S                   10000000     kernel32:KERNEL32.dll
 0000:fffe9000       .debug$S                   10000000     kernel32:KERNEL32.dll
 0000:fffe9000       .debug$S                   10000000     kernel32:KERNEL32.dll
 0000:fffe9000       .debug$S                   10000000     kernel32:KERNEL32.dll
 0000:fffe9000       .debug$S                   10000000     kernel32:KERNEL32.dll
 0000:fffe9000       .debug$S                   10000000     kernel32:KERNEL32.dll
 0000:fffe9000       .debug$S                   10000000     kernel32:KERNEL32.dll
 0000:fffe9000       .debug$S                   10000000     kernel32:KERNEL32.dll
 0000:fffe9000       .debug$S                   10000000     kernel32:KERNEL32.dll
 0000:fffe9000       .debug$S                   10000000     kernel32:KERNEL32.dll
 0000:fffe9000       .debug$S                   10000000     kernel32:KERNEL32.dll
 0000:fffe9000       .debug$S                   10000000     kernel32:KERNEL32.dll
 0000:fffe9000       .debug$S                   10000000     kernel32:KERNEL32.dll
 0000:fffe9000       .debug$S                   10000000     kernel32:KERNEL32.dll
 0000:fffe9000       .debug$S                   10000000     kernel32:KERNEL32.dll
 0000:fffe9000       .debug$S                   10000000     kernel32:KERNEL32.dll
 0000:fffe9000       .debug$S                   10000000     kernel32:KERNEL32.dll
 0000:fffe9000       .debug$S                   10000000     kernel32:KERNEL32.dll
 0000:fffe9000       .debug$S                   10000000     kernel32:KERNEL32.dll
 0000:fffe9000       .debug$S                   10000000     kernel32:KERNEL32.dll
 0000:fffe9000       .debug$S                   10000000     kernel32:KERNEL32.dll
 0000:fffe9000       .debug$S                   10000000     kernel32:KERNEL32.dll
 0000:fffe9000       .debug$S                   10000000     kernel32:KERNEL32.dll
 0000:fffe9000       .debug$S                   10000000     kernel32:KERNEL32.dll
 0000:fffe9000       .debug$S                   10000000     kernel32:KERNEL32.dll
 0000:fffe9000       .debug$S                   10000000     kernel32:KERNEL32.dll
 0000:fffe9000       .debug$S                   10000000     kernel32:KERNEL32.dll
 0000:fffe9000       .debug$S                   10000000     kernel32:KERNEL32.dll
 0000:fffe9000       .debug$S                   10000000     kernel32:KERNEL32.dll
 0000:fffe9000       .debug$S                   10000000     kernel32:KERNEL32.dll
 0000:fffe9000       .debug$S                   10000000     kernel32:KERNEL32.dll
 0000:fffe9000       .debug$S                   10000000     kernel32:KERNEL32.dll
 0000:fffe9000       .debug$S                   10000000     kernel32:KERNEL32.dll
 0000:fffe9000       .debug$S                   10000000     kernel32:KERNEL32.dll
 0000:fffe9000       .debug$S                   10000000     kernel32:KERNEL32.dll
 0000:fffe9000       .debug$S                   10000000     kernel32:KERNEL32.dll
 0000:fffe9000       .debug$S                   10000000     kernel32:KERNEL32.dll
 0000:fffe9000       .debug$S                   10000000     kernel32:KERNEL32.dll
 0000:fffe9000       .debug$S                   10000000     kernel32:KERNEL32.dll
 0000:fffe9000       .debug$S                   10000000     kernel32:KERNEL32.dll
 0000:fffe9000       .debug$S                   10000000     kernel32:KERNEL32.dll
 0000:fffe9000       .debug$S                   10000000     kernel32:KERNEL32.dll
 0000:fffe9000       .debug$S                   10000000     kernel32:KERNEL32.dll
 0000:fffe9000       .debug$S                   10000000     kernel32:KERNEL32.dll
 0000:fffe9000       .debug$S                   10000000     kernel32:KERNEL32.dll
 0000:fffe9000       .debug$S                   10000000     kernel32:KERNEL32.dll
 0000:fffe9000       .debug$S                   10000000     kernel32:KERNEL32.dll
 0000:fffe9000       .debug$S                   10000000     kernel32:KERNEL32.dll
 0000:fffe9000       .debug$S                   10000000     kernel32:KERNEL32.dll
 0000:fffe9000       .debug$S                   10000000     kernel32:KERNEL32.dll
 0000:fffe9000       .debug$S                   10000000     kernel32:KERNEL32.dll
 0000:fffe9000       .debug$S                   10000000     kernel32:KERNEL32.dll
 0000:fffe9000       .debug$S                   10000000     kernel32:KERNEL32.dll
 0000:fffe9000       .debug$S                   10000000     kernel32:KERNEL32.dll
 0000:fffe9000       .debug$S                   10000000     kernel32:KERNEL32.dll
 0000:fffe9000       .debug$S                   10000000     kernel32:KERNEL32.dll
 0000:fffe9000       .debug$S                   10000000     kernel32:KERNEL32.dll
 0000:fffe9000       .debug$S                   10000000     kernel32:KERNEL32.dll
 0000:fffe9000       .debug$S                   10000000     kernel32:KERNEL32.dll
 0000:fffe9000       .debug$S                   10000000     kernel32:KERNEL32.dll
 0000:fffe9000       .debug$S                   10000000     kernel32:KERNEL32.dll
 0000:fffe9000       .debug$S                   10000000     kernel32:KERNEL32.dll
 0000:fffe9000       .debug$S                   10000000     kernel32:KERNEL32.dll
 0000:fffe9000       .debug$S                   10000000     kernel32:KERNEL32.dll
 0000:fffe9000       .debug$S                   10000000     kernel32:KERNEL32.dll
 0000:fffe9000       .debug$S                   10000000     kernel32:KERNEL32.dll
 0000:fffe9000       .debug$S                   10000000     kernel32:KERNEL32.dll
 0000:fffe9000       .debug$S                   10000000     kernel32:KERNEL32.dll
 0000:fffe9000       .debug$S                   10000000     kernel32:KERNEL32.dll
 0000:fffe9000       .debug$S                   10000000     kernel32:KERNEL32.dll
 0000:fffe9000       .debug$S                   10000000     kernel32:KERNEL32.dll
 0000:fffe9000       .debug$S                   10000000     kernel32:KERNEL32.dll
 0000:fffe9000       .debug$S                   10000000     kernel32:KERNEL32.dll
 0000:fffe9000       .debug$S                   10000000     kernel32:KERNEL32.dll
 0000:fffe9000       .debug$S                   10000000     kernel32:KERNEL32.dll
 0000:fffe9000       .debug$S                   10000000     kernel32:KERNEL32.dll
 0000:fffe9000       .debug$S                   10000000     kernel32:KERNEL32.dll
 0000:fffe9000       .debug$S                   10000000     kernel32:KERNEL32.dll
 0000:fffe9000       .debug$S                   10000000     kernel32:KERNEL32.dll
 0000:fffe9000       .debug$S                   10000000     kernel32:KERNEL32.dll
 0001:00000120       __register_addon           10001120 f   asynckeystate.obj
 0001:00000130       ?load_exe_hook@@YGP6GHXZIPAUDelayLoadInfo@@@Z 10001130 f   win_delay_load_hook.obj
 0001:00000210       ?dllmain_crt_dispatch@@YGHQAUHINSTANCE__@@KQAX@Z 10001210 f   LIBCMT:dll_dllmain.obj
 0001:00000263       ?dllmain_crt_process_attach@@YAHQAUHINSTANCE__@@QAX@Z 10001263 f   LIBCMT:dll_dllmain.obj
 0001:0000036d       ?dllmain_crt_process_detach@@YAH_N@Z 1000136d f   LIBCMT:dll_dllmain.obj
 0001:000003ff       ?dllmain_dispatch@@YAHQAUHINSTANCE__@@KQAX@Z 100013ff f   LIBCMT:dll_dllmain.obj
 0001:00000505       ?dllmain_raw@@YGHQAUHINSTANCE__@@KQAX@Z 10001505 f   LIBCMT:dll_dllmain.obj
 0001:00000674       ___get_entropy             10001674 f   LIBCMT:gs_support.obj
 0001:00000753       ?find_pe_section@@YAPAU_IMAGE_SECTION_HEADER@@QAEI@Z 10001753 f   LIBCMT:utility.obj
 0001:00000bd0       $$000000                   10001bd0     LIBCMT:sehprolg4.obj
 0001:00000de0       _ValidateLocalCookies      10001de0 f   libvcruntime:chandler4.obj
 0001:00001000       $$000000                   10002000     libvcruntime:memset.obj
 0001:00001160       $$000000                   10002160     libvcruntime:exsup4.obj
 0001:000011f0       __unwind_handler4          100021f0 f   libvcruntime:exsup4.obj
 0001:000014de       ?try_get_first_available_module@@YAPAUHINSTANCE__@@QBW4module_id@?A0x170b12c9@@0@Z 100024de f   libvcruntime:winapi_downlevel.obj
 0001:000015a2       ?try_get_function@@YAPAXW4function_id@?A0x170b12c9@@QBDQBW4module_id@2@2@Z 100025a2 f   libvcruntime:winapi_downlevel.obj
 0001:000017b0       $$000000                   100027b0     libvcruntime:exsup.obj
 0001:000017d1       __unwind_handler           100027d1 f   libvcruntime:exsup.obj
 0001:000018f0       $$000000                   100028f0     libvcruntime:memcpy.obj
 0001:00001b54       TrailingUpVec              10002b54     libvcruntime:memcpy.obj
 0001:00001c00       TrailingDownVec            10002c00     libvcruntime:memcpy.obj
 0001:00001e70       $$000000                   10002e70     libvcruntime:lowhelpr.obj
 0001:00001f70       $$000000                   10002f70     libvcruntime:memmove.obj
 0001:000021d4       TrailingUpVec              100031d4     libvcruntime:memmove.obj
 0001:00002280       TrailingDownVec            10003280     libvcruntime:memmove.obj
 0001:00002874       ??$?RV<lambda_03b1d95aef87969028cfba75ccab2455>@@AAV<lambda_6e4b09c48022b2350581041d5f6b0c4c>@@V<lambda_22bdf7517842c4b3e53723af5aa32b9e>@@@?$__crt_seh_guarded_call@X@@QAEX$$QAV<lambda_03b1d95aef87969028cfba75ccab2455>@@AAV<lambda_6e4b09c48022b2350581041d5f6b0c4c>@@$$QAV<lambda_22bdf7517842c4b3e53723af5aa32b9e>@@@Z 10003874 f   libucrt:exit.obj
 0001:000028b7       ??R<lambda_6e4b09c48022b2350581041d5f6b0c4c>@@QBE@XZ 100038b7 f   libucrt:exit.obj
 0001:00002987       ?atexit_exception_filter@@YAHK@Z 10003987 f   libucrt:exit.obj
 0001:0000299a       ?common_exit@@YAXHW4_crt_exit_cleanup_mode@@W4_crt_exit_return_mode@@@Z 1000399a f   libucrt:exit.obj
 0001:00002a00       ?exit_or_terminate_process@@YAXI@Z 10003a00 f   libucrt:exit.obj
 0001:00002a42       ?is_managed_app@@YA_NXZ    10003a42 f   libucrt:exit.obj
 0001:00002a85       ?try_cor_exit_process@@YAXI@Z 10003a85 f   libucrt:exit.obj
 0001:00002b15       ??$common_configure_argv@D@@YAHW4_crt_argv_mode@@@Z 10003b15 f   libucrt:argv_parsing.obj
 0001:00002c4d       ??$parse_command_line@D@@YAXPADPAPAD0PAI2@Z 10003c4d f   libucrt:argv_parsing.obj
 0001:00002e20       ??$common_initialize_environment_nolock@D@@YAHXZ 10003e20 f   libucrt:environment_initialization.obj
 0001:00002e73       ??$create_environment@D@@YAQAPADQAD@Z 10003e73 f   libucrt:environment_initialization.obj
 0001:00002f45       ??$free_environment@_W@@YAXQAPA_W@Z 10003f45 f   libucrt:environment_initialization.obj
 0001:00002f45       ??$free_environment@D@@YAXQAPAD@Z 10003f45 f   libucrt:environment_initialization.obj
 0001:00002f9d       ??$uninitialize_environment_internal@D@@YAXAAPAPAD@Z 10003f9d f   libucrt:environment_initialization.obj
 0001:00002fb8       ??$uninitialize_environment_internal@_W@@YAXAAPAPA_W@Z 10003fb8 f   libucrt:environment_initialization.obj
 0001:00003011       ??$?RV<lambda_69a2805e680e0e292e8ba93315fe43a8>@@AAV<lambda_f03950bc5685219e0bcd2087efbe011e>@@V<lambda_03fcd07e894ec930e3f35da366ca99d6>@@@?$__crt_seh_guarded_call@H@@QAEH$$QAV<lambda_69a2805e680e0e292e8ba93315fe43a8>@@AAV<lambda_f03950bc5685219e0bcd2087efbe011e>@@$$QAV<lambda_03fcd07e894ec930e3f35da366ca99d6>@@@Z 10004011 f   libucrt:onexit.obj
 0001:00003062       ??R<lambda_f03950bc5685219e0bcd2087efbe011e>@@QBEHXZ 10004062 f   libucrt:onexit.obj
 0001:00003196       _initialize_global_variables 10004196 f   libucrt:initialization.obj
 0001:000031a3       _initialize_c              100041a3 f   libucrt:initialization.obj
 0001:000031bd       _uninitialize_global_state_isolation 100041bd f   libucrt:initialization.obj
 0001:000031bd       _uninitialize_c            100041bd f   libucrt:initialization.obj
 0001:000031bd       _report_memory_leaks       100041bd f   libucrt:initialization.obj
 0001:000031bd       _initialize_environment    100041bd f   libucrt:initialization.obj
 0001:000031bd       _initialize_global_state_isolation 100041bd f   libucrt:initialization.obj
 0001:000031c0       _uninitialize_environment  100041c0 f   libucrt:initialization.obj
 0001:000031c8       _initialize_pointers       100041c8 f   libucrt:initialization.obj
 0001:000031f6       _uninitialize_vcruntime    100041f6 f   libucrt:initialization.obj
 0001:000031ff       _uninitialize_allocated_memory 100041ff f   libucrt:initialization.obj
 0001:00003218       _uninitialize_allocated_io_buffers 10004218 f   libucrt:initialization.obj
 0001:00003268       ??R<lambda_af42a3ee9806e9a7305d451646e05244>@@QBEXAAPAU__crt_multibyte_data@@@Z 10004268 f   libucrt:initialization.obj
 0001:00003430       $$000000                   10004430     libucrt:strncmp.obj
 0001:00003723       ??$common_tox_l@$1?internal_isupper_l@@YA_NHQAU__crt_locale_pointers@@@Z$1?internal_map_lower@@YAHH0@Z@@YAHHKQAU__crt_locale_pointers@@@Z 10004723 f   libucrt:tolower_toupper.obj
 0001:0000386a       ?internal_isupper_l@@YA_NHQAU__crt_locale_pointers@@@Z 1000486a f   libucrt:tolower_toupper.obj
 0001:0000392c       ??$?RV<lambda_15ade71b0218206bbe3333a0c9b79046>@@AAV<lambda_da44e0f8b0f19ba52fefafb335991732>@@V<lambda_207f2d024fc103971653565357d6cd41>@@@?$__crt_seh_guarded_call@X@@QAEX$$QAV<lambda_15ade71b0218206bbe3333a0c9b79046>@@AAV<lambda_da44e0f8b0f19ba52fefafb335991732>@@$$QAV<lambda_207f2d024fc103971653565357d6cd41>@@@Z 1000492c f   libucrt:per_thread_data.obj
 0001:00003974       ??$?RV<lambda_38edbb1296d33220d7e4dd0ed76b244a>@@AAV<lambda_5ce1d447e08cb34b2473517608e21441>@@V<lambda_fb385d3da700c9147fc39e65dd577a8c>@@@?$__crt_seh_guarded_call@X@@QAEX$$QAV<lambda_38edbb1296d33220d7e4dd0ed76b244a>@@AAV<lambda_5ce1d447e08cb34b2473517608e21441>@@$$QAV<lambda_fb385d3da700c9147fc39e65dd577a8c>@@@Z 10004974 f   libucrt:per_thread_data.obj
 0001:000039d5       ??$?RV<lambda_6affb1475c98b40b75cdec977db92e3c>@@AAV<lambda_b8d4b9c228a6ecc3f80208dbb4b4a104>@@V<lambda_608742c3c92a14382c1684fc64f96c88>@@@?$__crt_seh_guarded_call@X@@QAEX$$QAV<lambda_6affb1475c98b40b75cdec977db92e3c>@@AAV<lambda_b8d4b9c228a6ecc3f80208dbb4b4a104>@@$$QAV<lambda_608742c3c92a14382c1684fc64f96c88>@@@Z 100049d5 f   libucrt:per_thread_data.obj
 0001:00003a20       ??$?RV<lambda_a7e850c220f1c8d1e6efeecdedd162c6>@@AAV<lambda_46720907175c18b6c9d2717bc0d2d362>@@V<lambda_9048902d66e8d99359bc9897bbb930a8>@@@?$__crt_seh_guarded_call@X@@QAEX$$QAV<lambda_a7e850c220f1c8d1e6efeecdedd162c6>@@AAV<lambda_46720907175c18b6c9d2717bc0d2d362>@@$$QAV<lambda_9048902d66e8d99359bc9897bbb930a8>@@@Z 10004a20 f   libucrt:per_thread_data.obj
 0001:00003a70       ?construct_ptd@@YAXQAU__acrt_ptd@@QAPAU__crt_locale_data@@@Z 10004a70 f   libucrt:per_thread_data.obj
 0001:00003b0b       ?destroy_fls@@YGXPAX@Z     10004b0b f   libucrt:per_thread_data.obj
 0001:00003b2c       ?destroy_ptd@@YAXQAU__acrt_ptd@@@Z 10004b2c f   libucrt:per_thread_data.obj
 0001:00003bfb       ?replace_current_thread_locale_nolock@@YAXQAU__acrt_ptd@@QAU__crt_locale_data@@@Z 10004bfb f   libucrt:per_thread_data.obj
 0001:00003f1e       ??$?RV<lambda_e5124f882df8998aaf41531e079ba474>@@AAV<lambda_3e16ef9562a7dcce91392c22ab16ea36>@@V<lambda_e25ca0880e6ef98be67edffd8c599615>@@@?$__crt_seh_guarded_call@X@@QAEX$$QAV<lambda_e5124f882df8998aaf41531e079ba474>@@AAV<lambda_3e16ef9562a7dcce91392c22ab16ea36>@@$$QAV<lambda_e25ca0880e6ef98be67edffd8c599615>@@@Z 10004f1e f   libucrt:wsetlocale.obj
 0001:00004120       ?<lambda_invoker_cdecl>@<lambda_86056e3c024bff449830248dc1621ed2>@@CAHPBX0@Z 10005120 f   libucrt:argv_wildcards.obj
 0001:00004138       ??$__acrt_convert_wcs_mbs_cp@D_WV<lambda_62f6974d9771e494a5ea317cc32e971c>@@U__crt_win32_buffer_internal_dynamic_resizing@@@@YAHQBDAAV?$__crt_win32_buffer@_WU__crt_win32_buffer_internal_dynamic_resizing@@@@ABV<lambda_62f6974d9771e494a5ea317cc32e971c>@@I@Z 10005138 f   libucrt:argv_wildcards.obj
 0001:000041ea       ??$__acrt_convert_wcs_mbs_cp@_WDV<lambda_28bda7af82a03b66c1cb3803a755f95d>@@U__crt_win32_buffer_internal_dynamic_resizing@@@@YAHQB_WAAV?$__crt_win32_buffer@DU__crt_win32_buffer_internal_dynamic_resizing@@@@ABV<lambda_28bda7af82a03b66c1cb3803a755f95d>@@I@Z 100051ea f   libucrt:argv_wildcards.obj
 0001:000042d8       ??$common_expand_argv_wildcards@D@@YAHQAPADQAPAPAD@Z 100052d8 f   libucrt:argv_wildcards.obj
 0001:000044c9       ??$copy_and_add_argument_to_buffer@D@@YAHQBD0IAAV?$argument_list@D@?A0x5f5c8891@@@Z 100054c9 f   libucrt:argv_wildcards.obj
 0001:0000457c       ??$expand_argument_wildcards@D@@YAHQAD0AAV?$argument_list@D@?A0x5f5c8891@@@Z 1000557c f   libucrt:argv_wildcards.obj
 0001:000048ca       ?expand_if_necessary@?$argument_list@D@?A0x5f5c8891@@AAEHXZ 100058ca f   libucrt:argv_wildcards.obj
 0001:0000495c       ??$__acrt_convert_wcs_mbs_cp@_WDV<lambda_0fec1a7b3f42a53036604e18c2d5e07e>@@U__crt_win32_buffer_no_resizing@@@@YAHQB_WAAV?$__crt_win32_buffer@DU__crt_win32_buffer_no_resizing@@@@ABV<lambda_0fec1a7b3f42a53036604e18c2d5e07e>@@I@Z 1000595c f   libucrt:getmodulefilenamea.obj
 0001:00004b01       ??$?RV<lambda_ceb1ee4838e85a9d631eb091e2fbe199>@@AAV<lambda_ae742caa10f662c28703da3d2ea5e57e>@@V<lambda_cd08b5d6af4937fe54fc07d0c9bf6b37>@@@?$__crt_seh_guarded_call@X@@QAEX$$QAV<lambda_ceb1ee4838e85a9d631eb091e2fbe199>@@AAV<lambda_ae742caa10f662c28703da3d2ea5e57e>@@$$QAV<lambda_cd08b5d6af4937fe54fc07d0c9bf6b37>@@@Z 10005b01 f   libucrt:mbctype.obj
 0001:00004b44       ??R<lambda_ae742caa10f662c28703da3d2ea5e57e>@@QBEXXZ 10005b44 f   libucrt:mbctype.obj
 0001:00004bc7       ?CPtoLocaleName@@YAPB_WH@Z 10005bc7 f   libucrt:mbctype.obj
 0001:00004c05       ?getSystemCP@@YAHH@Z       10005c05 f   libucrt:mbctype.obj
 0001:00004c78       ?setSBCS@@YAXPAU__crt_multibyte_data@@@Z 10005c78 f   libucrt:mbctype.obj
 0001:00004cdd       ?setSBUpLow@@YAXPAU__crt_multibyte_data@@@Z 10005cdd f   libucrt:mbctype.obj
 0001:00004e60       ?setmbcp_internal@@YAHH_NQAU__acrt_ptd@@QAPAU__crt_multibyte_data@@@Z 10005e60 f   libucrt:mbctype.obj
 0001:00004f7b       ?update_thread_multibyte_data_internal@@YAPAU__crt_multibyte_data@@QAU__acrt_ptd@@QAPAU1@@Z 10005f7b f   libucrt:mbctype.obj
 0001:00005261       _memcpy_s                  10006261 f   libucrt:mbctype.obj
 0001:000052e2       ?x_ismbbtype_l@@YAHPAU__crt_locale_pointers@@IHH@Z 100062e2 f   libucrt:ismbbyte.obj
 0001:00005495       ?find_end_of_double_null_terminated_sequence@@YAPB_WQB_W@Z 10006495 f   libucrt:get_environment_from_os.obj
 0001:000055bf       ?initialize_inherited_file_handles_nolock@@YAXXZ 100065bf f   libucrt:ioinit.obj
 0001:00005677       ?initialize_stdio_handles_nolock@@YAXXZ 10006677 f   libucrt:ioinit.obj
 0001:000057ad       ?try_get_AreFileApisANSI@@YAP6GHXZXZ 100067ad f   libucrt:winapi_thunks.obj
 0001:000057c7       ?try_get_LCMapStringEx@@YAP6GHPB_WK0HPA_WHPAU_nlsversioninfo@@PAXJ@ZXZ 100067c7 f   libucrt:winapi_thunks.obj
 0001:000057e1       ?try_get_LocaleNameToLCID@@YAP6GKPB_WK@ZXZ 100067e1 f   libucrt:winapi_thunks.obj
 0001:000057fb       ?try_get_first_available_module@@YAPAUHINSTANCE__@@QBW4module_id@?A0x391cf84c@@0@Z 100067fb f   libucrt:winapi_thunks.obj
 0001:000058c4       ?try_get_function@@YAPAXW4function_id@?A0x391cf84c@@QBDQBW4module_id@2@2@Z 100068c4 f   libucrt:winapi_thunks.obj
 0001:00005d21       ??$?RV<lambda_cbab9ec6f41b0180b23cc171c22676b0>@@AAV<lambda_44731a7d0e6d81c3e6aa82d741081786>@@V<lambda_4b292cb8dd18144e164572427af410ab>@@@?$__crt_seh_guarded_call@P6AXH@Z@@QAEP6AXH@Z$$QAV<lambda_cbab9ec6f41b0180b23cc171c22676b0>@@AAV<lambda_44731a7d0e6d81c3e6aa82d741081786>@@$$QAV<lambda_4b292cb8dd18144e164572427af410ab>@@@Z 10006d21 f   libucrt:signal.obj
 0001:00005d7b       ?get_global_action_nolock@@YAPAP6AXH@ZH@Z 10006d7b f   libucrt:signal.obj
 0001:00005dbd       ?siglookup@@YAPAU__crt_signal_action_t@@HQAU1@@Z 10006dbd f   libucrt:signal.obj
 0001:00006075       ??$?RV<lambda_2866be3712abc81a800a822484c830d8>@@AAV<lambda_39ca0ed439415581b5b15c265174cece>@@V<lambda_2b24c74d71094a6cd0cb82e44167d71b>@@@?$__crt_seh_guarded_call@X@@QAEX$$QAV<lambda_2866be3712abc81a800a822484c830d8>@@AAV<lambda_39ca0ed439415581b5b15c265174cece>@@$$QAV<lambda_2b24c74d71094a6cd0cb82e44167d71b>@@@Z 10007075 f   libucrt:fflush.obj
 0001:000060f7       ??$?RV<lambda_2cc53f568c5a2bb6f192f930a45d44ea>@@AAV<lambda_ab61a845afdef5b7c387490eaf3616ee>@@V<lambda_c2ffc0b7726aa6be21d5f0026187e748>@@@?$__crt_seh_guarded_call@X@@QAEX$$QAV<lambda_2cc53f568c5a2bb6f192f930a45d44ea>@@AAV<lambda_ab61a845afdef5b7c387490eaf3616ee>@@$$QAV<lambda_c2ffc0b7726aa6be21d5f0026187e748>@@@Z 100070f7 f   libucrt:fflush.obj
 0001:00006199       ?common_flush_all@@YAH_N@Z 10007199 f   libucrt:fflush.obj
 0001:000061e8       ?common_flush_all_should_try_to_flush_stream@@YA_NV__crt_stdio_stream@@QAH@Z 100071e8 f   libucrt:fflush.obj
 0001:0000621b       ?is_stream_flushable_or_commitable@@YA_NJ@Z 1000721b f   libucrt:fflush.obj
 0001:0000673c       ?__acrt_LCMapStringA_stat@@YAHPAU__crt_locale_pointers@@PB_WKPBDHPADHHH@Z 1000773c f   libucrt:lcmapstringa.obj
 0001:00006e8c       ?free_crt_array_internal@@YAXQAPBXI@Z 10007e8c f   libucrt:inittime.obj
 0001:000070c0       ?swap@@YAXPAD0I@Z          100080c0 f   libucrt:qsort.obj
 0001:00007544       ??$common_tcsncpy_s@D@@YAHQADIQBDI@Z 10008544 f   libucrt:strncpy_s.obj
 0001:00007610       $$000000                   10008610     libucrt:strpbrk.obj
 0001:000076f6       ?initialize_multibyte@@YAHXZ 100086f6 f   libucrt:multibyte_initializer.obj
 0001:00007a28       ?GetTableIndexFromLocaleName@@YAHPB_W@Z 10008a28 f   libucrt:lcidtoname_downlevel.obj
 0001:00007b08       ??$?RV<lambda_9e9de3de5fa147e2223d7db92bc10aa6>@@AAV<lambda_38ce7e780aa69e748d6df282ebc68efe>@@V<lambda_8ca6da459f0f6780f1cff60fdc3d00e5>@@@?$__crt_seh_guarded_call@H@@QAEH$$QAV<lambda_9e9de3de5fa147e2223d7db92bc10aa6>@@AAV<lambda_38ce7e780aa69e748d6df282ebc68efe>@@$$QAV<lambda_8ca6da459f0f6780f1cff60fdc3d00e5>@@@Z 10008b08 f   libucrt:commit.obj
 0001:00007c1f       ?write_double_translated_ansi_nolock@@YA?AUwrite_result@?A0x17268360@@HQBDI@Z 10008c1f f   libucrt:write.obj
 0001:00007fcb       ?write_double_translated_unicode_nolock@@YA?AUwrite_result@?A0x17268360@@QBDI@Z 10008fcb f   libucrt:write.obj
 0001:00008035       ?write_requires_double_translation_nolock@@YA_NH@Z 10009035 f   libucrt:write.obj
 0001:000080a8       ?write_text_ansi_nolock@@YA?AUwrite_result@?A0x17268360@@HQBDI@Z 100090a8 f   libucrt:write.obj
 0001:00008185       ?write_text_utf16le_nolock@@YA?AUwrite_result@?A0x17268360@@HQBDI@Z 10009185 f   libucrt:write.obj
 0001:00008270       ?write_text_utf8_nolock@@YA?AUwrite_result@?A0x17268360@@HQBDI@Z 10009270 f   libucrt:write.obj
 0001:000087a7       ??R<lambda_0f007d4f94c691a9a85cf1869a09f0c3>@@QBEIPBD@Z 100097a7 f   libucrt:mbrtowc.obj
 0001:00008953       ??$common_lseek_nolock@_J@@YA_JH_JH@Z 10009953 f   libucrt:lseek.obj
 0001:00008cd0       $$000000                   10009cd0     libucrt:log10_impl.obj
 0001:00008de0       $$000000                   10009de0     libucrt:ceil_pentium4.obj
 0001:00008f00       $$000000                   10009f00     libucrt:_strnicm.obj
 0001:00008f61       ?__dcrt_lowio_initialize_console_output@@YAXXZ 10009f61 f   libucrt:initcon.obj
 0001:0000900b       ??$?RV<lambda_218ce3db14220d0be481dae8ef3383b6>@@AAV<lambda_628dfdc04ba53c8bfc02c9951375f3f5>@@V<lambda_57dc472bd5c9d5f3b2cbca59b8a843ae>@@@?$__crt_seh_guarded_call@H@@QAEH$$QAV<lambda_218ce3db14220d0be481dae8ef3383b6>@@AAV<lambda_628dfdc04ba53c8bfc02c9951375f3f5>@@$$QAV<lambda_57dc472bd5c9d5f3b2cbca59b8a843ae>@@@Z 1000a00b f   libucrt:close.obj
 0001:00009210       $$000000                   1000a210     libucrt:log10_pentium4.obj
 0001:000094a0       $$000000                   1000a4a0     libucrt:87tran.obj
 0001:000096b0       $$000000                   1000a6b0     libucrt:87disp.obj
 0001:00009910       $$000000                   1000a910     libucrt:common.obj
 0001:00009aa0       $$000000                   1000aaa0     libucrt:genexcep.obj
 0001:0000b050       $$000000                   1000c050     LIBCMT:ulldvrm.obj
 0001:0000b0f0       $$000000                   1000c0f0     LIBCMT:llmul.obj
 0001:0000b130       $$000000                   1000c130     LIBCMT:lldvrm.obj
 0001:0000b210       $$000000                   1000c210     LIBCMT:ullshr.obj
 0001:0000b230       $$000000                   1000c230     LIBCMT:alloca16.obj
 0001:0000b260       $$000000                   1000c260     LIBCMT:chkstk.obj
 0001:0000b290       $$000000                   1000c290     LIBCMT:llshl.obj
 0001:0000b2b0       $$000000                   1000c2b0     LIBCMT:ftol2.obj
 0001:0000b370       $$000000                   1000c370     libvcruntime:strchr.obj
 0001:0000b4a0       $$000000                   1000c4a0     libvcruntime:strrchr.obj
 0002:00000170       _GS_ExceptionPointers      1000d170     LIBCMT:gs_report.obj
 0002:00000178       ?tokenTable@@3QBQBDB       1000d178     libvcruntime:undname.obj
 0002:000001b8       ?nameTable@@3QBQBDB        1000d1b8     libvcruntime:undname.obj
 0002:00000300       ?rttiTable@@3QBQBDB        1000d300     libvcruntime:undname.obj
 0002:00000910       ?module_names@?A0x170b12c9@@3QBQB_WB 1000d910     libvcruntime:winapi_downlevel.obj
 0002:000009c8       ?candidate_modules@?1??try_get_FlsAlloc@@YAP6GKP6GXPAX@Z@ZXZ@4QBW4module_id@?A0x170b12c9@@B 1000d9c8     libvcruntime:winapi_downlevel.obj
 0002:000009dc       ?candidate_modules@?1??try_get_FlsFree@@YAP6GHK@ZXZ@4QBW4module_id@?A0x170b12c9@@B 1000d9dc     libvcruntime:winapi_downlevel.obj
 0002:000009ec       ?candidate_modules@?1??try_get_FlsGetValue@@YAP6GPAXK@ZXZ@4QBW4module_id@?A0x170b12c9@@B 1000d9ec     libvcruntime:winapi_downlevel.obj
 0002:00000a00       ?candidate_modules@?1??try_get_FlsSetValue@@YAP6GHKPAX@ZXZ@4QBW4module_id@?A0x170b12c9@@B 1000da00     libvcruntime:winapi_downlevel.obj
 0002:00000a14       ?candidate_modules@?1??try_get_InitializeCriticalSectionEx@@YAP6GHPAU_RTL_CRITICAL_SECTION@@KK@ZXZ@4QBW4module_id@?A0x170b12c9@@B 1000da14     libvcruntime:winapi_downlevel.obj
 0002:00000b08       ___acrt_initializers       1000db08     libucrt:initialization.obj
 0002:00000b88       ?errtable@@3QBUerrentry@?A0x31fdb9ec@@B 1000db88     libucrt:errno.obj
 0002:000011b0       ?_mb_locale_names@@3QBQB_WB 1000e1b0     libucrt:mbctype.obj
 0002:000011f0       ?module_names@?A0x391cf84c@@3QBQB_WB 1000e1f0     libucrt:winapi_thunks.obj
 0002:00001710       ?candidate_modules@?1??try_get_AreFileApisANSI@@YAP6GHXZXZ@4QBW4module_id@?A0x391cf84c@@B 1000e710     libucrt:winapi_thunks.obj
 0002:00001724       ?candidate_modules@?1??try_get_FlsAlloc@@YAP6GKP6GXPAX@Z@ZXZ@4QBW4module_id@?A0x391cf84c@@B 1000e724     libucrt:winapi_thunks.obj
 0002:00001738       ?candidate_modules@?1??try_get_FlsFree@@YAP6GHK@ZXZ@4QBW4module_id@?A0x391cf84c@@B 1000e738     libucrt:winapi_thunks.obj
 0002:00001748       ?candidate_modules@?1??try_get_FlsGetValue@@YAP6GPAXK@ZXZ@4QBW4module_id@?A0x391cf84c@@B 1000e748     libucrt:winapi_thunks.obj
 0002:0000175c       ?candidate_modules@?1??try_get_FlsSetValue@@YAP6GHKPAX@ZXZ@4QBW4module_id@?A0x391cf84c@@B 1000e75c     libucrt:winapi_thunks.obj
 0002:00001770       ?candidate_modules@?1??try_get_InitializeCriticalSectionEx@@YAP6GHPAU_RTL_CRITICAL_SECTION@@KK@ZXZ@4QBW4module_id@?A0x391cf84c@@B 1000e770     libucrt:winapi_thunks.obj
 0002:00001794       ?candidate_modules@?1??try_get_LCMapStringEx@@YAP6GHPB_WK0HPA_WHPAU_nlsversioninfo@@PAXJ@ZXZ@4QBW4module_id@?A0x391cf84c@@B 1000e794     libucrt:winapi_thunks.obj
 0002:000017ac       ?candidate_modules@?1??try_get_LocaleNameToLCID@@YAP6GKPB_WK@ZXZ@4QBW4module_id@?A0x391cf84c@@B 1000e7ac     libucrt:winapi_thunks.obj
 0002:000017c8       ?candidate_modules@?1??try_get_AppPolicyGetProcessTerminationMethod@@YAP6GJPAXPAW4AppPolicyProcessTerminationMethod@@@ZXZ@4QBW4module_id@?A0x391cf84c@@B 1000e7c8     libucrt:winapi_thunks.obj
 0002:00001e00       ?LcidToLocaleNameTable@?A0x881e4c05@@3QBULcidToLocaleName@1@B 1000ee00     libucrt:lcidtoname_downlevel.obj
 0002:00002f20       ?LocaleNameToIndexTable@?A0x881e4c05@@3QBULocaleNameIndex@1@B 1000ff20     libucrt:lcidtoname_downlevel.obj
 0002:00003e80       LOG_name                   10010e80     libucrt:log10_impl.obj
 0002:00003e90       _One                       10010e90     libucrt:ceil_pentium4.obj
 0002:00003ea0       _Bns                       10010ea0     libucrt:ceil_pentium4.obj
 0002:00003eb0       _Zero                      10010eb0     libucrt:ceil_pentium4.obj
 0002:00003ec0       _S                         10010ec0     libucrt:ceil_pentium4.obj
 0002:00003ed0       _NegZero                   10010ed0     libucrt:ceil_pentium4.obj
 0002:00003ef0       emask                      10010ef0     libucrt:log10_pentium4.obj
 0002:00003f00       CC                         10010f00     libucrt:log10_pentium4.obj
 0002:00003f10       Magic                      10010f10     libucrt:log10_pentium4.obj
 0002:00003f20       hi_mask                    10010f20     libucrt:log10_pentium4.obj
 0002:00003f30       LOG10_2                    10010f30     libucrt:log10_pentium4.obj
 0002:00003f40       place_L                    10010f40     libucrt:log10_pentium4.obj
 0002:00003f60       One                        10010f60     libucrt:log10_pentium4.obj
 0002:00003f70       Zero                       10010f70     libucrt:log10_pentium4.obj
 0002:00003f80       Two52                      10010f80     libucrt:log10_pentium4.obj
 0002:00003f90       Infs                       10010f90     libucrt:log10_pentium4.obj
 0002:00003fa0       NaN                        10010fa0     libucrt:log10_pentium4.obj
 0002:00003fb0       coeff                      10010fb0     libucrt:log10_pentium4.obj
 0002:0000400e       _log2max                   1001100e     libucrt:87tran.obj
 0002:00004018       _smallarg                  10011018     libucrt:87tran.obj
 0002:00004022       _half                      10011022     libucrt:87tran.obj
 0002:0000406e       One                        1001106e     libucrt:87disp.obj
 0002:00004076       Three                      10011076     libucrt:87disp.obj
 0002:0000407e       XAMtoTagTab                1001107e     libucrt:87disp.obj
 0002:00004090       One                        10011090     libucrt:common.obj
 0002:000040a4       DblMax                     100110a4     libucrt:common.obj
 0002:000040ac       DblMin                     100110ac     libucrt:common.obj
 0002:000040b4       IeeeAdjO                   100110b4     libucrt:common.obj
 0002:000040bc       IeeeAdjU                   100110bc     libucrt:common.obj
 0002:000040c4       _infinity                  100110c4     libucrt:common.obj
 0002:000040cc       _zero                      100110cc     libucrt:common.obj
 0002:00004108       _over                      10011108     libucrt:fpctrl.obj
 0002:00004114       _under                     10011114     libucrt:fpctrl.obj
 0002:00004948       ?_names@?1??_get_fname@@9@9 10011948     libucrt:fpexcept.obj
 0002:00005088       __sehtable$?dllmain_crt_process_attach@@YAHQAUHINSTANCE__@@QAX@Z 10012088     LIBCMT:dll_dllmain.obj
 0002:000050a8       __sehtable$?dllmain_crt_process_detach@@YAH_N@Z 100120a8     LIBCMT:dll_dllmain.obj
 0002:000050c8       __sehtable$?dllmain_dispatch@@YAHQAUHINSTANCE__@@KQAX@Z 100120c8     LIBCMT:dll_dllmain.obj
 0002:000050e8       __sehtable$___scrt_is_nonwritable_in_current_image 100120e8     LIBCMT:utility.obj
 0002:00005108       __sehtable$___DestructExceptionObject 10012108     libvcruntime:ehhelpers.obj
 0002:00005128       __sehtable$??R<lambda_6e4b09c48022b2350581041d5f6b0c4c>@@QBE@XZ 10012128     libucrt:exit.obj
 0002:00005148       __sehtable$??$?RV<lambda_03b1d95aef87969028cfba75ccab2455>@@AAV<lambda_6e4b09c48022b2350581041d5f6b0c4c>@@V<lambda_22bdf7517842c4b3e53723af5aa32b9e>@@@?$__crt_seh_guarded_call@X@@QAEX$$QAV<lambda_03b1d95aef87969028cfba75ccab2455>@@AAV<lambda_6e4b09c48022b2350581041d5f6b0c4c>@@$$QAV<lambda_22bdf7517842c4b3e53723af5aa32b9e>@@@Z 10012148     libucrt:exit.obj
 0002:00005168       __sehtable$??$?RV<lambda_69a2805e680e0e292e8ba93315fe43a8>@@AAV<lambda_f03950bc5685219e0bcd2087efbe011e>@@V<lambda_03fcd07e894ec930e3f35da366ca99d6>@@@?$__crt_seh_guarded_call@H@@QAEH$$QAV<lambda_69a2805e680e0e292e8ba93315fe43a8>@@AAV<lambda_f03950bc5685219e0bcd2087efbe011e>@@$$QAV<lambda_03fcd07e894ec930e3f35da366ca99d6>@@@Z 10012168     libucrt:onexit.obj
 0002:00005188       __sehtable$_terminate      10012188     libucrt:terminate.obj
 0002:000051a8       __sehtable$??$?RV<lambda_15ade71b0218206bbe3333a0c9b79046>@@AAV<lambda_da44e0f8b0f19ba52fefafb335991732>@@V<lambda_207f2d024fc103971653565357d6cd41>@@@?$__crt_seh_guarded_call@X@@QAEX$$QAV<lambda_15ade71b0218206bbe3333a0c9b79046>@@AAV<lambda_da44e0f8b0f19ba52fefafb335991732>@@$$QAV<lambda_207f2d024fc103971653565357d6cd41>@@@Z 100121a8     libucrt:per_thread_data.obj
 0002:000051c8       __sehtable$??$?RV<lambda_a7e850c220f1c8d1e6efeecdedd162c6>@@AAV<lambda_46720907175c18b6c9d2717bc0d2d362>@@V<lambda_9048902d66e8d99359bc9897bbb930a8>@@@?$__crt_seh_guarded_call@X@@QAEX$$QAV<lambda_a7e850c220f1c8d1e6efeecdedd162c6>@@AAV<lambda_46720907175c18b6c9d2717bc0d2d362>@@$$QAV<lambda_9048902d66e8d99359bc9897bbb930a8>@@@Z 100121c8     libucrt:per_thread_data.obj
 0002:000051e8       __sehtable$??$?RV<lambda_38edbb1296d33220d7e4dd0ed76b244a>@@AAV<lambda_5ce1d447e08cb34b2473517608e21441>@@V<lambda_fb385d3da700c9147fc39e65dd577a8c>@@@?$__crt_seh_guarded_call@X@@QAEX$$QAV<lambda_38edbb1296d33220d7e4dd0ed76b244a>@@AAV<lambda_5ce1d447e08cb34b2473517608e21441>@@$$QAV<lambda_fb385d3da700c9147fc39e65dd577a8c>@@@Z 100121e8     libucrt:per_thread_data.obj
 0002:00005208       __sehtable$??$?RV<lambda_6affb1475c98b40b75cdec977db92e3c>@@AAV<lambda_b8d4b9c228a6ecc3f80208dbb4b4a104>@@V<lambda_608742c3c92a14382c1684fc64f96c88>@@@?$__crt_seh_guarded_call@X@@QAEX$$QAV<lambda_6affb1475c98b40b75cdec977db92e3c>@@AAV<lambda_b8d4b9c228a6ecc3f80208dbb4b4a104>@@$$QAV<lambda_608742c3c92a14382c1684fc64f96c88>@@@Z 10012208     libucrt:per_thread_data.obj
 0002:00005228       __sehtable$??$?RV<lambda_e5124f882df8998aaf41531e079ba474>@@AAV<lambda_3e16ef9562a7dcce91392c22ab16ea36>@@V<lambda_e25ca0880e6ef98be67edffd8c599615>@@@?$__crt_seh_guarded_call@X@@QAEX$$QAV<lambda_e5124f882df8998aaf41531e079ba474>@@AAV<lambda_3e16ef9562a7dcce91392c22ab16ea36>@@$$QAV<lambda_e25ca0880e6ef98be67edffd8c599615>@@@Z 10012228     libucrt:wsetlocale.obj
 0002:00005248       __sehtable$?update_thread_multibyte_data_internal@@YAPAU__crt_multibyte_data@@QAU__acrt_ptd@@QAPAU1@@Z 10012248     libucrt:mbctype.obj
 0002:00005268       __sehtable$??$?RV<lambda_ceb1ee4838e85a9d631eb091e2fbe199>@@AAV<lambda_ae742caa10f662c28703da3d2ea5e57e>@@V<lambda_cd08b5d6af4937fe54fc07d0c9bf6b37>@@@?$__crt_seh_guarded_call@X@@QAEX$$QAV<lambda_ceb1ee4838e85a9d631eb091e2fbe199>@@AAV<lambda_ae742caa10f662c28703da3d2ea5e57e>@@$$QAV<lambda_cd08b5d6af4937fe54fc07d0c9bf6b37>@@@Z 10012268     libucrt:mbctype.obj
 0002:00005288       __sehtable$___acrt_initialize_lowio 10012288     libucrt:ioinit.obj
 0002:000052a8       __sehtable$__query_new_handler 100122a8     libucrt:new_handler.obj
 0002:000052c8       __sehtable$_raise          100122c8     libucrt:signal.obj
 0002:000052e8       __sehtable$??$?RV<lambda_cbab9ec6f41b0180b23cc171c22676b0>@@AAV<lambda_44731a7d0e6d81c3e6aa82d741081786>@@V<lambda_4b292cb8dd18144e164572427af410ab>@@@?$__crt_seh_guarded_call@P6AXH@Z@@QAEP6AXH@Z$$QAV<lambda_cbab9ec6f41b0180b23cc171c22676b0>@@AAV<lambda_44731a7d0e6d81c3e6aa82d741081786>@@$$QAV<lambda_4b292cb8dd18144e164572427af410ab>@@@Z 100122e8     libucrt:signal.obj
 0002:00005308       __sehtable$??$?RV<lambda_2866be3712abc81a800a822484c830d8>@@AAV<lambda_39ca0ed439415581b5b15c265174cece>@@V<lambda_2b24c74d71094a6cd0cb82e44167d71b>@@@?$__crt_seh_guarded_call@X@@QAEX$$QAV<lambda_2866be3712abc81a800a822484c830d8>@@AAV<lambda_39ca0ed439415581b5b15c265174cece>@@$$QAV<lambda_2b24c74d71094a6cd0cb82e44167d71b>@@@Z 10012308     libucrt:fflush.obj
 0002:00005328       __sehtable$??$?RV<lambda_2cc53f568c5a2bb6f192f930a45d44ea>@@AAV<lambda_ab61a845afdef5b7c387490eaf3616ee>@@V<lambda_c2ffc0b7726aa6be21d5f0026187e748>@@@?$__crt_seh_guarded_call@X@@QAEX$$QAV<lambda_2cc53f568c5a2bb6f192f930a45d44ea>@@AAV<lambda_ab61a845afdef5b7c387490eaf3616ee>@@$$QAV<lambda_c2ffc0b7726aa6be21d5f0026187e748>@@@Z 10012328     libucrt:fflush.obj
 0002:00005348       __sehtable$___acrt_update_thread_locale_data 10012348     libucrt:locale_refcounting.obj
 0002:00005368       __sehtable$___acrt_lowio_ensure_fh_exists 10012368     libucrt:osfinfo.obj
 0002:00005388       __sehtable$??$?RV<lambda_9e9de3de5fa147e2223d7db92bc10aa6>@@AAV<lambda_38ce7e780aa69e748d6df282ebc68efe>@@V<lambda_8ca6da459f0f6780f1cff60fdc3d00e5>@@@?$__crt_seh_guarded_call@H@@QAEH$$QAV<lambda_9e9de3de5fa147e2223d7db92bc10aa6>@@AAV<lambda_38ce7e780aa69e748d6df282ebc68efe>@@$$QAV<lambda_8ca6da459f0f6780f1cff60fdc3d00e5>@@@Z 10012388     libucrt:commit.obj
 0002:000053a8       __sehtable$__write         100123a8     libucrt:write.obj
 0002:000053c8       __sehtable$__fcloseall     100123c8     libucrt:closeall.obj
 0002:000053e8       __sehtable$_fclose         100123e8     libucrt:fclose.obj
 0002:00005408       __sehtable$??$?RV<lambda_218ce3db14220d0be481dae8ef3383b6>@@AAV<lambda_628dfdc04ba53c8bfc02c9951375f3f5>@@V<lambda_57dc472bd5c9d5f3b2cbca59b8a843ae>@@@?$__crt_seh_guarded_call@H@@QAEH$$QAV<lambda_218ce3db14220d0be481dae8ef3383b6>@@AAV<lambda_628dfdc04ba53c8bfc02c9951375f3f5>@@$$QAV<lambda_57dc472bd5c9d5f3b2cbca59b8a843ae>@@@Z 10012408     libucrt:close.obj
 0002:00005428       __sehtable$__IsNonwritableInCurrentImage 10012428     LIBCMT:pesect.obj
 0002:00005800       .edata                     10012800     asynckeystate.exp
 0002:00005828       rgpv                       10012828     asynckeystate.exp
 0002:0000582c       rgszName                   1001282c     asynckeystate.exp
 0002:00005830       rgwOrd                     10012830     asynckeystate.exp
 0002:00005832       szName                     10012832     asynckeystate.exp
 0002:00005845       $N00001                    10012845     asynckeystate.exp
 0002:000059c8       .idata$6                   100129c8     kernel32:KERNEL32.dll
 0002:000059ea       .idata$6                   100129ea     user32:USER32.dll
 0003:00000020       ?__vcrt_flsindex@@3KA      10013020     libvcruntime:per_thread_data.obj
 0003:00000044       ?errno_no_memory@@3HA      10013044     libucrt:errno.obj
 0003:00000048       ?doserrno_no_memory@@3KA   10013048     libucrt:errno.obj
 0003:0000004c       ?__acrt_flsindex@@3KA      1001304c     libucrt:per_thread_data.obj
 0003:00000338       __mbctypes                 10013338     libucrt:mbctype.obj
 0003:00000440       __mbcasemaps               10013440     libucrt:mbctype.obj
 0003:00000540       ?__rgctypeflag@@3PADA      10013540     libucrt:mbctype.obj
 0003:00000548       ?__rgcode_page_info@@3PAUcode_page_info@@A 10013548     libucrt:mbctype.obj
 0003:00000840       ?__dcrt_lowio_console_output_handle@@3PAXA 10013840     libucrt:initcon.obj
 0003:00000860       __module                   10013860     asynckeystate.obj
 0003:000008bc       ?__proc_attached@@3HA      100138bc     LIBCMT:dll_dllmain.obj
 0003:000008c0       _GS_ExceptionRecord        100138c0     LIBCMT:gs_report.obj
 0003:00000910       _GS_ContextRecord          10013910     LIBCMT:gs_report.obj
 0003:00000c00       ?is_initialized_as_dll@@3_NA 10013c00     LIBCMT:utility.obj
 0003:00000c01       ?module_local_atexit_table_initialized@@3_NA 10013c01     LIBCMT:utility.obj
 0003:00000c04       ?module_local_atexit_table@@3U_onexit_table_t@@A 10013c04     LIBCMT:utility.obj
 0003:00000c10       ?module_local_at_quick_exit_table@@3U_onexit_table_t@@A 10013c10     LIBCMT:utility.obj
 0003:00000c50       ?heap@@3V_HeapManager@@A   10013c50     libvcruntime:undname.obj
 0003:00000c64       ?__vcrt_startup_thread_ptd@@3U__vcrt_ptd@@A 10013c64     libvcruntime:per_thread_data.obj
 0003:00000c8c       ___vcrt_lock_table         10013c8c     libvcruntime:locks.obj
 0003:00000ca4       ___vcrt_locks_initialized  10013ca4     libvcruntime:locks.obj
 0003:00000ca8       ?module_handles@@3PAPAUHINSTANCE__@@A 10013ca8     libvcruntime:winapi_downlevel.obj
 0003:00000cb4       ?encoded_function_pointers@@3PAPAXA 10013cb4     libvcruntime:winapi_downlevel.obj
 0003:00000cd0       ?c_termination_complete@@3JA 10013cd0     libucrt:exit.obj
 0003:00000cd4       ?thread_local_exit_callback_func@@3P6GXPAXK0@ZA 10013cd4     libucrt:exit.obj
 0003:00000ce0       ?program_name@?1???$common_configure_argv@D@@YAHW4_crt_argv_mode@@@Z@4PADA 10013ce0     libucrt:argv_parsing.obj
 0003:00000e10       ?__acrt_invalid_parameter_handler@@3V?$dual_state_global@P6AXPB_W00II@Z@__crt_state_management@@A 10013e10     libucrt:invalid_parameter.obj
 0003:00000e20       ?__acrt_lock_table@@3PAU_RTL_CRITICAL_SECTION@@A 10013e20     libucrt:locks.obj
 0003:00000f70       ?__acrt_locks_initialized@@3IA 10013f70     libucrt:locks.obj
 0003:00000f80       ?fSystemSet@@3HA           10013f80     libucrt:mbctype.obj
 0003:00000f84       ?initialized@?1??__acrt_initialize_multibyte@@9@4_NA 10013f84     libucrt:mbctype.obj
 0003:000011a8       ?module_handles@@3PAPAUHINSTANCE__@@A 100141a8     libucrt:winapi_thunks.obj
 0003:000011f8       ?encoded_function_pointers@@3PAPAXA 100141f8     libucrt:winapi_thunks.obj
 0003:00001284       ?__acrt_new_handler@@3V?$dual_state_global@P6AHI@Z@__crt_state_management@@A 10014284     libucrt:new_handler.obj
 0003:00001288       ?ctrlc_action@@3V?$dual_state_global@P6AXH@Z@__crt_state_management@@A 10014288     libucrt:signal.obj
 0003:0000128c       ?ctrlbreak_action@@3V?$dual_state_global@P6AXH@Z@__crt_state_management@@A 1001428c     libucrt:signal.obj
 0003:00001290       ?abort_action@@3V?$dual_state_global@P6AXH@Z@__crt_state_management@@A 10014290     libucrt:signal.obj
 0003:00001294       ?term_action@@3V?$dual_state_global@P6AXH@Z@__crt_state_management@@A 10014294     libucrt:signal.obj
 0003:00001298       ?user_matherr@@3V?$dual_state_global@P6AHPAU_exception@@@Z@__crt_state_management@@A 10014298     libucrt:matherr.obj
 0003:000012ac       ?internal_state@?1??_mbtowc_l@@9@4U_Mbstatet@@A 100142ac     libucrt:mbtowc.obj
 0003:000012bc       ?__acrt_global_new_mode@@3V?$dual_state_global@J@__crt_state_management@@A 100142bc     libucrt:new_mode.obj
 0003:000012c0       ?__acrt_app_type@@3W4_crt_app_type@@A 100142c0     libucrt:report_runtime_error.obj
 0003:000012c4       ?internal_pst@?1??__mbrtoc32_utf8@__crt_mbstring@@YAIPA_UPBDIPAU_Mbstatet@@@Z@4U3@A 100142c4     libucrt:mbrtoc32.obj
 0003:000012d0       __pmatherr_set             100142d0     libucrt:libm_error.obj
 0004:00000060       $R000000                   10015060     * linker generated manifest res *

 Exports

  ordinal    name

        1    __register_addon_
               exported name: _register_addon_
