 memoryjs

 Timestamp is 5bf7a42e (Fri Nov 23 07:54:38 2018)

 Preferred load address is 10000000

 Start         Length     Name                   Class
 0001:00000000 00000030H .text$di                CODE
 0001:00000030 000100a0H .text$mn                CODE
 0001:000100c7 00000000H .text$x                 CODE
 0001:000100d0 00000021H .text$yd                CODE
 0002:00000000 00000140H .idata$5                DATA
 0002:00000140 00000004H .00cfg                  DATA
 0002:00000144 00000004H .CRT$XCA                DATA
 0002:00000148 00000010H .CRT$XCU                DATA
 0002:00000158 00000004H .CRT$XCZ                DATA
 0002:0000015c 00000004H .CRT$XIA                DATA
 0002:00000160 0000000cH .CRT$XIC                DATA
 0002:0000016c 00000004H .CRT$XIZ                DATA
 0002:00000170 00000004H .CRT$XPA                DATA
 0002:00000174 00000008H .CRT$XPX                DATA
 0002:0000017c 00000004H .CRT$XPXA               DATA
 0002:00000180 00000004H .CRT$XPZ                DATA
 0002:00000184 00000004H .CRT$XTA                DATA
 0002:00000188 00000008H .CRT$XTZ                DATA
 0002:0000018c 00000000H .gfids$y                DATA
 0002:00000190 000052e0H .rdata                  DATA
 0002:00005470 00000220H .rdata$r                DATA
 0002:00005690 0000000cH .rdata$sxdata           DATA
 0002:0000569c 000003bcH .rdata$zzzdbg           DATA
 0002:00005a58 00000004H .rtc$IAA                DATA
 0002:00005a5c 00000004H .rtc$IZZ                DATA
 0002:00005a60 00000004H .rtc$TAA                DATA
 0002:00005a64 00000004H .rtc$TZZ                DATA
 0002:00005a68 000004fcH .xdata$x                DATA
 0002:00005f64 00000020H .didat$2                DATA
 0002:00005f84 00000020H .didat$3                DATA
 0002:00005fa4 0000007cH .didat$4                DATA
 0002:00006020 000006bcH .didat$6                DATA
 0002:000066dc 00000084H .didat$7                DATA
 0002:00006760 00000054H .edata                  DATA
 0002:000067b4 00000014H .idata$2                DATA
 0002:000067c8 00000014H .idata$3                DATA
 0002:000067dc 00000140H .idata$4                DATA
 0002:0000691c 000005c0H .idata$6                DATA
 0003:00000000 00000890H .data                   DATA
 0003:00000890 000000d8H .data$r                 DATA
 0003:00000968 00000080H .didat$5                DATA
 0003:000009e8 00000a48H .bss                    DATA
 0004:00000000 00000060H .rsrc$01                DATA
 0004:00000060 00000180H .rsrc$02                DATA

  Address         Publics by Value              Rva+Base       Lib:Object

 0000:00000000       ___guard_longjmp_count     00000000     <absolute>
 0000:00000000       ___guard_iat_count         00000000     <absolute>
 0000:00000000       __except_list              00000000     <absolute>
 0000:00000000       ___guard_fids_count        00000000     <absolute>
 0000:00000000       ___guard_longjmp_table     00000000     <absolute>
 0000:00000000       ___hybrid_code_map_count   00000000     <absolute>
 0000:00000000       ___hybrid_auxiliary_iat    00000000     <absolute>
 0000:00000000       ___dynamic_value_reloc_table 00000000     <absolute>
 0000:00000000       ___guard_fids_table        00000000     <absolute>
 0000:00000000       ___volatile_metadata       00000000     <absolute>
 0000:00000000       ___guard_iat_table         00000000     <absolute>
 0000:00000000       ___enclave_config          00000000     <absolute>
 0000:00000000       ___hybrid_code_map         00000000     <absolute>
 0000:00000003       ___safe_se_handler_count   00000003     <absolute>
 0000:00000100       ___guard_flags             00000100     <absolute>
 0000:00000000       ___ImageBase               10000000     <linker-defined>
 0001:00000030       ?NODE_SET_METHOD@node@@YAXV?$Local@VObject@v8@@@v8@@PBDP6AXABV?$FunctionCallbackInfo@VValue@v8@@@3@@Z@Z 10001030 f i memoryjs.obj
 0001:000000f0       ?throwError@memoryjs@@SAXPADPAVIsolate@v8@@@Z 100010f0 f   memoryjs.obj
 0001:00000130       ?openProcess@@YAXABV?$FunctionCallbackInfo@VValue@v8@@@v8@@@Z 10001130 f   memoryjs.obj
 0001:00000980       ?closeProcess@@YAXABV?$FunctionCallbackInfo@VValue@v8@@@v8@@@Z 10001980 f   memoryjs.obj
 0001:00000a50       ?getProcesses@@YAXABV?$FunctionCallbackInfo@VValue@v8@@@v8@@@Z 10001a50 f   memoryjs.obj
 0001:00000e40       ?getModules@@YAXABV?$FunctionCallbackInfo@VValue@v8@@@v8@@@Z 10001e40 f   memoryjs.obj
 0001:00001220       ?findModule@@YAXABV?$FunctionCallbackInfo@VValue@v8@@@v8@@@Z 10002220 f   memoryjs.obj
 0001:00001760       ?readMemory@@YAXABV?$FunctionCallbackInfo@VValue@v8@@@v8@@@Z 10002760 f   memoryjs.obj
 0001:00002590       ?writeMemory@@YAXABV?$FunctionCallbackInfo@VValue@v8@@@v8@@@Z 10003590 f   memoryjs.obj
 0001:00002fd0       ?findPattern@@YAXABV?$FunctionCallbackInfo@VValue@v8@@@v8@@@Z 10003fd0 f   memoryjs.obj
 0001:000034d0       ?setProtection@@YAXABV?$FunctionCallbackInfo@VValue@v8@@@v8@@@Z 100044d0 f   memoryjs.obj
 0001:00003670       ?init@@YAXV?$Local@VObject@v8@@@v8@@@Z 10004670 f   memoryjs.obj
 0001:00003730       ?assign@?$basic_string@DU?$char_traits@D@std@@V?$allocator@D@2@@std@@QAEAAV12@QBDI@Z 10004730 f i memoryjs.obj
 0001:00003850       ??$readMemory@H@memory@@QAEHPAX_K@Z 10004850 f i memoryjs.obj
 0001:00003870       ??$Set@VNumber@v8@@@?$ReturnValue@VValue@v8@@@v8@@QAEXV?$Local@VNumber@v8@@@1@@Z 10004870 f i memoryjs.obj
 0001:00003890       ??$_Emplace_reallocate@ABD@?$vector@DV?$allocator@D@std@@@std@@QAEPADQADABD@Z 10004890 f i memoryjs.obj
 0001:000039d0       ?_Xlength@?$vector@DV?$allocator@D@std@@@std@@CAXXZ 100049d0 f i memoryjs.obj
 0001:000039d0       ?_Xlength@?$vector@EV?$allocator@E@std@@@std@@CAXXZ 100049d0 f i pattern.obj
 0001:000039d0       ?_Xlength@?$vector@UtagPROCESSENTRY32@@V?$allocator@UtagPROCESSENTRY32@@@std@@@std@@CAXXZ 100049d0 f i process.obj
 0001:000039d0       ?_Xlength@?$vector@UtagMODULEENTRY32@@V?$allocator@UtagMODULEENTRY32@@@std@@@std@@CAXXZ 100049d0 f i module.obj
 0001:000039e0       ?_Xlen@?$basic_string@DU?$char_traits@D@std@@V?$allocator@D@2@@std@@SAXXZ 100049e0 f i memoryjs.obj
 0001:000039f0       ?getProcesses@process@@QAE?AV?$vector@UtagPROCESSENTRY32@@V?$allocator@UtagPROCESSENTRY32@@@std@@@std@@PAPAD@Z 100049f0 f   process.obj
 0001:00003ad0       ??$_Emplace_reallocate@ABUtagPROCESSENTRY32@@@?$vector@UtagPROCESSENTRY32@@V?$allocator@UtagPROCESSENTRY32@@@std@@@std@@QAEPAUtagPROCESSENTRY32@@QAU2@ABU2@@Z 10004ad0 f i process.obj
 0001:00003c90       ?findModule@module@@QAE?AUtagMODULEENTRY32@@PBDKPAPAD@Z 10004c90 f   module.obj
 0001:00003d80       ?getModules@module@@QAE?AV?$vector@UtagMODULEENTRY32@@V?$allocator@UtagMODULEENTRY32@@@std@@@std@@KPAPAD@Z 10004d80 f   module.obj
 0001:00003e60       ??$_Emplace_reallocate@ABUtagMODULEENTRY32@@@?$vector@UtagMODULEENTRY32@@V?$allocator@UtagMODULEENTRY32@@@std@@@std@@QAEPAUtagMODULEENTRY32@@QAU2@ABU2@@Z 10004e60 f i module.obj
 0001:00004010       ?findPattern@pattern@@QAEIPAXUtagMODULEENTRY32@@PBDFII@Z 10005010 f   pattern.obj
 0001:000041f0       ?_Xrange@?$vector@EV?$allocator@E@std@@@std@@CAXXZ 100051f0 f i pattern.obj
 0001:00004246       __imp_load_?ThrowException@Isolate@v8@@QAE?AV?$Local@VValue@v8@@@2@V32@@Z 10005246 f   node:node.exe
 0001:00004250       __tailMerge_node_exe       10005250     node:node.exe
 0001:00004261       __imp_load_?GetCurrentContext@Isolate@v8@@QAE?AV?$Local@VContext@v8@@@2@XZ 10005261 f   node:node.exe
 0001:0000426b       __imp_load_?GetCurrent@Isolate@v8@@SAPAV12@XZ 1000526b f   node:node.exe
 0001:00004275       __imp_load_??1HandleScope@v8@@QAE@XZ 10005275 f   node:node.exe
 0001:0000427f       __imp_load_??0HandleScope@v8@@QAE@PAVIsolate@1@@Z 1000527f f   node:node.exe
 0001:00004289       __imp_load_?TypeError@Exception@v8@@SA?AV?$Local@VValue@v8@@@2@V?$Local@VString@v8@@@2@@Z 10005289 f   node:node.exe
 0001:00004293       __imp_load_?New@Array@v8@@SA?AV?$Local@VArray@v8@@@2@PAVIsolate@2@H@Z 10005293 f   node:node.exe
 0001:0000429d       __imp_load_?GetFunction@FunctionTemplate@v8@@QAE?AV?$MaybeLocal@VFunction@v8@@@2@V?$Local@VContext@v8@@@2@@Z 1000529d f   node:node.exe
 0001:000042a7       __imp_load_?New@FunctionTemplate@v8@@SA?AV?$Local@VFunctionTemplate@v8@@@2@PAVIsolate@2@P6AXABV?$FunctionCallbackInfo@VValue@v8@@@2@@ZV?$Local@VValue@v8@@@2@V?$Local@VSignature@v8@@@2@HW4ConstructorBehavior@2@W4SideEffectType@2@@Z 100052a7 f   node:node.exe
 0001:000042b1       __imp_load_?ToLocalEmpty@V8@v8@@CAXXZ 100052b1 f   node:node.exe
 0001:000042bb       __imp_load_?Int32Value@Value@v8@@QBEHXZ 100052bb f   node:node.exe
 0001:000042c5       __imp_load_?Uint32Value@Value@v8@@QBEIXZ 100052c5 f   node:node.exe
 0001:000042cf       __imp_load_?IntegerValue@Value@v8@@QBE_JXZ 100052cf f   node:node.exe
 0001:000042d9       __imp_load_?NumberValue@Value@v8@@QBENXZ 100052d9 f   node:node.exe
 0001:000042e3       __imp_load_?BooleanValue@Value@v8@@QBE_NXZ 100052e3 f   node:node.exe
 0001:000042ed       __imp_load_?IsNumber@Value@v8@@QBE_NXZ 100052ed f   node:node.exe
 0001:000042f7       __imp_load_?IsFunction@Value@v8@@QBE_NXZ 100052f7 f   node:node.exe
 0001:00004301       __imp_load_??1Utf8Value@String@v8@@QAE@XZ 10005301 f   node:node.exe
 0001:0000430b       __imp_load_??0Utf8Value@String@v8@@QAE@V?$Local@VValue@v8@@@2@@Z 1000530b f   node:node.exe
 0001:00004315       __imp_load_?NewFromUtf8@String@v8@@SA?AV?$Local@VString@v8@@@2@PAVIsolate@2@PBDW4NewStringType@12@H@Z 10005315 f   node:node.exe
 0001:0000431f       __imp_load_?NewFromUtf8@String@v8@@SA?AV?$MaybeLocal@VString@v8@@@2@PAVIsolate@2@PBDW4NewStringType@2@H@Z 1000531f f   node:node.exe
 0001:00004329       __imp_load_?New@Number@v8@@SA?AV?$Local@VNumber@v8@@@2@PAVIsolate@2@N@Z 10005329 f   node:node.exe
 0001:00004333       __imp_load_?New@Object@v8@@SA?AV?$Local@VObject@v8@@@2@PAVIsolate@2@@Z 10005333 f   node:node.exe
 0001:0000433d       __imp_load_?Get@Object@v8@@QAE?AV?$Local@VValue@v8@@@2@V32@@Z 1000533d f   node:node.exe
 0001:00004347       __imp_load_?Set@Object@v8@@QAE_NV?$Local@VValue@v8@@@2@0@Z 10005347 f   node:node.exe
 0001:00004351       __imp_load_?Set@Object@v8@@QAE_NIV?$Local@VValue@v8@@@2@@Z 10005351 f   node:node.exe
 0001:0000435b       __imp_load_?SetName@Function@v8@@QAEXV?$Local@VString@v8@@@2@@Z 1000535b f   node:node.exe
 0001:00004365       __imp_load_?Call@Function@v8@@QAE?AV?$Local@VValue@v8@@@2@V32@HQAV32@@Z 10005365 f   node:node.exe
 0001:0000436f       __imp_load__node_module_register 1000536f f   node:node.exe
 0001:00004379       __imp_load_?ToString@Value@v8@@QBE?AV?$Local@VString@v8@@@2@XZ 10005379 f   node:node.exe
 0001:00004383       ??0bad_alloc@std@@QAE@ABV01@@Z 10005383 f i libcpmt:xthrow.obj
 0001:0000439e       ??0bad_alloc@std@@QAE@XZ   1000539e f i libcpmt:xthrow.obj
 0001:000043b6       ??0exception@std@@QAE@ABV01@@Z 100053b6 f i libcpmt:xthrow.obj
 0001:000043e2       ??0exception@std@@QAE@QBD@Z 100053e2 f i libcpmt:xthrow.obj
 0001:00004417       ??0length_error@std@@QAE@ABV01@@Z 10005417 f i libcpmt:xthrow.obj
 0001:00004432       ??0length_error@std@@QAE@PBD@Z 10005432 f i libcpmt:xthrow.obj
 0001:00004451       ??0logic_error@std@@QAE@ABV01@@Z 10005451 f i libcpmt:xthrow.obj
 0001:0000446c       ??0out_of_range@std@@QAE@ABV01@@Z 1000546c f i libcpmt:xthrow.obj
 0001:00004487       ??0out_of_range@std@@QAE@PBD@Z 10005487 f i libcpmt:xthrow.obj
 0001:000044a6       ??1bad_array_new_length@std@@UAE@XZ 100054a6 f i LIBCMT:throw_bad_alloc.obj
 0001:000044a6       ??1bad_alloc@std@@UAE@XZ   100054a6 f i libcpmt:xthrow.obj
 0001:000044a6       ??1length_error@std@@UAE@XZ 100054a6 f i libcpmt:xthrow.obj
 0001:000044a6       ??1out_of_range@std@@UAE@XZ 100054a6 f i libcpmt:xthrow.obj
 0001:000044b7       ??_Glogic_error@std@@UAEPAXI@Z 100054b7 f i libcpmt:xthrow.obj
 0001:000044b7       ??_Gout_of_range@std@@UAEPAXI@Z 100054b7 f i libcpmt:xthrow.obj
 0001:000044b7       ??_Eexception@std@@UAEPAXI@Z 100054b7 f i libcpmt:xthrow.obj
 0001:000044b7       ??_Ebad_alloc@std@@UAEPAXI@Z 100054b7 f i libcpmt:xthrow.obj
 0001:000044b7       ??_Elogic_error@std@@UAEPAXI@Z 100054b7 f i libcpmt:xthrow.obj
 0001:000044b7       ??_Eout_of_range@std@@UAEPAXI@Z 100054b7 f i libcpmt:xthrow.obj
 0001:000044b7       ??_Elength_error@std@@UAEPAXI@Z 100054b7 f i libcpmt:xthrow.obj
 0001:000044b7       ??_Ebad_array_new_length@std@@UAEPAXI@Z 100054b7 f i LIBCMT:throw_bad_alloc.obj
 0001:000044b7       ??_Glength_error@std@@UAEPAXI@Z 100054b7 f i libcpmt:xthrow.obj
 0001:000044b7       ??_Gbad_alloc@std@@UAEPAXI@Z 100054b7 f i libcpmt:xthrow.obj
 0001:000044b7       ??_Gexception@std@@UAEPAXI@Z 100054b7 f i libcpmt:xthrow.obj
 0001:000044b7       ??_Gbad_array_new_length@std@@UAEPAXI@Z 100054b7 f i LIBCMT:throw_bad_alloc.obj
 0001:000044e4       ?_Xlength_error@std@@YAXPBD@Z 100054e4 f   libcpmt:xthrow.obj
 0001:00004504       ?_Xout_of_range@std@@YAXPBD@Z 10005504 f   libcpmt:xthrow.obj
 0001:00004524       ?what@exception@std@@UBEPBDXZ 10005524 f i libcpmt:xthrow.obj
 0001:00004531       @__security_check_cookie@4 10005531 f   LIBCMT:secchk.obj
 0001:00004542       ??2@YAPAXI@Z               10005542 f   LIBCMT:new_scalar.obj
 0001:00004572       ??$__crt_fast_encode_pointer@PAP6AXXZ@@YAPAP6AXXZQAP6AXXZ@Z 10005572 f i LIBCMT:utility.obj
 0001:00004572       ??$__crt_fast_encode_pointer@PAX@@YAPAXQAX@Z 10005572 f i libvcruntime:winapi_downlevel.obj
 0001:000045d3       ___scrt_acquire_startup_lock 100055d3 f   LIBCMT:utility.obj
 0001:00004605       ___scrt_dllmain_after_initialize_c 10005605 f   LIBCMT:utility.obj
 0001:00004630       ___scrt_dllmain_before_initialize_c 10005630 f   LIBCMT:utility.obj
 0001:0000463e       ___scrt_dllmain_crt_thread_attach 1000563e f   LIBCMT:utility.obj
 0001:0000465d       ___scrt_dllmain_crt_thread_detach 1000565d f   LIBCMT:utility.obj
 0001:0000466a       ___scrt_dllmain_exception_filter 1000566a f   LIBCMT:utility.obj
 0001:0000469e       ___scrt_dllmain_uninitialize_c 1000569e f   LIBCMT:utility.obj
 0001:000046c1       ___scrt_dllmain_uninitialize_critical 100056c1 f   LIBCMT:utility.obj
 0001:000046ce       ___scrt_initialize_crt     100056ce f   LIBCMT:utility.obj
 0001:00004707       ___scrt_initialize_onexit_tables 10005707 f   LIBCMT:utility.obj
 0001:000047ac       ___scrt_is_nonwritable_in_current_image 100057ac f   LIBCMT:utility.obj
 0001:00004840       ___scrt_release_startup_lock 10005840 f   LIBCMT:utility.obj
 0001:0000485d       ___scrt_uninitialize_crt   1000585d f   LIBCMT:utility.obj
 0001:00004885       __onexit                   10005885 f   LIBCMT:utility.obj
 0001:000048c0       _atexit                    100058c0 f   LIBCMT:utility.obj
 0001:000048d5       ??3@YAXPAXI@Z              100058d5 f   LIBCMT:delete_scalar_size.obj
 0001:00004c03       __DllMainCRTStartup@12     10005c03 f   LIBCMT:dll_dllmain.obj
 0001:00004c26       ??_Etype_info@@UAEPAXI@Z   10005c26 f i LIBCMT:std_type_info_static.obj
 0001:00004c26       ??_Gtype_info@@UAEPAXI@Z   10005c26 f i LIBCMT:std_type_info_static.obj
 0001:00004c49       ___raise_securityfailure   10005c49 f   LIBCMT:gs_report.obj
 0001:00004c71       ___report_gsfailure        10005c71 f   LIBCMT:gs_report.obj
 0001:00004d6a       ??0bad_array_new_length@std@@QAE@ABV01@@Z 10005d6a f i LIBCMT:throw_bad_alloc.obj
 0001:00004d85       ??0bad_array_new_length@std@@QAE@XZ 10005d85 f i LIBCMT:throw_bad_alloc.obj
 0001:00004d9d       ?__scrt_throw_std_bad_alloc@@YAXXZ 10005d9d f   LIBCMT:throw_bad_alloc.obj
 0001:00004dba       ?__scrt_throw_std_bad_array_new_length@@YAXXZ 10005dba f   LIBCMT:throw_bad_alloc.obj
 0001:00004dd7       ___isa_available_init      10005dd7 f   LIBCMT:cpu_disp.obj
 0001:00004f6e       __get_startup_argv_mode    10005f6e f   LIBCMT:argv_mode.obj
 0001:00004f72       ___scrt_is_ucrt_dll_in_use 10005f72 f   LIBCMT:ucrt_detection.obj
 0001:00004f7e       ___scrt_fastfail           10005f7e f   LIBCMT:utility_desktop.obj
 0001:00005098       __crt_debugger_hook        10006098 f   LIBCMT:utility_desktop.obj
 0001:000050a0       __SEH_prolog4              100060a0 f   LIBCMT:sehprolg4.obj
 0001:000050e6       __SEH_epilog4              100060e6 f   LIBCMT:sehprolg4.obj
 0001:000050fb       @_guard_check_icall_nop@4  100060fb f i LIBCMT:guard_support.obj
 0001:000050fc       ??3@YAXPAX@Z               100060fc f   LIBCMT:delete_scalar.obj
 0001:0000514e       ___security_init_cookie    1000614e f   LIBCMT:gs_support.obj
 0001:00005199       _DllMain@12                10006199 f   LIBCMT:dll_dllmain_stub.obj
 0001:0000519f       ?__scrt_initialize_type_info@@YAXXZ 1000619f f   LIBCMT:tncleanup.obj
 0001:000051ab       ?__scrt_uninitialize_type_info@@YAXXZ 100061ab f   LIBCMT:tncleanup.obj
 0001:000051b7       ___local_stdio_printf_options 100061b7 f i LIBCMT:default_local_stdio_options.obj
 0001:000051bd       ___local_stdio_scanf_options 100061bd f i LIBCMT:default_local_stdio_options.obj
 0001:000051c3       ___scrt_initialize_default_local_stdio_options 100061c3 f   LIBCMT:default_local_stdio_options.obj
 0001:000051e0       ___scrt_get_dyn_tls_init_callback 100061e0 f   LIBCMT:dyn_tls_init.obj
 0001:000051e6       __RTC_Initialize           100061e6 f   LIBCMT:initsect.obj
 0001:00005212       __RTC_Terminate            10006212 f   LIBCMT:initsect.obj
 0001:0000523e       ___std_exception_copy      1000623e f   libvcruntime:std_exception.obj
 0001:000052a1       ___std_exception_destroy   100062a1 f   libvcruntime:std_exception.obj
 0001:000052c0       __CxxThrowException@8      100062c0 f   libvcruntime:throw.obj
 0001:0000532d       ___vcrt_initialize         1000632d f   libvcruntime:initialization.obj
 0001:00005356       ___vcrt_thread_attach      10006356 f   libvcruntime:initialization.obj
 0001:00005361       ___vcrt_thread_detach      10006361 f   libvcruntime:initialization.obj
 0001:0000536c       ___vcrt_uninitialize       1000636c f   libvcruntime:initialization.obj
 0001:0000538b       ___vcrt_uninitialize_critical 1000638b f   libvcruntime:initialization.obj
 0001:000053e0       __except_handler4          100063e0 f   libvcruntime:chandler4.obj
 0001:00005540       _memset                    10006540 f   libvcruntime:memset.obj
 0001:0000569a       ___std_type_info_destroy_list 1000669a f   libvcruntime:std_type_info.obj
 0001:000056bd       ___vcrt_freefls@4          100066bd f   libvcruntime:per_thread_data.obj
 0001:000056d9       ___vcrt_freeptd            100066d9 f   libvcruntime:per_thread_data.obj
 0001:0000570f       ___vcrt_getptd_noexit      1000670f f   libvcruntime:per_thread_data.obj
 0001:000057a1       ___vcrt_initialize_ptd     100067a1 f   libvcruntime:per_thread_data.obj
 0001:000057d4       ___vcrt_uninitialize_ptd   100067d4 f   libvcruntime:per_thread_data.obj
 0001:000057ef       ___vcrt_initialize_locks   100067ef f   libvcruntime:locks.obj
 0001:0000582b       ___vcrt_uninitialize_locks 1000682b f   libvcruntime:locks.obj
 0001:0000598d       ___vcrt_FlsAlloc           1000698d f   libvcruntime:winapi_downlevel.obj
 0001:000059c8       ___vcrt_FlsFree            100069c8 f   libvcruntime:winapi_downlevel.obj
 0001:00005a03       ___vcrt_FlsGetValue        10006a03 f   libvcruntime:winapi_downlevel.obj
 0001:00005a3e       ___vcrt_FlsSetValue        10006a3e f   libvcruntime:winapi_downlevel.obj
 0001:00005a7c       ___vcrt_InitializeCriticalSectionEx 10006a7c f   libvcruntime:winapi_downlevel.obj
 0001:00005ac3       ___vcrt_initialize_winapi_thunks 10006ac3 f   libvcruntime:winapi_downlevel.obj
 0001:00005aec       ___vcrt_uninitialize_winapi_thunks 10006aec f   libvcruntime:winapi_downlevel.obj
 0001:00005b1e       ___vcrt_initialize_pure_virtual_call_handler 10006b1e f   libvcruntime:purevirt_data.obj
 0001:00005b30       __local_unwind4            10006b30 f   libvcruntime:exsup4.obj
 0001:00005c08       __seh_longjmp_unwind4@4    10006c08 f   libvcruntime:exsup4.obj
 0001:00005c30       @_EH4_CallFilterFunc@8     10006c30 f   libvcruntime:exsup4.obj
 0001:00005c48       @_EH4_TransferToHandler@8  10006c48 f   libvcruntime:exsup4.obj
 0001:00005c64       @_EH4_GlobalUnwind2@8      10006c64 f   libvcruntime:exsup4.obj
 0001:00005c80       @_EH4_LocalUnwind@16       10006c80 f   libvcruntime:exsup4.obj
 0001:00005c97       ___except_validate_context_record 10006c97 f   libvcruntime:jbcxrval.obj
 0001:00005cc7       ___except_validate_jump_buffer 10006cc7 f   libvcruntime:jbcxrval.obj
 0001:00005d00       __global_unwind2           10006d00 f   libvcruntime:exsup.obj
 0001:00005d66       __local_unwind2            10006d66 f   libvcruntime:exsup.obj
 0001:00005dea       __abnormal_termination     10006dea f   libvcruntime:exsup.obj
 0001:00005e10       __NLG_Notify1              10006e10 f   libvcruntime:exsup.obj
 0001:00005e1c       __NLG_Notify               10006e1c f   libvcruntime:exsup.obj
 0001:00005e33       __NLG_Dispatch2            10006e33     libvcruntime:exsup.obj
 0001:00005e33       __NLG_Dispatch             10006e33     libvcruntime:exsup.obj
 0001:00005e3b       __NLG_Call                 10006e3b f   libvcruntime:exsup.obj
 0001:00005e3d       __NLG_Return2              10006e3d     libvcruntime:exsup.obj
 0001:00005e40       _memcpy                    10006e40 f   libvcruntime:memcpy.obj
 0001:000063c0       __CallSettingFrame@12      100073c0 f   libvcruntime:lowhelpr.obj
 0001:000063e7       __NLG_Return               100073e7     libvcruntime:lowhelpr.obj
 0001:0000640c       ___DestructExceptionObject 1000740c f   libvcruntime:ehhelpers.obj
 0001:000064ac       ?_CallMemberFunction0@@YGXQAX0@Z 100074ac f i libvcruntime:ehhelpers.obj
 0001:000064c0       _memmove                   100074c0 f   libvcruntime:memmove.obj
 0001:00006a34       ___acrt_call_reportfault   10007a34 f   libucrt:invalid_parameter.obj
 0001:00006b6f       ___acrt_initialize_invalid_parameter_handler 10007b6f f   libucrt:invalid_parameter.obj
 0001:00006b7e       __invalid_parameter        10007b7e f   libucrt:invalid_parameter.obj
 0001:00006be2       __invalid_parameter_noinfo 10007be2 f   libucrt:invalid_parameter.obj
 0001:00006bf2       __invalid_parameter_noinfo_noreturn 10007bf2 f   libucrt:invalid_parameter.obj
 0001:00006c0f       __invoke_watson            10007c0f f   libucrt:invalid_parameter.obj
 0001:00006c43       ??0_LocaleUpdate@@QAE@QAU__crt_locale_pointers@@@Z 10007c43 f i libucrt:stricmp.obj
 0001:00006cc6       ___ascii_stricmp           10007cc6 f   libucrt:stricmp.obj
 0001:00006d01       __stricmp                  10007d01 f   libucrt:stricmp.obj
 0001:00006d4a       __stricmp_l                10007d4a f   libucrt:stricmp.obj
 0001:00006de4       ___acrt_initialize_new_handler 10007de4 f   libucrt:new_handler.obj
 0001:00006df3       __callnewh                 10007df3 f   libucrt:new_handler.obj
 0001:00006e20       __query_new_handler        10007e20 f   libucrt:new_handler.obj
 0001:00006e72       _malloc                    10007e72 f   libucrt:malloc.obj
 0001:00006e7d       __seh_filter_dll           10007e7d f   libucrt:exception_filter.obj
 0001:00006e9d       __seh_filter_exe           10007e9d f   libucrt:exception_filter.obj
 0001:0000725d       ___acrt_initialize_thread_local_exit_callback 1000825d f   libucrt:exit.obj
 0001:0000726c       __cexit                    1000826c f   libucrt:exit.obj
 0001:0000727b       __exit                     1000827b f   libucrt:exit.obj
 0001:00007291       __is_c_termination_complete 10008291 f   libucrt:exit.obj
 0001:00007549       ___acrt_allocate_buffer_for_argv 10008549 f   libucrt:argv_parsing.obj
 0001:00007598       __configure_narrow_argv    10008598 f   libucrt:argv_parsing.obj
 0001:000076f7       ??$uninitialize@A6AXAAPAPAD@Z@?$dual_state_global@PAPAD@__crt_state_management@@QAEXA6AXAAPAPAD@Z@Z 100086f7 f i libucrt:environment_initialization.obj
 0001:000076f7       ??$uninitialize@A6AXAAPAPA_W@Z@?$dual_state_global@PAPA_W@__crt_state_management@@QAEXA6AXAAPAPA_W@Z@Z 100086f7 f i libucrt:environment_initialization.obj
 0001:00007756       ___dcrt_uninitialize_environments_nolock 10008756 f   libucrt:environment_initialization.obj
 0001:0000778d       __initialize_narrow_environment 1000878d f   libucrt:environment_initialization.obj
 0001:00007834       ??$__crt_fast_encode_pointer@P6AHXZ@@YAP6AHXZQ6AHXZ@Z 10008834 f i libucrt:onexit.obj
 0001:00007a5a       __crt_atexit               10008a5a f   libucrt:onexit.obj
 0001:00007a70       __execute_onexit_table     10008a70 f   libucrt:onexit.obj
 0001:00007a9f       __initialize_onexit_table  10008a9f f   libucrt:onexit.obj
 0001:00007ac8       __register_onexit_function 10008ac8 f   libucrt:onexit.obj
 0001:00007b24       ___acrt_uninitialize_command_line 10008b24 f   libucrt:argv_data.obj
 0001:00007bfd       ___acrt_initialize         10008bfd f   libucrt:initialization.obj
 0001:00007c0f       ___acrt_thread_attach      10008c0f f   libucrt:initialization.obj
 0001:00007c1a       ___acrt_thread_detach      10008c1a f   libucrt:initialization.obj
 0001:00007c22       ___acrt_uninitialize       10008c22 f   libucrt:initialization.obj
 0001:00007c52       ___acrt_uninitialize_critical 10008c52 f   libucrt:initialization.obj
 0001:00007c64       __initterm                 10008c64 f   libucrt:initterm.obj
 0001:00007cab       __initterm_e               10008cab f   libucrt:initterm.obj
 0001:00007cd9       _terminate                 10008cd9 f   libucrt:terminate.obj
 0001:00007d15       _free                      10008d15 f   libucrt:free.obj
 0001:00007d32       _strcpy_s                  10008d32 f   libucrt:strcpy_s.obj
 0001:00007d8c       _abort                     10008d8c f   libucrt:abort.obj
 0001:00007dd0       _calloc                    10008dd0 f   libucrt:calloc.obj
 0001:00007ddb       _wcsncmp                   10008ddb f   libucrt:wcsncmp.obj
 0001:00007e15       ___acrt_locale_get_ctype_array_value 10008e15 f i libucrt:output.obj
 0001:00007e37       __chvalidchk_l             10008e37 f i libucrt:atox.obj
 0001:00007e5f       __ischartype_l             10008e5f f i libucrt:atox.obj
 0001:00007ea0       _strncmp                   10008ea0 f   libucrt:strncmp.obj
 0001:00008232       ___acrt_freeptd            10009232 f   libucrt:per_thread_data.obj
 0001:0000825e       ___acrt_getptd             1000925e f   libucrt:per_thread_data.obj
 0001:0000831b       ___acrt_getptd_head        1000931b f   libucrt:per_thread_data.obj
 0001:000083b5       ___acrt_getptd_noexit      100093b5 f   libucrt:per_thread_data.obj
 0001:0000846a       ___acrt_initialize_ptd     1000946a f   libucrt:per_thread_data.obj
 0001:00008496       ___acrt_uninitialize_ptd   10009496 f   libucrt:per_thread_data.obj
 0001:00008613       __tolower_l                10009613 f   libucrt:tolower_toupper.obj
 0001:0000862d       ___acrt_errno_from_os_error 1000962d f   libucrt:errno.obj
 0001:00008670       ___acrt_errno_map_os_error 10009670 f   libucrt:errno.obj
 0001:00008693       ___doserrno                10009693 f   libucrt:errno.obj
 0001:000086a6       __errno                    100096a6 f   libucrt:errno.obj
 0001:000086b9       ___acrt_update_locale_info 100096b9 f   libucrt:locale_update.obj
 0001:000086e6       ___acrt_update_multibyte_info 100096e6 f   libucrt:locale_update.obj
 0001:00008777       ___acrt_set_locale_changed 10009777 f   libucrt:wsetlocale.obj
 0001:00008782       ___acrt_uninitialize_locale 10009782 f   libucrt:wsetlocale.obj
 0001:000087ab       ___acrt_initialize_locks   100097ab f   libucrt:locks.obj
 0001:000087ec       ___acrt_lock               100097ec f   libucrt:locks.obj
 0001:00008803       ___acrt_uninitialize_locks 10009803 f   libucrt:locks.obj
 0001:00008834       ___acrt_unlock             10009834 f   libucrt:locks.obj
 0001:0000884b       __malloc_base              1000984b f   libucrt:malloc_base.obj
 0001:00008899       ___acrt_get_process_end_policy 10009899 f   libucrt:win_policies.obj
 0001:000088cc       __calloc_base              100098cc f   libucrt:calloc_base.obj
 0001:00008929       __free_base                10009929 f   libucrt:free_base.obj
 0001:00008afc       ??$__acrt_mbs_to_wcs_cp@U__crt_win32_buffer_internal_dynamic_resizing@@@@YAHQBDAAV?$__crt_win32_buffer@_WU__crt_win32_buffer_internal_dynamic_resizing@@@@I@Z 10009afc f i libucrt:argv_wildcards.obj
 0001:00009018       ?__acrt_get_utf8_acp_compatibility_codepage@@YAIXZ 1000a018 f i libucrt:argv_wildcards.obj
 0001:00009059       ?_deallocate@?$__crt_win32_buffer@_WU__crt_win32_buffer_internal_dynamic_resizing@@@@AAEXXZ 1000a059 f i libucrt:argv_wildcards.obj
 0001:00009059       ?_deallocate@?$__crt_win32_buffer@DU__crt_win32_buffer_internal_dynamic_resizing@@@@AAEXXZ 1000a059 f i libucrt:argv_wildcards.obj
 0001:00009073       ?allocate@?$__crt_win32_buffer@DU__crt_win32_buffer_internal_dynamic_resizing@@@@QAEHI@Z 1000a073 f i libucrt:argv_wildcards.obj
 0001:000090af       ?allocate@?$__crt_win32_buffer@_WU__crt_win32_buffer_internal_dynamic_resizing@@@@QAEHI@Z 1000a0af f i libucrt:argv_wildcards.obj
 0001:000090ee       ?allocate@__crt_win32_buffer_internal_dynamic_resizing@@SAHQAPAXIABV__crt_win32_buffer_empty_debug_info@@@Z 1000a0ee f i libucrt:argv_wildcards.obj
 0001:00009194       ___acrt_expand_narrow_argv_wildcards 1000a194 f   libucrt:argv_wildcards.obj
 0001:00009266       ?allocate@?$__crt_win32_buffer@DU__crt_win32_buffer_no_resizing@@@@QAEHI@Z 1000a266 f i libucrt:getmodulefilenamea.obj
 0001:0000928d       ?set_to_nullptr@?$__crt_win32_buffer@DU__crt_win32_buffer_no_resizing@@@@QAEXXZ 1000a28d f i libucrt:getmodulefilenamea.obj
 0001:000092a1       ___acrt_GetModuleFileNameA 1000a2a1 f   libucrt:getmodulefilenamea.obj
 0001:00009854       ___acrt_initialize_multibyte 1000a854 f   libucrt:mbctype.obj
 0001:0000989c       ___acrt_update_thread_multibyte_data 1000a89c f   libucrt:mbctype.obj
 0001:000098af       __setmbcp_nolock           1000a8af f   libucrt:mbctype.obj
 0001:00009b7e       __ismbblead                1000ab7e f   libucrt:ismbbyte.obj
 0001:00009b96       ___acrt_initialize_command_line 1000ab96 f   libucrt:argv_data.obj
 0001:00009baf       ___acrt_MultiByteToWideChar 1000abaf f   libucrt:multibytetowidechar.obj
 0001:00009c2b       ___acrt_WideCharToMultiByte 1000ac2b f   libucrt:widechartomultibyte.obj
 0001:00009d0f       ___dcrt_get_narrow_environment_from_os 1000ad0f f   libucrt:get_environment_from_os.obj
 0001:00009d95       __recalloc_base            1000ad95 f   libucrt:recalloc.obj
 0001:00009f6e       ___acrt_initialize_lowio   1000af6e f   libucrt:ioinit.obj
 0001:00009fc4       ___acrt_uninitialize_lowio 1000afc4 f   libucrt:ioinit.obj
 0001:0000a18a       ___acrt_AppPolicyGetProcessTerminationMethodInternal@4 1000b18a f   libucrt:winapi_thunks.obj
 0001:0000a1ca       ___acrt_AreFileApisANSI@0  1000b1ca f   libucrt:winapi_thunks.obj
 0001:0000a1e9       ___acrt_FlsAlloc@4         1000b1e9 f   libucrt:winapi_thunks.obj
 0001:0000a228       ___acrt_FlsFree@4          1000b228 f   libucrt:winapi_thunks.obj
 0001:0000a267       ___acrt_FlsGetValue@4      1000b267 f   libucrt:winapi_thunks.obj
 0001:0000a2a6       ___acrt_FlsSetValue@8      1000b2a6 f   libucrt:winapi_thunks.obj
 0001:0000a2e8       ___acrt_InitializeCriticalSectionEx@12 1000b2e8 f   libucrt:winapi_thunks.obj
 0001:0000a333       ___acrt_LCMapStringEx@36   1000b333 f   libucrt:winapi_thunks.obj
 0001:0000a390       ___acrt_LocaleNameToLCID@8 1000b390 f   libucrt:winapi_thunks.obj
 0001:0000a3c1       ___acrt_initialize_winapi_thunks 1000b3c1 f   libucrt:winapi_thunks.obj
 0001:0000a3ec       ___acrt_uninitialize_winapi_thunks 1000b3ec f   libucrt:winapi_thunks.obj
 0001:0000a422       ___acrt_initialize_heap    1000b422 f   libucrt:heap_handle.obj
 0001:0000a433       ___acrt_uninitialize_heap  1000b433 f   libucrt:heap_handle.obj
 0001:0000a43d       ___acrt_execute_initializers 1000b43d f   libucrt:shared_initialization.obj
 0001:0000a4a5       ___acrt_execute_uninitializers 1000b4a5 f   libucrt:shared_initialization.obj
 0001:0000a59a       ___acrt_get_sigabrt_handler 1000b59a f   libucrt:signal.obj
 0001:0000a5c3       ___acrt_initialize_signal_handlers 1000b5c3 f   libucrt:signal.obj
 0001:0000a5e1       ___fpecode                 1000b5e1 f   libucrt:signal.obj
 0001:0000a5ea       _raise                     1000b5ea f   libucrt:signal.obj
 0001:0000a7d1       ___acrt_has_user_matherr   1000b7d1 f   libucrt:matherr.obj
 0001:0000a7e9       ___acrt_initialize_user_matherr 1000b7e9 f   libucrt:matherr.obj
 0001:0000a7f8       ___acrt_invoke_user_matherr 1000b7f8 f   libucrt:matherr.obj
 0001:0000a9f5       ___acrt_stdio_flush_nolock 1000b9f5 f   libucrt:fflush.obj
 0001:0000aa5a       __fflush_nolock            1000ba5a f   libucrt:fflush.obj
 0001:0000aaa2       __flushall                 1000baa2 f   libucrt:fflush.obj
 0001:0000aaab       ___acrt_initialize_stdio   1000baab f   libucrt:_file.obj
 0001:0000ab73       ___acrt_uninitialize_stdio 1000bb73 f   libucrt:_file.obj
 0001:0000abbf       __lock_file                1000bbbf f   libucrt:_file.obj
 0001:0000abd3       __unlock_file              1000bbd3 f   libucrt:_file.obj
 0001:0000abe7       __mbtowc_l                 1000bbe7 f   libucrt:mbtowc.obj
 0001:0000ad2b       _mbtowc                    1000bd2b f   libucrt:mbtowc.obj
 0001:0000ad45       __fileno                   1000bd45 f   libucrt:fileno.obj
 0001:0000ad6c       ___pctype_func             1000bd6c f   libucrt:ctype.obj
 0001:0000ad92       __isctype_l                1000bd92 f   libucrt:isctype.obj
 0001:0000ae67       ___acrt_add_locale_ref     1000be67 f   libucrt:locale_refcounting.obj
 0001:0000aee4       ___acrt_free_locale        1000bee4 f   libucrt:locale_refcounting.obj
 0001:0000b02e       ___acrt_locale_add_lc_time_reference 1000c02e f   libucrt:locale_refcounting.obj
 0001:0000b057       ___acrt_locale_free_lc_time_if_unreferenced 1000c057 f   libucrt:locale_refcounting.obj
 0001:0000b088       ___acrt_locale_release_lc_time_reference 1000c088 f   libucrt:locale_refcounting.obj
 0001:0000b0b1       ___acrt_release_locale_ref 1000c0b1 f   libucrt:locale_refcounting.obj
 0001:0000b132       ___acrt_update_thread_locale_data 1000c132 f   libucrt:locale_refcounting.obj
 0001:0000b1a9       __updatetlocinfoEx_nolock  1000c1a9 f   libucrt:locale_refcounting.obj
 0001:0000b1f9       __isleadbyte_l             1000c1f9 f i libucrt:_wctype.obj
 0001:0000b421       ___acrt_LCMapStringA       1000c421 f   libucrt:lcmapstringa.obj
 0001:0000b46c       __freea_crt                1000c46c f i libucrt:lcmapstringa.obj
 0001:0000b48c       ___acrt_locale_free_monetary 1000c48c f   libucrt:initmon.obj
 0001:0000b58a       ___acrt_locale_free_numeric 1000c58a f   libucrt:initnum.obj
 0001:0000b62b       ___acrt_locale_free_time   1000c62b f   libucrt:inittime.obj
 0001:0000b70f       ___acrt_GetStringTypeA     1000c70f f   libucrt:getstringtypea.obj
 0001:0000b814       __query_new_mode           1000c814 f   libucrt:new_mode.obj
 0001:0000b860       _qsort                     1000c860 f   libucrt:qsort.obj
 0001:0000bd57       _strncpy_s                 1000cd57 f   libucrt:strncpy_s.obj
 0001:0000bd70       _strpbrk                   1000cd70 f   libucrt:strpbrk.obj
 0001:0000bdb0       __mbsdec                   1000cdb0 f   libucrt:mbsdec.obj
 0001:0000bdc7       __mbsdec_l                 1000cdc7 f   libucrt:mbsdec.obj
 0001:0000be65       __msize_base               1000ce65 f   libucrt:msize.obj
 0001:0000be98       __realloc_base             1000ce98 f   libucrt:realloc_base.obj
 0001:0000bf01       ___acrt_lowio_create_handle_array 1000cf01 f   libucrt:osfinfo.obj
 0001:0000bf7e       ___acrt_lowio_destroy_handle_array 1000cf7e f   libucrt:osfinfo.obj
 0001:0000bfb3       ___acrt_lowio_ensure_fh_exists 1000cfb3 f   libucrt:osfinfo.obj
 0001:0000c047       ___acrt_lowio_lock_fh      1000d047 f   libucrt:osfinfo.obj
 0001:0000c06a       ___acrt_lowio_unlock_fh    1000d06a f   libucrt:osfinfo.obj
 0001:0000c08d       __free_osfhnd              1000d08d f   libucrt:osfinfo.obj
 0001:0000c11e       __get_osfhandle            1000d11e f   libucrt:osfinfo.obj
 0001:0000c23c       ___acrt_DownlevelLocaleNameToLCID 1000d23c f   libucrt:lcidtoname_downlevel.obj
 0001:0000c300       __commit                   1000d300 f   libucrt:commit.obj
 0001:0000cb04       __write                    1000db04 f   libucrt:write.obj
 0001:0000cbec       __write_nolock             1000dbec f   libucrt:write.obj
 0001:0000cdd0       __fcloseall                1000ddd0 f   libucrt:closeall.obj
 0001:0000ce71       ___acrt_stdio_free_buffer_nolock 1000de71 f   libucrt:_freebuf.obj
 0001:0000ceb1       __isatty                   1000deb1 f   libucrt:isatty.obj
 0001:0000cf33       ?__mbrtowc_utf8@__crt_mbstring@@YAIPA_WPBDIPAU_Mbstatet@@@Z 1000df33 f   libucrt:mbrtowc.obj
 0001:0000cf75       ?__mbsrtowcs_utf8@__crt_mbstring@@YAIPA_WPAPBDIPAU_Mbstatet@@@Z 1000df75 f   libucrt:mbrtowc.obj
 0001:0000d072       ?return_illegal_sequence@__crt_mbstring@@YAIPAU_Mbstatet@@@Z 1000e072 f i libucrt:c32rtomb.obj
 0001:0000d091       ___strncnt                 1000e091 f   libucrt:strncnt.obj
 0001:0000d0ad       __query_app_type           1000e0ad f   libucrt:report_runtime_error.obj
 0001:0000d131       __lseeki64_nolock          1000e131 f   libucrt:lseek.obj
 0001:0000d14c       __putwch_nolock            1000e14c f   libucrt:putwch.obj
 0001:0000d180       __fclose_nolock            1000e180 f   libucrt:fclose.obj
 0001:0000d1f7       _fclose                    1000e1f7 f   libucrt:fclose.obj
 0001:0000d271       ?__mbrtoc32_utf8@__crt_mbstring@@YAIPA_UPBDIPAU_Mbstatet@@@Z 1000e271 f   libucrt:mbrtoc32.obj
 0001:0000d430       __CIlog10                  1000e430 f   libucrt:log10_impl.obj
 0001:0000d46b       __CIlog10_default          1000e46b f   libucrt:log10_impl.obj
 0001:0000d47f       __log10_default            1000e47f     libucrt:log10_impl.obj
 0001:0000d540       _ceil                      1000e540 f   libucrt:ceil_pentium4.obj
 0001:0000d580       __ceil_pentium4            1000e580 f   libucrt:ceil_pentium4.obj
 0001:0000d660       ___ascii_strnicmp          1000e660 f   libucrt:_strnicm.obj
 0001:0000d6e0       ___dcrt_lowio_ensure_console_output_initialized 1000e6e0 f   libucrt:initcon.obj
 0001:0000d6ff       ___dcrt_terminate_console_output 1000e6ff f   libucrt:initcon.obj
 0001:0000d716       ___dcrt_write_console      1000e716 f   libucrt:initcon.obj
 0001:0000d7ed       __close                    1000e7ed f   libucrt:close.obj
 0001:0000d87c       __close_nolock             1000e87c f   libucrt:close.obj
 0001:0000d918       ?__acrt_stdio_free_stream@@YAXV__crt_stdio_stream@@@Z 1000e918 f   libucrt:stream.obj
 0001:0000d953       ___acrt_initialize_sse2    1000e953 f   libucrt:mathfcns.obj
 0001:0000d970       __CIlog10_pentium4         1000e970 f   libucrt:log10_pentium4.obj
 0001:0000d988       __log10_pentium4           1000e988     libucrt:log10_pentium4.obj
 0001:0000dc20       __fFEXP                    1000ec20 f   libucrt:87tran.obj
 0001:0000dc77       __rtinfpopse               1000ec77     libucrt:87tran.obj
 0001:0000dc79       __rtinfnpopse              1000ec79     libucrt:87tran.obj
 0001:0000dc89       __fFLN                     1000ec89     libucrt:87tran.obj
 0001:0000dd3e       __rtinfpop                 1000ed3e     libucrt:87tran.obj
 0001:0000dd40       __rtinfnpop                1000ed40     libucrt:87tran.obj
 0001:0000dd50       __rtforexpinf              1000ed50 f   libucrt:87tran.obj
 0001:0000dd5d       __ffexpm1                  1000ed5d     libucrt:87tran.obj
 0001:0000de10       __trandisp1                1000ee10 f   libucrt:87disp.obj
 0001:0000de85       __trandisp2                1000ee85 f   libucrt:87disp.obj
 0001:0000df1f       __rttospopde               1000ef1f     libucrt:87disp.obj
 0001:0000df24       __rttospop                 1000ef24     libucrt:87disp.obj
 0001:0000df30       __rtnospop                 1000ef30 f   libucrt:87disp.obj
 0001:0000df40       __rttosnpop                1000ef40 f   libucrt:87disp.obj
 0001:0000df41       __rtnospopde               1000ef41     libucrt:87disp.obj
 0001:0000df48       __rtzeropop                1000ef48     libucrt:87disp.obj
 0001:0000df4a       __rtzeronpop               1000ef4a     libucrt:87disp.obj
 0001:0000df50       __rtzerospop               1000ef50 f   libucrt:87disp.obj
 0001:0000df5d       __rtonepop                 1000ef5d     libucrt:87disp.obj
 0001:0000df60       __rtonenpop                1000ef60 f   libucrt:87disp.obj
 0001:0000df70       __tosnan1                  1000ef70 f   libucrt:87disp.obj
 0001:0000dfa0       __nosnan2                  1000efa0 f   libucrt:87disp.obj
 0001:0000dfb0       __tosnan2                  1000efb0 f   libucrt:87disp.obj
 0001:0000dfe0       __nan2                     1000efe0 f   libucrt:87disp.obj
 0001:0000e020       __rtindfpop                1000f020 f   libucrt:87disp.obj
 0001:0000e022       __rtindfnpop               1000f022     libucrt:87disp.obj
 0001:0000e033       __rttosnpopde              1000f033     libucrt:87disp.obj
 0001:0000e040       __rtatan2inf               1000f040 f   libucrt:87disp.obj
 0001:0000e05d       __rtchsifneg               1000f05d     libucrt:87disp.obj
 0001:0000e070       __twoToTOS                 1000f070 f   libucrt:common.obj
 0001:0000e085       __load_CW                  1000f085 f   libucrt:common.obj
 0001:0000e09c       __convertTOStoQNaN         1000f09c f   libucrt:common.obj
 0001:0000e0b5       __fload_withFB             1000f0b5 f   libucrt:common.obj
 0001:0000e0f8       __checkTOS_withFB          1000f0f8 f   libucrt:common.obj
 0001:0000e10e       __fast_exit                1000f10e f   libucrt:common.obj
 0001:0000e11b       __math_exit                1000f11b f   libucrt:common.obj
 0001:0000e145       __check_overflow_exit      1000f145 f   libucrt:common.obj
 0001:0000e159       __check_range_exit         1000f159 f   libucrt:common.obj
 0001:0000e200       __startTwoArgErrorHandling 1000f200 f   libucrt:genexcep.obj
 0001:0000e217       __startOneArgErrorHandling 1000f217 f   libucrt:genexcep.obj
 0001:0000e253       ___libm_error_support      1000f253 f   libucrt:libm_error.obj
 0001:0000e449       __ceil_default             1000f449 f   libucrt:ceil.obj
 0001:0000e500       __clrfp                    1000f500 f   libucrt:fpctrl.obj
 0001:0000e513       __ctrlfp                   1000f513 f   libucrt:fpctrl.obj
 0001:0000e53f       __set_statfp               1000f53f f   libucrt:fpctrl.obj
 0001:0000e59a       __statfp                   1000f59a f   libucrt:fpctrl.obj
 0001:0000e5ac       __d_inttype                1000f5ac f   libucrt:powhlp.obj
 0001:0000e616       __powhlp                   1000f616 f   libucrt:powhlp.obj
 0001:0000e741       __87except                 1000f741 f   libucrt:87except.obj
 0001:0000e84b       __frnd                     1000f84b f   libucrt:frnd.obj
 0001:0000e861       __errcode                  1000f861 f   libucrt:fpexcept.obj
 0001:0000e895       __except1                  1000f895 f   libucrt:fpexcept.obj
 0001:0000e963       __handle_exc               1000f963 f   libucrt:fpexcept.obj
 0001:0000eb50       __raise_exc                1000fb50 f   libucrt:fpexcept.obj
 0001:0000eb73       __raise_exc_ex             1000fb73 f   libucrt:fpexcept.obj
 0001:0000ee69       __set_errno_from_matherr   1000fe69 f   libucrt:fpexcept.obj
 0001:0000ee98       __umatherr                 1000fe98 f   libucrt:fpexcept.obj
 0001:0000ef3a       __decomp                   1000ff3a f   libucrt:util.obj
 0001:0000f018       __set_exp                  10010018 f   libucrt:util.obj
 0001:0000f047       __sptype                   10010047 f   libucrt:util.obj
 0001:0000f0a5       __fpclass                  100100a5 f   libucrt:ieeemisc.obj
 0001:0000f149       _IsProcessorFeaturePresent@4 10010149 f   kernel32:KERNEL32.dll
 0001:0000f14f       ?DloadAcquireSectionWriteAccess@@YGXXZ 1001014f f i DelayImp:delayhlp.obj
 0001:0000f182       ?DloadGetSRWLockFunctionPointers@@YGEXZ 10010182 f i DelayImp:delayhlp.obj
 0001:0000f1f5       ?DloadLock@@YGXXZ          100101f5 f i DelayImp:delayhlp.obj
 0001:0000f234       ?DloadMakePermanentImageCommit@@YGXPAXK@Z 10010234 f i DelayImp:delayhlp.obj
 0001:0000f2a3       ?DloadObtainSection@@YGPAXPAK0@Z 100102a3 f i DelayImp:delayhlp.obj
 0001:0000f31e       ?DloadProtectSection@@YGXKPAK@Z 1001031e f i DelayImp:delayhlp.obj
 0001:0000f38c       ?DloadReleaseSectionWriteAccess@@YGXXZ 1001038c f i DelayImp:delayhlp.obj
 0001:0000f3c2       ?DloadUnlock@@YGXXZ        100103c2 f i DelayImp:delayhlp.obj
 0001:0000f3ee       ___delayLoadHelper2@8      100103ee f   DelayImp:delayhlp.obj
 0001:0000f660       __FindPESection            10010660 f   LIBCMT:pesect.obj
 0001:0000f6b0       __IsNonwritableInCurrentImage 100106b0 f   LIBCMT:pesect.obj
 0001:0000f770       __ValidateImageBase        10010770 f   LIBCMT:pesect.obj
 0001:0000f7b0       __aulldvrm                 100107b0 f   LIBCMT:ulldvrm.obj
 0001:0000f850       __allmul                   10010850 f   LIBCMT:llmul.obj
 0001:0000f890       __alldvrm                  10010890 f   LIBCMT:lldvrm.obj
 0001:0000f970       __aullshr                  10010970 f   LIBCMT:ullshr.obj
 0001:0000f990       __alloca_probe_16          10010990 f   LIBCMT:alloca16.obj
 0001:0000f9a6       __alloca_probe_8           100109a6     LIBCMT:alloca16.obj
 0001:0000f9c0       __alloca_probe             100109c0 f   LIBCMT:chkstk.obj
 0001:0000f9c0       __chkstk                   100109c0 f   LIBCMT:chkstk.obj
 0001:0000f9f0       __allshl                   100109f0 f   LIBCMT:llshl.obj
 0001:0000fa10       __ftol2_sse                10010a10 f   LIBCMT:ftol2.obj
 0001:0000fa19       __ftol2_pentium4           10010a19 f   LIBCMT:ftol2.obj
 0001:0000fa2c       __ftol2_sse_excpt          10010a2c f   LIBCMT:ftol2.obj
 0001:0000fa50       __ftol2                    10010a50 f   LIBCMT:ftol2.obj
 0001:0000fad0       _strchr                    10010ad0 f   libvcruntime:strchr.obj
 0001:0000fb3e       ___from_strstr_to_strchr   10010b3e     libvcruntime:strchr.obj
 0001:0000fc00       _strrchr                   10010c00 f   libvcruntime:strrchr.obj
 0001:0000fd50       __ftoui3                   10010d50 f   LIBCMT:ftol3.obj
 0001:0000fd5f       __ftoul3                   10010d5f f   LIBCMT:ftol3.obj
 0001:0000fd6e       __ftol3                    10010d6e f   LIBCMT:ftol3.obj
 0001:0000fd7b       __ftol3_NaN                10010d7b f   LIBCMT:ftol3.obj
 0001:0000fd93       __ftol3_work               10010d93 f   LIBCMT:ftol3.obj
 0001:0000fe19       __ftol3_common             10010e19 f   LIBCMT:ftol3.obj
 0001:0000fedb       __ftol3_arg_error          10010edb f   LIBCMT:ftol3.obj
 0001:0000feed       __ftol3_except             10010eed f   LIBCMT:ftol3.obj
 0001:0000ff31       __dtoui3                   10010f31 f   LIBCMT:ftol3.obj
 0001:0000ff40       __dtoul3                   10010f40 f   LIBCMT:ftol3.obj
 0001:0000ff4f       __dtol3                    10010f4f f   LIBCMT:ftol3.obj
 0001:0000ff5c       __dtol3_NaN                10010f5c f   LIBCMT:ftol3.obj
 0001:0000ff79       __dtol3_work               10010f79 f   LIBCMT:ftol3.obj
 0001:00010060       __ultod3                   10011060 f   LIBCMT:ftol3.obj
 0001:000100a0       __ltod3                    100110a0 f   LIBCMT:ftol3.obj
 0002:00000000       __imp__WriteProcessMemory@20 10012000     kernel32:KERNEL32.dll
 0002:00000004       __imp__GetProcessId@4      10012004     kernel32:KERNEL32.dll
 0002:00000008       __imp__VirtualProtectEx@20 10012008     kernel32:KERNEL32.dll
 0002:0000000c       __imp__ReadProcessMemory@20 1001200c     kernel32:KERNEL32.dll
 0002:00000010       __imp__Process32First@8    10012010     kernel32:KERNEL32.dll
 0002:00000014       __imp__OpenProcess@12      10012014     kernel32:KERNEL32.dll
 0002:00000018       __imp__CreateToolhelp32Snapshot@8 10012018     kernel32:KERNEL32.dll
 0002:0000001c       __imp__Process32Next@8     1001201c     kernel32:KERNEL32.dll
 0002:00000020       __imp__CloseHandle@4       10012020     kernel32:KERNEL32.dll
 0002:00000024       __imp__Module32Next@8      10012024     kernel32:KERNEL32.dll
 0002:00000028       __imp__Module32First@8     10012028     kernel32:KERNEL32.dll
 0002:0000002c       __imp__GetModuleHandleA@4  1001202c     kernel32:KERNEL32.dll
 0002:00000030       __imp__VirtualQuery@12     10012030     kernel32:KERNEL32.dll
 0002:00000034       __imp__UnhandledExceptionFilter@4 10012034     kernel32:KERNEL32.dll
 0002:00000038       __imp__SetUnhandledExceptionFilter@4 10012038     kernel32:KERNEL32.dll
 0002:0000003c       __imp__GetCurrentProcess@0 1001203c     kernel32:KERNEL32.dll
 0002:00000040       __imp__TerminateProcess@8  10012040     kernel32:KERNEL32.dll
 0002:00000044       __imp__IsProcessorFeaturePresent@4 10012044     kernel32:KERNEL32.dll
 0002:00000048       __imp__IsDebuggerPresent@0 10012048     kernel32:KERNEL32.dll
 0002:0000004c       __imp__GetStartupInfoW@4   1001204c     kernel32:KERNEL32.dll
 0002:00000050       __imp__GetModuleHandleW@4  10012050     kernel32:KERNEL32.dll
 0002:00000054       __imp__QueryPerformanceCounter@4 10012054     kernel32:KERNEL32.dll
 0002:00000058       __imp__GetCurrentProcessId@0 10012058     kernel32:KERNEL32.dll
 0002:0000005c       __imp__GetCurrentThreadId@0 1001205c     kernel32:KERNEL32.dll
 0002:00000060       __imp__GetSystemTimeAsFileTime@4 10012060     kernel32:KERNEL32.dll
 0002:00000064       __imp__InitializeSListHead@4 10012064     kernel32:KERNEL32.dll
 0002:00000068       __imp__RaiseException@16   10012068     kernel32:KERNEL32.dll
 0002:0000006c       __imp__InterlockedFlushSList@4 1001206c     kernel32:KERNEL32.dll
 0002:00000070       __imp__GetLastError@0      10012070     kernel32:KERNEL32.dll
 0002:00000074       __imp__SetLastError@4      10012074     kernel32:KERNEL32.dll
 0002:00000078       __imp__EnterCriticalSection@4 10012078     kernel32:KERNEL32.dll
 0002:0000007c       __imp__LeaveCriticalSection@4 1001207c     kernel32:KERNEL32.dll
 0002:00000080       __imp__DeleteCriticalSection@4 10012080     kernel32:KERNEL32.dll
 0002:00000084       __imp__InitializeCriticalSectionAndSpinCount@8 10012084     kernel32:KERNEL32.dll
 0002:00000088       __imp__TlsAlloc@0          10012088     kernel32:KERNEL32.dll
 0002:0000008c       __imp__TlsGetValue@4       1001208c     kernel32:KERNEL32.dll
 0002:00000090       __imp__TlsSetValue@8       10012090     kernel32:KERNEL32.dll
 0002:00000094       __imp__TlsFree@4           10012094     kernel32:KERNEL32.dll
 0002:00000098       __imp__FreeLibrary@4       10012098     kernel32:KERNEL32.dll
 0002:0000009c       __imp__GetProcAddress@8    1001209c     kernel32:KERNEL32.dll
 0002:000000a0       __imp__LoadLibraryExW@12   100120a0     kernel32:KERNEL32.dll
 0002:000000a4       __imp__RtlUnwind@16        100120a4     kernel32:KERNEL32.dll
 0002:000000a8       __imp__ExitProcess@4       100120a8     kernel32:KERNEL32.dll
 0002:000000ac       __imp__GetModuleHandleExW@12 100120ac     kernel32:KERNEL32.dll
 0002:000000b0       __imp__GetModuleFileNameW@12 100120b0     kernel32:KERNEL32.dll
 0002:000000b4       __imp__HeapAlloc@12        100120b4     kernel32:KERNEL32.dll
 0002:000000b8       __imp__HeapFree@12         100120b8     kernel32:KERNEL32.dll
 0002:000000bc       __imp__FindClose@4         100120bc     kernel32:KERNEL32.dll
 0002:000000c0       __imp__FindFirstFileExW@24 100120c0     kernel32:KERNEL32.dll
 0002:000000c4       __imp__FindNextFileW@8     100120c4     kernel32:KERNEL32.dll
 0002:000000c8       __imp__IsValidCodePage@4   100120c8     kernel32:KERNEL32.dll
 0002:000000cc       __imp__GetACP@0            100120cc     kernel32:KERNEL32.dll
 0002:000000d0       __imp__GetOEMCP@0          100120d0     kernel32:KERNEL32.dll
 0002:000000d4       __imp__GetCPInfo@8         100120d4     kernel32:KERNEL32.dll
 0002:000000d8       __imp__GetCommandLineA@0   100120d8     kernel32:KERNEL32.dll
 0002:000000dc       __imp__GetCommandLineW@0   100120dc     kernel32:KERNEL32.dll
 0002:000000e0       __imp__MultiByteToWideChar@24 100120e0     kernel32:KERNEL32.dll
 0002:000000e4       __imp__WideCharToMultiByte@32 100120e4     kernel32:KERNEL32.dll
 0002:000000e8       __imp__GetEnvironmentStringsW@0 100120e8     kernel32:KERNEL32.dll
 0002:000000ec       __imp__FreeEnvironmentStringsW@4 100120ec     kernel32:KERNEL32.dll
 0002:000000f0       __imp__GetStdHandle@4      100120f0     kernel32:KERNEL32.dll
 0002:000000f4       __imp__GetFileType@4       100120f4     kernel32:KERNEL32.dll
 0002:000000f8       __imp__LCMapStringW@24     100120f8     kernel32:KERNEL32.dll
 0002:000000fc       __imp__GetProcessHeap@0    100120fc     kernel32:KERNEL32.dll
 0002:00000100       __imp__GetStringTypeW@16   10012100     kernel32:KERNEL32.dll
 0002:00000104       __imp__HeapSize@12         10012104     kernel32:KERNEL32.dll
 0002:00000108       __imp__HeapReAlloc@16      10012108     kernel32:KERNEL32.dll
 0002:0000010c       __imp__SetStdHandle@8      1001210c     kernel32:KERNEL32.dll
 0002:00000110       __imp__FlushFileBuffers@4  10012110     kernel32:KERNEL32.dll
 0002:00000114       __imp__WriteFile@20        10012114     kernel32:KERNEL32.dll
 0002:00000118       __imp__GetConsoleCP@0      10012118     kernel32:KERNEL32.dll
 0002:0000011c       __imp__GetConsoleMode@8    1001211c     kernel32:KERNEL32.dll
 0002:00000120       __imp__SetFilePointerEx@20 10012120     kernel32:KERNEL32.dll
 0002:00000124       __imp__CreateFileW@28      10012124     kernel32:KERNEL32.dll
 0002:00000128       __imp__WriteConsoleW@20    10012128     kernel32:KERNEL32.dll
 0002:0000012c       __imp__DecodePointer@4     1001212c     kernel32:KERNEL32.dll
 0002:00000130       __imp__GetSystemInfo@4     10012130     kernel32:KERNEL32.dll
 0002:00000134       __imp__VirtualProtect@16   10012134     kernel32:KERNEL32.dll
 0002:00000138       __imp__LoadLibraryExA@12   10012138     kernel32:KERNEL32.dll
 0002:0000013c       \177KERNEL32_NULL_THUNK_DATA 1001213c     kernel32:KERNEL32.dll
 0002:00000140       ___guard_check_icall_fptr  10012140     LIBCMT:guard_support.obj
 0002:00000144       ___xc_a                    10012144     LIBCMT:initializers.obj
 0002:00000154       __register_memoryjs_       10012154     memoryjs.obj
 0002:00000158       ___xc_z                    10012158     LIBCMT:initializers.obj
 0002:0000015c       ___xi_a                    1001215c     LIBCMT:initializers.obj
 0002:00000160       ___acrt_multibyte_initializer 10012160     libucrt:multibyte_initializer.obj
 0002:00000164       ___acrt_stdio_initializer  10012164     libucrt:stdio_initializer.obj
 0002:00000168       ___acrt_tran_sse2_initializer 10012168     libucrt:sse2_initializer.obj
 0002:0000016c       ___xi_z                    1001216c     LIBCMT:initializers.obj
 0002:00000170       ___xp_a                    10012170     LIBCMT:initializers.obj
 0002:00000174       ___acrt_locale_terminator  10012174     libucrt:locale_initializer.obj
 0002:00000178       ___dcrt_console_output_terminator 10012178     libucrt:console_output_initializer.obj
 0002:0000017c       ___acrt_stdio_terminator   1001217c     libucrt:stdio_initializer.obj
 0002:00000180       ___xp_z                    10012180     LIBCMT:initializers.obj
 0002:00000184       ___xt_a                    10012184     LIBCMT:initializers.obj
 0002:00000188       ___xt_z                    10012188     LIBCMT:initializers.obj
 0002:00000190       __sz_node_exe              10012190     node:node.exe
 0002:000001a0       ??_7exception@std@@6B@     100121a0     libcpmt:xthrow.obj
 0002:000001a8       ??_C@_0BC@EOODALEL@Unknown?5exception@ 100121a8     libcpmt:xthrow.obj
 0002:000001c0       ??_7bad_alloc@std@@6B@     100121c0     libcpmt:xthrow.obj
 0002:000001c8       ??_C@_0P@GHFPNOJB@bad?5allocation@ 100121c8     libcpmt:xthrow.obj
 0002:000001dc       ??_7logic_error@std@@6B@   100121dc     libcpmt:xthrow.obj
 0002:000001e8       ??_7length_error@std@@6B@  100121e8     libcpmt:xthrow.obj
 0002:000001f4       ??_7out_of_range@std@@6B@  100121f4     libcpmt:xthrow.obj
 0002:000001fc       __pRawDllMain              100121fc     LIBCMT:dll_dllmain.obj
 0002:000001fc       __pDefaultRawDllMain       100121fc     LIBCMT:dll_dllmain.obj
 0002:00000204       ??_7type_info@@6B@         10012204     LIBCMT:std_type_info_static.obj
 0002:00000214       ??_7bad_array_new_length@std@@6B@ 10012214     LIBCMT:throw_bad_alloc.obj
 0002:0000021c       ??_C@_0BF@KINCDENJ@bad?5array?5new?5length@ 1001221c     LIBCMT:throw_bad_alloc.obj
 0002:00000260       ??_C@_1DM@KHCHBNEB@?$AAa?$AAp?$AAi?$AA?9?$AAm?$AAs?$AA?9?$AAw?$AAi?$AAn?$AA?9?$AAc?$AAo?$AAr?$AAe@ 10012260     libvcruntime:winapi_downlevel.obj
 0002:0000029c       ??_C@_1DK@LPPGFMPP@?$AAa?$AAp?$AAi?$AA?9?$AAm?$AAs?$AA?9?$AAw?$AAi?$AAn?$AA?9?$AAc?$AAo?$AAr?$AAe@ 1001229c     libvcruntime:winapi_downlevel.obj
 0002:000002d8       ??_C@_1BC@GDMECMAK@?$AAk?$AAe?$AAr?$AAn?$AAe?$AAl?$AA3?$AA2@ 100122d8     libvcruntime:winapi_downlevel.obj
 0002:000002ec       ??_C@_1BA@PFFKHIOG@?$AAa?$AAp?$AAi?$AA?9?$AAm?$AAs?$AA?9@ 100122ec     libvcruntime:winapi_downlevel.obj
 0002:000002fc       ??_C@_1BA@IAIFMGEF@?$AAe?$AAx?$AAt?$AA?9?$AAm?$AAs?$AA?9@ 100122fc     libvcruntime:winapi_downlevel.obj
 0002:00000314       ??_C@_08KNHFBNJ@FlsAlloc@  10012314     libvcruntime:winapi_downlevel.obj
 0002:00000328       ??_C@_07PEJMOBNF@FlsFree@  10012328     libvcruntime:winapi_downlevel.obj
 0002:00000338       ??_C@_0M@GDNOONDI@FlsGetValue@ 10012338     libvcruntime:winapi_downlevel.obj
 0002:0000034c       ??_C@_0M@JCPCPOEF@FlsSetValue@ 1001234c     libvcruntime:winapi_downlevel.obj
 0002:00000360       ??_C@_0BM@HCFOFFN@InitializeCriticalSectionEx@ 10012360     libvcruntime:winapi_downlevel.obj
 0002:0000051c       ??_C@_08EHJDFFNH@__based?$CI@ 1001251c     libvcruntime:undname.obj
 0002:00000528       ??_C@_07KOLFKCDI@__cdecl@  10012528     libvcruntime:undname.obj
 0002:00000530       ??_C@_08GHMPAG@__pascal@   10012530     libvcruntime:undname.obj
 0002:0000053c       ??_C@_09IFJBGAPI@__stdcall@ 1001253c     libvcruntime:undname.obj
 0002:00000548       ??_C@_0L@NPHFGOKO@__thiscall@ 10012548     libvcruntime:undname.obj
 0002:00000554       ??_C@_0L@JMKHOMEK@__fastcall@ 10012554     libvcruntime:undname.obj
 0002:00000560       ??_C@_0N@BCKKPABJ@__vectorcall@ 10012560     libvcruntime:undname.obj
 0002:00000570       ??_C@_09HIJEGCPM@__clrcall@ 10012570     libvcruntime:undname.obj
 0002:0000057c       ??_C@_06GHPCKEAG@__eabi@   1001257c     libvcruntime:undname.obj
 0002:00000584       ??_C@_09IOPIDJLG@__swift_1@ 10012584     libvcruntime:undname.obj
 0002:00000590       ??_C@_09KFNFGKHF@__swift_2@ 10012590     libvcruntime:undname.obj
 0002:0000059c       ??_C@_07JOMMBBKO@__ptr64@  1001259c     libvcruntime:undname.obj
 0002:000005a4       ??_C@_0L@PILCLIHE@__restrict@ 100125a4     libvcruntime:undname.obj
 0002:000005b0       ??_C@_0M@GFIIJFMG@__unaligned@ 100125b0     libvcruntime:undname.obj
 0002:000005bc       ??_C@_09DHDLOLLB@restrict?$CI@ 100125bc     libvcruntime:undname.obj
 0002:000005c8       ??_C@_04NIHEBCM@?5new@     100125c8     libvcruntime:undname.obj
 0002:000005d0       ??_C@_07FPCDHGMM@?5delete@ 100125d0     libvcruntime:undname.obj
 0002:000005d8       ??_C@_01NEMOKFLO@?$DN@     100125d8     libvcruntime:undname.obj
 0002:000005dc       ??_C@_02GPIOPFAK@?$DO?$DO@ 100125dc     libvcruntime:undname.obj
 0002:000005e0       ??_C@_02FODMEDOG@?$DM?$DM@ 100125e0     libvcruntime:undname.obj
 0002:000005e4       ??_C@_01DCLJPIOD@?$CB@     100125e4     libvcruntime:undname.obj
 0002:000005e8       ??_C@_02EGOFBIJA@?$DN?$DN@ 100125e8     libvcruntime:undname.obj
 0002:000005ec       ??_C@_02FDNJECIE@?$CB?$DN@ 100125ec     libvcruntime:undname.obj
 0002:000005f0       ??_C@_02GPECMEKF@?$FL?$FN@ 100125f0     libvcruntime:undname.obj
 0002:000005f4       ??_C@_08LHJFAFGD@operator@ 100125f4     libvcruntime:undname.obj
 0002:00000600       ??_C@_02HBOOOICD@?9?$DO@   10012600     libvcruntime:undname.obj
 0002:00000604       ??_C@_01NBENCBCI@?$CK@     10012604     libvcruntime:undname.obj
 0002:00000608       ??_C@_02ECNGHCIF@?$CL?$CL@ 10012608     libvcruntime:undname.obj
 0002:0000060c       ??_C@_02BAABKJLB@?9?9@     1001260c     libvcruntime:undname.obj
 0002:00000610       ??_C@_01JOAMLHOP@?9@       10012610     libvcruntime:undname.obj
 0002:00000614       ??_C@_01MIFGBAGJ@?$CL@     10012614     libvcruntime:undname.obj
 0002:00000618       ??_C@_01HNPIGOCE@?$CG@     10012618     libvcruntime:undname.obj
 0002:0000061c       ??_C@_03MNHNFDLC@?9?$DO?$CK@ 1001261c     libvcruntime:undname.obj
 0002:00000620       ??_C@_01KMDKNFGN@?1@       10012620     libvcruntime:undname.obj
 0002:00000624       ??_C@_01FGNFDNOH@?$CF@     10012624     libvcruntime:undname.obj
 0002:00000628       ??_C@_01MNNFJEPP@?$DM@     10012628     libvcruntime:undname.obj
 0002:0000062c       ??_C@_02EHCHHCKH@?$DM?$DN@ 1001262c     libvcruntime:undname.obj
 0002:00000630       ??_C@_01PPODPGHN@?$DO@     10012630     libvcruntime:undname.obj
 0002:00000634       ??_C@_02EEKDKGMJ@?$DO?$DN@ 10012634     libvcruntime:undname.obj
 0002:00000638       ??_C@_01IHBHIGKO@?0@       10012638     libvcruntime:undname.obj
 0002:0000063c       ??_C@_02HCKGKOFO@?$CI?$CJ@ 1001263c     libvcruntime:undname.obj
 0002:00000640       ??_C@_01PJKLJHI@?$HO@      10012640     libvcruntime:undname.obj
 0002:00000644       ??_C@_01JKBOJNNK@?$FO@     10012644     libvcruntime:undname.obj
 0002:00000648       ??_C@_01DNKMNLPK@?$HM@     10012648     libvcruntime:undname.obj
 0002:0000064c       ??_C@_02PPKAJPJL@?$CG?$CG@ 1001264c     libvcruntime:undname.obj
 0002:00000650       ??_C@_02NONPIBCD@?$HM?$HM@ 10012650     libvcruntime:undname.obj
 0002:00000654       ??_C@_02FPIMKNGF@?$CK?$DN@ 10012654     libvcruntime:undname.obj
 0002:00000658       ??_C@_02FOEOMHFC@?$CL?$DN@ 10012658     libvcruntime:undname.obj
 0002:0000065c       ??_C@_02FKMDLLOA@?9?$DN@   1001265c     libvcruntime:undname.obj
 0002:00000660       ??_C@_02FJEHGPIO@?1?$DN@   10012660     libvcruntime:undname.obj
 0002:00000664       ??_C@_02FENAOKFI@?$CF?$DN@ 10012664     libvcruntime:undname.obj
 0002:00000668       ??_C@_03IKFCCPFF@?$DO?$DO?$DN@ 10012668     libvcruntime:undname.obj
 0002:0000066c       ??_C@_03CDNPDDLA@?$DM?$DM?$DN@ 1001266c     libvcruntime:undname.obj
 0002:00000670       ??_C@_02FGJGFEAB@?$CG?$DN@ 10012670     libvcruntime:undname.obj
 0002:00000674       ??_C@_02DHLNPPGH@?$HM?$DN@ 10012674     libvcruntime:undname.obj
 0002:00000678       ??_C@_02MHEGNOJ@?$FO?$DN@  10012678     libvcruntime:undname.obj
 0002:0000067c       ??_C@_09IFPLHPGF@?$GAvftable?8@ 1001267c     libvcruntime:undname.obj
 0002:00000688       ??_C@_09BLBHBJP@?$GAvbtable?8@ 10012688     libvcruntime:undname.obj
 0002:00000694       ??_C@_07FEEIOKP@?$GAvcall?8@ 10012694     libvcruntime:undname.obj
 0002:0000069c       ??_C@_08LLFFHHDJ@?$GAtypeof?8@ 1001269c     libvcruntime:undname.obj
 0002:000006a8       ??_C@_0BF@KDPPACIK@?$GAlocal?5static?5guard?8@ 100126a8     libvcruntime:undname.obj
 0002:000006c0       ??_C@_08OBABFOLI@?$GAstring?8@ 100126c0     libvcruntime:undname.obj
 0002:000006cc       ??_C@_0BD@JDLKDPAB@?$GAvbase?5destructor?8@ 100126cc     libvcruntime:undname.obj
 0002:000006e0       ??_C@_0BN@DEGPLNFK@?$GAvector?5deleting?5destructor?8@ 100126e0     libvcruntime:undname.obj
 0002:00000700       ??_C@_0BO@OBMKPJIG@?$GAdefault?5constructor?5closure?8@ 10012700     libvcruntime:undname.obj
 0002:00000720       ??_C@_0BN@IMDCHIKM@?$GAscalar?5deleting?5destructor?8@ 10012720     libvcruntime:undname.obj
 0002:00000740       ??_C@_0BO@PFGOCPJJ@?$GAvector?5constructor?5iterator?8@ 10012740     libvcruntime:undname.obj
 0002:00000760       ??_C@_0BN@LFPFMEDL@?$GAvector?5destructor?5iterator?8@ 10012760     libvcruntime:undname.obj
 0002:00000780       ??_C@_0CE@IKBNEHA@?$GAvector?5vbase?5constructor?5itera@ 10012780     libvcruntime:undname.obj
 0002:000007a4       ??_C@_0BL@NILFHHPC@?$GAvirtual?5displacement?5map?8@ 100127a4     libvcruntime:undname.obj
 0002:000007c0       ??_C@_0CB@JONCMFFK@?$GAeh?5vector?5constructor?5iterator@ 100127c0     libvcruntime:undname.obj
 0002:000007e4       ??_C@_0CA@GCEOPDGL@?$GAeh?5vector?5destructor?5iterator?8@ 100127e4     libvcruntime:undname.obj
 0002:00000804       ??_C@_0CH@OOJPLCPH@?$GAeh?5vector?5vbase?5constructor?5it@ 10012804     libvcruntime:undname.obj
 0002:0000082c       ??_C@_0BL@LLKPOHJI@?$GAcopy?5constructor?5closure?8@ 1001282c     libvcruntime:undname.obj
 0002:00000848       ??_C@_0BA@KBCDOMBN@?$GAudt?5returning?8@ 10012848     libvcruntime:undname.obj
 0002:00000858       ??_C@_03KLGMFNMG@?$GAEH@   10012858     libvcruntime:undname.obj
 0002:0000085c       ??_C@_05KHLCHHI@?$GARTTI@  1001285c     libvcruntime:undname.obj
 0002:00000864       ??_C@_0BA@KKLDJDLB@?$GAlocal?5vftable?8@ 10012864     libvcruntime:undname.obj
 0002:00000874       ??_C@_0CE@IIHCMGGL@?$GAlocal?5vftable?5constructor?5clos@ 10012874     libvcruntime:undname.obj
 0002:00000898       ??_C@_06FHBGPFGH@?5new?$FL?$FN@ 10012898     libvcruntime:undname.obj
 0002:000008a0       ??_C@_09LBNFPBCA@?5delete?$FL?$FN@ 100128a0     libvcruntime:undname.obj
 0002:000008ac       ??_C@_0P@HJKNJFNN@?$GAomni?5callsig?8@ 100128ac     libvcruntime:undname.obj
 0002:000008bc       ??_C@_0BL@CNOONJFP@?$GAplacement?5delete?5closure?8@ 100128bc     libvcruntime:undname.obj
 0002:000008d8       ??_C@_0BN@CKNJLHMB@?$GAplacement?5delete?$FL?$FN?5closure?8@ 100128d8     libvcruntime:undname.obj
 0002:000008f8       ??_C@_0CG@CFDHKGGD@?$GAmanaged?5vector?5constructor?5ite@ 100128f8     libvcruntime:undname.obj
 0002:00000920       ??_C@_0CF@IMGKMJNO@?$GAmanaged?5vector?5destructor?5iter@ 10012920     libvcruntime:undname.obj
 0002:00000948       ??_C@_0CG@HLDDJMAG@?$GAeh?5vector?5copy?5constructor?5ite@ 10012948     libvcruntime:undname.obj
 0002:00000970       ??_C@_0CM@FCBBDIGB@?$GAeh?5vector?5vbase?5copy?5construct@ 10012970     libvcruntime:undname.obj
 0002:0000099c       ??_C@_0BL@CLIPGLGB@?$GAdynamic?5initializer?5for?5?8@ 1001299c     libvcruntime:undname.obj
 0002:000009b8       ??_C@_0CB@PDBIFEP@?$GAdynamic?5atexit?5destructor?5for?5@ 100129b8     libvcruntime:undname.obj
 0002:000009dc       ??_C@_0CD@CGAJBKEJ@?$GAvector?5copy?5constructor?5iterat@ 100129dc     libvcruntime:undname.obj
 0002:00000a00       ??_C@_0CJ@GJELGAMM@?$GAvector?5vbase?5copy?5constructor?5@ 10012a00     libvcruntime:undname.obj
 0002:00000a2c       ??_C@_0CL@FGIJHLCE@?$GAmanaged?5vector?5copy?5constructo@ 10012a2c     libvcruntime:undname.obj
 0002:00000a58       ??_C@_0BM@PMGGMLDN@?$GAlocal?5static?5thread?5guard?8@ 10012a58     libvcruntime:undname.obj
 0002:00000a74       ??_C@_0N@BDNMDMOL@operator?5?$CC?$CC?5@ 10012a74     libvcruntime:undname.obj
 0002:00000a84       ??_C@_0BC@GGEBGALA@operator?5co_await@ 10012a84     libvcruntime:undname.obj
 0002:00000a98       ??_C@_0BC@DAFEJGAK@?5Type?5Descriptor?8@ 10012a98     libvcruntime:undname.obj
 0002:00000aac       ??_C@_0BM@LDKODKLH@?5Base?5Class?5Descriptor?5at?5?$CI@ 10012aac     libvcruntime:undname.obj
 0002:00000ac8       ??_C@_0BD@LGICGFMM@?5Base?5Class?5Array?8@ 10012ac8     libvcruntime:undname.obj
 0002:00000adc       ??_C@_0BN@MECKDCOJ@?5Class?5Hierarchy?5Descriptor?8@ 10012adc     libvcruntime:undname.obj
 0002:00000afc       ??_C@_0BK@CFCOFLF@?5Complete?5Object?5Locator?8@ 10012afc     libvcruntime:undname.obj
 0002:00000b18       __pDestructExceptionObject 10012b18     libvcruntime:ehhelpers.obj
 0002:00000b20       ___acrt_exception_action_table 10012b20     libucrt:exception_filter.obj
 0002:00000bb0       ___acrt_signal_action_table_count 10012bb0     libucrt:exception_filter.obj
 0002:00000bb4       ___acrt_signal_action_first_fpe_index 10012bb4     libucrt:exception_filter.obj
 0002:00000bb8       ___acrt_signal_action_fpe_count 10012bb8     libucrt:exception_filter.obj
 0002:00000bbc       ??_C@_1BI@BGOHAHKC@?$AAm?$AAs?$AAc?$AAo?$AAr?$AAe?$AAe?$AA?4?$AAd?$AAl?$AAl?$AA?$AA@ 10012bbc     libucrt:exit.obj
 0002:00000bd4       ??_C@_0P@MIGLKIOC@CorExitProcess?$AA@ 10012bd4     libucrt:exit.obj
 0002:00000dd0       ___lc_time_c               10012dd0     libucrt:nlsdata.obj
 0002:00000f34       ??_C@_03KOEHGMDN@Sun?$AA@  10012f34     libucrt:nlsdata.obj
 0002:00000f38       ??_C@_03PDAGKDH@Mon?$AA@   10012f38     libucrt:nlsdata.obj
 0002:00000f3c       ??_C@_03NAGEINEP@Tue?$AA@  10012f3c     libucrt:nlsdata.obj
 0002:00000f40       ??_C@_03MHOMLAJA@Wed?$AA@  10012f40     libucrt:nlsdata.obj
 0002:00000f44       ??_C@_03IOFIKPDN@Thu?$AA@  10012f44     libucrt:nlsdata.obj
 0002:00000f48       ??_C@_03IDIOELNC@Fri?$AA@  10012f48     libucrt:nlsdata.obj
 0002:00000f4c       ??_C@_03FEFJNEK@Sat?$AA@   10012f4c     libucrt:nlsdata.obj
 0002:00000f50       ??_C@_06OOPIFAJ@Sunday?$AA@ 10012f50     libucrt:nlsdata.obj
 0002:00000f58       ??_C@_06JLEDEDGH@Monday?$AA@ 10012f58     libucrt:nlsdata.obj
 0002:00000f60       ??_C@_07BAAGCFCM@Tuesday?$AA@ 10012f60     libucrt:nlsdata.obj
 0002:00000f68       ??_C@_09DLIGFAKA@Wednesday?$AA@ 10012f68     libucrt:nlsdata.obj
 0002:00000f74       ??_C@_08HACCIKIA@Thursday?$AA@ 10012f74     libucrt:nlsdata.obj
 0002:00000f80       ??_C@_06JECMNKMI@Friday?$AA@ 10012f80     libucrt:nlsdata.obj
 0002:00000f88       ??_C@_08INBOOONO@Saturday?$AA@ 10012f88     libucrt:nlsdata.obj
 0002:00000f94       ??_C@_03JIHJHPIE@Jan?$AA@  10012f94     libucrt:nlsdata.obj
 0002:00000f98       ??_C@_03HJBDCHOM@Feb?$AA@  10012f98     libucrt:nlsdata.obj
 0002:00000f9c       ??_C@_03ODNJBKGA@Mar?$AA@  10012f9c     libucrt:nlsdata.obj
 0002:00000fa0       ??_C@_03LEOLGMJP@Apr?$AA@  10012fa0     libucrt:nlsdata.obj
 0002:00000fa4       ??_C@_03CNMDKL@May?$AA@    10012fa4     libucrt:nlsdata.obj
 0002:00000fa8       ??_C@_03IDFGHECI@Jun?$AA@  10012fa8     libucrt:nlsdata.obj
 0002:00000fac       ??_C@_03LBGABGKK@Jul?$AA@  10012fac     libucrt:nlsdata.obj
 0002:00000fb0       ??_C@_03IFJFEIGA@Aug?$AA@  10012fb0     libucrt:nlsdata.obj
 0002:00000fb4       ??_C@_03GGCAPAJC@Sep?$AA@  10012fb4     libucrt:nlsdata.obj
 0002:00000fb8       ??_C@_03BMAOKBAD@Oct?$AA@  10012fb8     libucrt:nlsdata.obj
 0002:00000fbc       ??_C@_03JPJOFNIA@Nov?$AA@  10012fbc     libucrt:nlsdata.obj
 0002:00000fc0       ??_C@_03MKABNOCG@Dec?$AA@  10012fc0     libucrt:nlsdata.obj
 0002:00000fc4       ??_C@_07CGJPFGJA@January?$AA@ 10012fc4     libucrt:nlsdata.obj
 0002:00000fcc       ??_C@_08GNJGEPFN@February?$AA@ 10012fcc     libucrt:nlsdata.obj
 0002:00000fd8       ??_C@_05HPCKOFNC@March?$AA@ 10012fd8     libucrt:nlsdata.obj
 0002:00000fe0       ??_C@_05DMJDNLEJ@April?$AA@ 10012fe0     libucrt:nlsdata.obj
 0002:00000fe8       ??_C@_04CNLMGBGM@June?$AA@ 10012fe8     libucrt:nlsdata.obj
 0002:00000ff0       ??_C@_04MIEPOIFP@July?$AA@ 10012ff0     libucrt:nlsdata.obj
 0002:00000ff8       ??_C@_06LBBHFDDG@August?$AA@ 10012ff8     libucrt:nlsdata.obj
 0002:00001000       ??_C@_09BHHEALKD@September?$AA@ 10013000     libucrt:nlsdata.obj
 0002:0000100c       ??_C@_07JJNFCEND@October?$AA@ 1001300c     libucrt:nlsdata.obj
 0002:00001014       ??_C@_08HCHEGEOA@November?$AA@ 10013014     libucrt:nlsdata.obj
 0002:00001020       ??_C@_08EDHMEBNP@December?$AA@ 10013020     libucrt:nlsdata.obj
 0002:0000102c       ??_C@_02DEDBPAFC@AM?$AA@   1001302c     libucrt:nlsdata.obj
 0002:00001030       ??_C@_02CJNFDJBF@PM?$AA@   10013030     libucrt:nlsdata.obj
 0002:00001034       ??_C@_08BPBNCDIB@MM?1dd?1yy?$AA@ 10013034     libucrt:nlsdata.obj
 0002:00001040       ??_C@_0BE@CKGJFCPC@dddd?0?5MMMM?5dd?0?5yyyy?$AA@ 10013040     libucrt:nlsdata.obj
 0002:00001054       ??_C@_08JCCMCCIL@HH?3mm?3ss?$AA@ 10013054     libucrt:nlsdata.obj
 0002:00001060       ??_C@_17MBGCMIPB@?$AAS?$AAu?$AAn?$AA?$AA@ 10013060     libucrt:nlsdata.obj
 0002:00001068       ??_C@_17KBOMKBF@?$AAM?$AAo?$AAn?$AA?$AA@ 10013068     libucrt:nlsdata.obj
 0002:00001070       ??_C@_17BMKGEGOJ@?$AAT?$AAu?$AAe?$AA?$AA@ 10013070     libucrt:nlsdata.obj
 0002:00001078       ??_C@_17CJEDCEPE@?$AAW?$AAe?$AAd?$AA?$AA@ 10013078     libucrt:nlsdata.obj
 0002:00001080       ??_C@_17PDPHAADD@?$AAT?$AAh?$AAu?$AA?$AA@ 10013080     libucrt:nlsdata.obj
 0002:00001088       ??_C@_17HFOLPPLP@?$AAF?$AAr?$AAi?$AA?$AA@ 10013088     libucrt:nlsdata.obj
 0002:00001090       ??_C@_17GGIBDPIH@?$AAS?$AAa?$AAt?$AA?$AA@ 10013090     libucrt:nlsdata.obj
 0002:00001098       ??_C@_1O@IHNHDHPB@?$AAS?$AAu?$AAn?$AAd?$AAa?$AAy?$AA?$AA@ 10013098     libucrt:nlsdata.obj
 0002:000010a8       ??_C@_1O@MMNBFLIA@?$AAM?$AAo?$AAn?$AAd?$AAa?$AAy?$AA?$AA@ 100130a8     libucrt:nlsdata.obj
 0002:000010b8       ??_C@_1BA@ENFBFFEK@?$AAT?$AAu?$AAe?$AAs?$AAd?$AAa?$AAy?$AA?$AA@ 100130b8     libucrt:nlsdata.obj
 0002:000010c8       ??_C@_1BE@EBOGMDOH@?$AAW?$AAe?$AAd?$AAn?$AAe?$AAs?$AAd?$AAa?$AAy?$AA?$AA@ 100130c8     libucrt:nlsdata.obj
 0002:000010dc       ??_C@_1BC@HHMNLIHE@?$AAT?$AAh?$AAu?$AAr?$AAs?$AAd?$AAa?$AAy?$AA?$AA@ 100130dc     libucrt:nlsdata.obj
 0002:000010f0       ??_C@_1O@PDICJHAG@?$AAF?$AAr?$AAi?$AAd?$AAa?$AAy?$AA?$AA@ 100130f0     libucrt:nlsdata.obj
 0002:00001100       ??_C@_1BC@ENMNNPAJ@?$AAS?$AAa?$AAt?$AAu?$AAr?$AAd?$AAa?$AAy?$AA?$AA@ 10013100     libucrt:nlsdata.obj
 0002:00001114       ??_C@_17DKNBKCHM@?$AAJ?$AAa?$AAn?$AA?$AA@ 10013114     libucrt:nlsdata.obj
 0002:0000111c       ??_C@_17LMDJEKJN@?$AAF?$AAe?$AAb?$AA?$AA@ 1001311c     libucrt:nlsdata.obj
 0002:00001124       ??_C@_17CKNLEDEC@?$AAM?$AAa?$AAr?$AA?$AA@ 10013124     libucrt:nlsdata.obj
 0002:0000112c       ??_C@_17LFPOIHDD@?$AAA?$AAp?$AAr?$AA?$AA@ 1001312c     libucrt:nlsdata.obj
 0002:00001134       ??_C@_17PNNKMEED@?$AAM?$AAa?$AAy?$AA?$AA@ 10013134     libucrt:nlsdata.obj
 0002:0000113c       ??_C@_17KCJGOCPB@?$AAJ?$AAu?$AAn?$AA?$AA@ 1001313c     libucrt:nlsdata.obj
 0002:00001144       ??_C@_17IJPCKHK@?$AAJ?$AAu?$AAl?$AA?$AA@ 10013144     libucrt:nlsdata.obj
 0002:0000114c       ??_C@_17ICPELBCN@?$AAA?$AAu?$AAg?$AA?$AA@ 1001314c     libucrt:nlsdata.obj
 0002:00001154       ??_C@_17HCHCOKMG@?$AAS?$AAe?$AAp?$AA?$AA@ 10013154     libucrt:nlsdata.obj
 0002:0000115c       ??_C@_17FNLKOI@?$AAO?$AAc?$AAt?$AA?$AA@ 1001315c     libucrt:nlsdata.obj
 0002:00001164       ??_C@_17BBDMLCIG@?$AAN?$AAo?$AAv?$AA?$AA@ 10013164     libucrt:nlsdata.obj
 0002:0000116c       ??_C@_17EGKACKIF@?$AAD?$AAe?$AAc?$AA?$AA@ 1001316c     libucrt:nlsdata.obj
 0002:00001174       ??_C@_1BA@EFMEIEBA@?$AAJ?$AAa?$AAn?$AAu?$AAa?$AAr?$AAy?$AA?$AA@ 10013174     libucrt:nlsdata.obj
 0002:00001184       ??_C@_1BC@JGDDFFAM@?$AAF?$AAe?$AAb?$AAr?$AAu?$AAa?$AAr?$AAy?$AA?$AA@ 10013184     libucrt:nlsdata.obj
 0002:00001198       ??_C@_1M@IKEENEDF@?$AAM?$AAa?$AAr?$AAc?$AAh?$AA?$AA@ 10013198     libucrt:nlsdata.obj
 0002:000011a4       ??_C@_1M@GJNLMHFD@?$AAA?$AAp?$AAr?$AAi?$AAl?$AA?$AA@ 100131a4     libucrt:nlsdata.obj
 0002:000011b0       ??_C@_19EPFLPGAP@?$AAJ?$AAu?$AAn?$AAe?$AA?$AA@ 100131b0     libucrt:nlsdata.obj
 0002:000011bc       ??_C@_19BIFMLPCD@?$AAJ?$AAu?$AAl?$AAy?$AA?$AA@ 100131bc     libucrt:nlsdata.obj
 0002:000011c8       ??_C@_1O@PAHLKOAC@?$AAA?$AAu?$AAg?$AAu?$AAs?$AAt?$AA?$AA@ 100131c8     libucrt:nlsdata.obj
 0002:000011d8       ??_C@_1BE@DKAAMBJL@?$AAS?$AAe?$AAp?$AAt?$AAe?$AAm?$AAb?$AAe?$AAr?$AA?$AA@ 100131d8     libucrt:nlsdata.obj
 0002:000011ec       ??_C@_1BA@EPANDLNG@?$AAO?$AAc?$AAt?$AAo?$AAb?$AAe?$AAr?$AA?$AA@ 100131ec     libucrt:nlsdata.obj
 0002:000011fc       ??_C@_1BC@BGLIFPF@?$AAN?$AAo?$AAv?$AAe?$AAm?$AAb?$AAe?$AAr?$AA?$AA@ 100131fc     libucrt:nlsdata.obj
 0002:00001210       ??_C@_1BC@FEMKIFH@?$AAD?$AAe?$AAc?$AAe?$AAm?$AAb?$AAe?$AAr?$AA?$AA@ 10013210     libucrt:nlsdata.obj
 0002:00001224       ??_C@_15ODEHAHHF@?$AAA?$AAM?$AA?$AA@ 10013224     libucrt:nlsdata.obj
 0002:0000122c       ??_C@_15CLMNNGEL@?$AAP?$AAM?$AA?$AA@ 1001322c     libucrt:nlsdata.obj
 0002:00001234       ??_C@_1BC@IEBCMHCM@?$AAM?$AAM?$AA?1?$AAd?$AAd?$AA?1?$AAy?$AAy?$AA?$AA@ 10013234     libucrt:nlsdata.obj
 0002:00001248       ??_C@_1CI@KNAKOEBC@?$AAd?$AAd?$AAd?$AAd?$AA?0?$AA?5?$AAM?$AAM?$AAM?$AAM?$AA?5?$AAd?$AAd?$AA?0?$AA?5?$AAy?$AAy?$AAy?$AAy?$AA?$AA@ 10013248     libucrt:nlsdata.obj
 0002:00001270       ??_C@_1BC@GDGBMEMK@?$AAH?$AAH?$AA?3?$AAm?$AAm?$AA?3?$AAs?$AAs?$AA?$AA@ 10013270     libucrt:nlsdata.obj
 0002:00001284       ??_C@_1M@BMHNFIME@?$AAe?$AAn?$AA?9?$AAU?$AAS?$AA?$AA@ 10013284     libucrt:nlsdata.obj
 0002:000012a0       ??_C@_1M@HPNHIDJI@?$AAj?$AAa?$AA?9?$AAJ?$AAP?$AA?$AA@ 100132a0     libucrt:mbctype.obj
 0002:000012ac       ??_C@_1M@BIBDDEMK@?$AAz?$AAh?$AA?9?$AAC?$AAN?$AA?$AA@ 100132ac     libucrt:mbctype.obj
 0002:000012b8       ??_C@_1M@JLOOOEGK@?$AAk?$AAo?$AA?9?$AAK?$AAR?$AA?$AA@ 100132b8     libucrt:mbctype.obj
 0002:000012c4       ??_C@_1M@CLNBBOPM@?$AAz?$AAh?$AA?9?$AAT?$AAW?$AA?$AA@ 100132c4     libucrt:mbctype.obj
 0002:00001320       ??_C@_1EA@JGEFHKEI@?$AAa?$AAp?$AAi?$AA?9?$AAm?$AAs?$AA?9?$AAw?$AAi?$AAn?$AA?9?$AAc?$AAo?$AAr?$AAe?$AA?9?$AAd?$AAa?$AAt?$AAe?$AAt?$AAi?$AAm?$AAe?$AA?9?$AAl?$AA1?$AA?9?$AA1?$AA?9?$AA1?$AA?$AA@ 10013320     libucrt:winapi_thunks.obj
 0002:00001360       ??_C@_1DM@KHCHBNEB@?$AAa?$AAp?$AAi?$AA?9?$AAm?$AAs?$AA?9?$AAw?$AAi?$AAn?$AA?9?$AAc?$AAo?$AAr?$AAe?$AA?9?$AAf?$AAi?$AAb?$AAe?$AAr?$AAs?$AA?9?$AAl?$AA1?$AA?9?$AA1?$AA?9?$AA1?$AA?$AA@ 10013360     libucrt:winapi_thunks.obj
 0002:0000139c       ??_C@_1DI@IJCEHOCB@?$AAa?$AAp?$AAi?$AA?9?$AAm?$AAs?$AA?9?$AAw?$AAi?$AAn?$AA?9?$AAc?$AAo?$AAr?$AAe?$AA?9?$AAf?$AAi?$AAl?$AAe?$AA?9?$AAl?$AA1?$AA?9?$AA2?$AA?9?$AA2?$AA?$AA@ 1001339c     libucrt:winapi_thunks.obj
 0002:000013d8       ??_C@_1EI@MPIAOHOC@?$AAa?$AAp?$AAi?$AA?9?$AAm?$AAs?$AA?9?$AAw?$AAi?$AAn?$AA?9?$AAc?$AAo?$AAr?$AAe?$AA?9?$AAl?$AAo?$AAc?$AAa?$AAl?$AAi?$AAz?$AAa?$AAt?$AAi?$AAo?$AAn?$AA?9?$AAl?$AA1?$AA?9@ 100133d8     libucrt:winapi_thunks.obj
 0002:00001420       ??_C@_1FK@FPHCKFIE@?$AAa?$AAp?$AAi?$AA?9?$AAm?$AAs?$AA?9?$AAw?$AAi?$AAn?$AA?9?$AAc?$AAo?$AAr?$AAe?$AA?9?$AAl?$AAo?$AAc?$AAa?$AAl?$AAi?$AAz?$AAa?$AAt?$AAi?$AAo?$AAn?$AA?9?$AAo?$AAb?$AAs@ 10013420     libucrt:winapi_thunks.obj
 0002:00001480       ??_C@_1EM@DILCGIIO@?$AAa?$AAp?$AAi?$AA?9?$AAm?$AAs?$AA?9?$AAw?$AAi?$AAn?$AA?9?$AAc?$AAo?$AAr?$AAe?$AA?9?$AAp?$AAr?$AAo?$AAc?$AAe?$AAs?$AAs?$AAt?$AAh?$AAr?$AAe?$AAa?$AAd?$AAs?$AA?9?$AAl@ 10013480     libucrt:winapi_thunks.obj
 0002:000014cc       ??_C@_1DM@LNCGDDPN@?$AAa?$AAp?$AAi?$AA?9?$AAm?$AAs?$AA?9?$AAw?$AAi?$AAn?$AA?9?$AAc?$AAo?$AAr?$AAe?$AA?9?$AAs?$AAt?$AAr?$AAi?$AAn?$AAg?$AA?9?$AAl?$AA1?$AA?9?$AA1?$AA?9?$AA0?$AA?$AA@ 100134cc     libucrt:winapi_thunks.obj
 0002:00001508       ??_C@_1DK@LPPGFMPP@?$AAa?$AAp?$AAi?$AA?9?$AAm?$AAs?$AA?9?$AAw?$AAi?$AAn?$AA?9?$AAc?$AAo?$AAr?$AAe?$AA?9?$AAs?$AAy?$AAn?$AAc?$AAh?$AA?9?$AAl?$AA1?$AA?9?$AA2?$AA?9?$AA0?$AA?$AA@ 10013508     libucrt:winapi_thunks.obj
 0002:00001544       ??_C@_1DO@FPAPJEMD@?$AAa?$AAp?$AAi?$AA?9?$AAm?$AAs?$AA?9?$AAw?$AAi?$AAn?$AA?9?$AAc?$AAo?$AAr?$AAe?$AA?9?$AAs?$AAy?$AAs?$AAi?$AAn?$AAf?$AAo?$AA?9?$AAl?$AA1?$AA?9?$AA2?$AA?9?$AA1?$AA?$AA@ 10013544     libucrt:winapi_thunks.obj
 0002:00001584       ??_C@_1DK@NDHNAHIO@?$AAa?$AAp?$AAi?$AA?9?$AAm?$AAs?$AA?9?$AAw?$AAi?$AAn?$AA?9?$AAc?$AAo?$AAr?$AAe?$AA?9?$AAw?$AAi?$AAn?$AAr?$AAt?$AA?9?$AAl?$AA1?$AA?9?$AA1?$AA?9?$AA0?$AA?$AA@ 10013584     libucrt:winapi_thunks.obj
 0002:000015c0       ??_C@_1DM@KGHDGBCM@?$AAa?$AAp?$AAi?$AA?9?$AAm?$AAs?$AA?9?$AAw?$AAi?$AAn?$AA?9?$AAc?$AAo?$AAr?$AAe?$AA?9?$AAx?$AAs?$AAt?$AAa?$AAt?$AAe?$AA?9?$AAl?$AA2?$AA?9?$AA1?$AA?9?$AA0?$AA?$AA@ 100135c0     libucrt:winapi_thunks.obj
 0002:00001600       ??_C@_1EO@IJIOEFOH@?$AAa?$AAp?$AAi?$AA?9?$AAm?$AAs?$AA?9?$AAw?$AAi?$AAn?$AA?9?$AAr?$AAt?$AAc?$AAo?$AAr?$AAe?$AA?9?$AAn?$AAt?$AAu?$AAs?$AAe?$AAr?$AA?9?$AAw?$AAi?$AAn?$AAd?$AAo?$AAw?$AA?9@ 10013600     libucrt:winapi_thunks.obj
 0002:00001650       ??_C@_1FG@HHGEKANL@?$AAa?$AAp?$AAi?$AA?9?$AAm?$AAs?$AA?9?$AAw?$AAi?$AAn?$AA?9?$AAs?$AAe?$AAc?$AAu?$AAr?$AAi?$AAt?$AAy?$AA?9?$AAs?$AAy?$AAs?$AAt?$AAe?$AAm?$AAf?$AAu?$AAn?$AAc?$AAt?$AAi@ 10013650     libucrt:winapi_thunks.obj
 0002:000016a8       ??_C@_1EG@DBIOJECG@?$AAe?$AAx?$AAt?$AA?9?$AAm?$AAs?$AA?9?$AAw?$AAi?$AAn?$AA?9?$AAn?$AAt?$AAu?$AAs?$AAe?$AAr?$AA?9?$AAd?$AAi?$AAa?$AAl?$AAo?$AAg?$AAb?$AAo?$AAx?$AA?9?$AAl?$AA1?$AA?9?$AA1@ 100136a8     libucrt:winapi_thunks.obj
 0002:000016f0       ??_C@_1EO@FIHMJCLF@?$AAe?$AAx?$AAt?$AA?9?$AAm?$AAs?$AA?9?$AAw?$AAi?$AAn?$AA?9?$AAn?$AAt?$AAu?$AAs?$AAe?$AAr?$AA?9?$AAw?$AAi?$AAn?$AAd?$AAo?$AAw?$AAs?$AAt?$AAa?$AAt?$AAi?$AAo?$AAn?$AA?9@ 100136f0     libucrt:winapi_thunks.obj
 0002:00001740       ??_C@_1BC@DNHGCMLG@?$AAa?$AAd?$AAv?$AAa?$AAp?$AAi?$AA3?$AA2?$AA?$AA@ 10013740     libucrt:winapi_thunks.obj
 0002:00001754       ??_C@_1BC@GDMECMAK@?$AAk?$AAe?$AAr?$AAn?$AAe?$AAl?$AA3?$AA2?$AA?$AA@ 10013754     libucrt:winapi_thunks.obj
 0002:00001768       ??_C@_1M@OAIMIKLP@?$AAn?$AAt?$AAd?$AAl?$AAl?$AA?$AA@ 10013768     libucrt:winapi_thunks.obj
 0002:00001778       ??_C@_1EG@DPGNFKGC@?$AAa?$AAp?$AAi?$AA?9?$AAm?$AAs?$AA?9?$AAw?$AAi?$AAn?$AA?9?$AAa?$AAp?$AAp?$AAm?$AAo?$AAd?$AAe?$AAl?$AA?9?$AAr?$AAu?$AAn?$AAt?$AAi?$AAm?$AAe?$AA?9?$AAl?$AA1?$AA?9?$AA1@ 10013778     libucrt:winapi_thunks.obj
 0002:000017c0       ??_C@_1O@BCCLBEOE@?$AAu?$AAs?$AAe?$AAr?$AA3?$AA2?$AA?$AA@ 100137c0     libucrt:winapi_thunks.obj
 0002:000017d0       ??_C@_1BA@PFFKHIOG@?$AAa?$AAp?$AAi?$AA?9?$AAm?$AAs?$AA?9?$AA?$AA@ 100137d0     libucrt:winapi_thunks.obj
 0002:000017e0       ??_C@_1BA@IAIFMGEF@?$AAe?$AAx?$AAt?$AA?9?$AAm?$AAs?$AA?9?$AA?$AA@ 100137e0     libucrt:winapi_thunks.obj
 0002:000017f4       ??_C@_0BA@FHFNEAED@AreFileApisANSI?$AA@ 100137f4     libucrt:winapi_thunks.obj
 0002:0000180c       ??_C@_08KNHFBNJ@FlsAlloc?$AA@ 1001380c     libucrt:winapi_thunks.obj
 0002:00001820       ??_C@_07PEJMOBNF@FlsFree?$AA@ 10013820     libucrt:winapi_thunks.obj
 0002:00001830       ??_C@_0M@GDNOONDI@FlsGetValue?$AA@ 10013830     libucrt:winapi_thunks.obj
 0002:00001844       ??_C@_0M@JCPCPOEF@FlsSetValue?$AA@ 10013844     libucrt:winapi_thunks.obj
 0002:00001858       ??_C@_0BM@HCFOFFN@InitializeCriticalSectionEx?$AA@ 10013858     libucrt:winapi_thunks.obj
 0002:0000187c       ??_C@_0O@KKBNKAPF@LCMapStringEx?$AA@ 1001387c     libucrt:winapi_thunks.obj
 0002:00001894       ??_C@_0BB@HBDEELFH@LocaleNameToLCID?$AA@ 10013894     libucrt:winapi_thunks.obj
 0002:000018ac       ??_C@_0CF@OJOFEIGO@AppPolicyGetProcessTerminationMe@ 100138ac     libucrt:winapi_thunks.obj
 0002:000018d8       ___newctype                100138d8     libucrt:ctype.obj
 0002:00001bd8       ___newclmap                10013bd8     libucrt:ctype.obj
 0002:00001d58       ___newcumap                10013d58     libucrt:ctype.obj
 0002:00001ed8       ??_C@_15PJPFLCCM@?$AAu?$AAk?$AA?$AA@ 10013ed8     libucrt:get_qualified_locale.obj
 0002:00002600       ??_C@_15EMKDOKLE@?$AAa?$AAr?$AA?$AA@ 10014600     libucrt:lcidtoname_downlevel.obj
 0002:00002608       ??_C@_15KNPADPLH@?$AAb?$AAg?$AA?$AA@ 10014608     libucrt:lcidtoname_downlevel.obj
 0002:00002610       ??_C@_15EDMHLDMO@?$AAc?$AAa?$AA?$AA@ 10014610     libucrt:lcidtoname_downlevel.obj
 0002:00002618       ??_C@_1O@BPEAJADD@?$AAz?$AAh?$AA?9?$AAC?$AAH?$AAS?$AA?$AA@ 10014618     libucrt:lcidtoname_downlevel.obj
 0002:00002628       ??_C@_15LJNHCMNK@?$AAc?$AAs?$AA?$AA@ 10014628     libucrt:lcidtoname_downlevel.obj
 0002:00002630       ??_C@_15FOMCIDHG@?$AAd?$AAa?$AA?$AA@ 10014630     libucrt:lcidtoname_downlevel.obj
 0002:00002638       ??_C@_15NBKABECB@?$AAd?$AAe?$AA?$AA@ 10014638     libucrt:lcidtoname_downlevel.obj
 0002:00002640       ??_C@_15GHPEIIAO@?$AAe?$AAl?$AA?$AA@ 10014640     libucrt:lcidtoname_downlevel.obj
 0002:00002648       ??_C@_15MNPNEAIF@?$AAe?$AAn?$AA?$AA@ 10014648     libucrt:lcidtoname_downlevel.obj
 0002:00002650       ??_C@_15GPIOMPMH@?$AAe?$AAs?$AA?$AA@ 10014650     libucrt:lcidtoname_downlevel.obj
 0002:00002658       ??_C@_15NGLOAKJC@?$AAf?$AAi?$AA?$AA@ 10014658     libucrt:lcidtoname_downlevel.obj
 0002:00002660       ??_C@_15FBKGNKAM@?$AAf?$AAr?$AA?$AA@ 10014660     libucrt:lcidtoname_downlevel.obj
 0002:00002668       ??_C@_15KGGCNEFK@?$AAh?$AAe?$AA?$AA@ 10014668     libucrt:lcidtoname_downlevel.obj
 0002:00002670       ??_C@_15PGHLIDMF@?$AAh?$AAu?$AA?$AA@ 10014670     libucrt:lcidtoname_downlevel.obj
 0002:00002678       ??_C@_15BIEMAPLM@?$AAi?$AAs?$AA?$AA@ 10014678     libucrt:lcidtoname_downlevel.obj
 0002:00002680       ??_C@_15IFJLDHAF@?$AAi?$AAt?$AA?$AA@ 10014680     libucrt:lcidtoname_downlevel.obj
 0002:00002688       ??_C@_15GEMIOCAG@?$AAj?$AAa?$AA?$AA@ 10014688     libucrt:lcidtoname_downlevel.obj
 0002:00002690       ??_C@_15EPELEGJA@?$AAk?$AAo?$AA?$AA@ 10014690     libucrt:lcidtoname_downlevel.obj
 0002:00002698       ??_C@_15NDDHIMN@?$AAn?$AAl?$AA?$AA@ 10014698     libucrt:lcidtoname_downlevel.obj
 0002:000026a0       ??_C@_15BPIGNHCD@?$AAn?$AAo?$AA?$AA@ 100146a0     libucrt:lcidtoname_downlevel.obj
 0002:000026a8       ??_C@_15DEOPBLCG@?$AAp?$AAl?$AA?$AA@ 100146a8     libucrt:lcidtoname_downlevel.obj
 0002:000026b0       ??_C@_15KBECGEFG@?$AAp?$AAt?$AA?$AA@ 100146b0     libucrt:lcidtoname_downlevel.obj
 0002:000026b8       ??_C@_15GLJCBFMD@?$AAr?$AAo?$AA?$AA@ 100146b8     libucrt:lcidtoname_downlevel.obj
 0002:000026c0       ??_C@_15FEDGKCDI@?$AAr?$AAu?$AA?$AA@ 100146c0     libucrt:lcidtoname_downlevel.obj
 0002:000026c8       ??_C@_15GLKMLLHM@?$AAh?$AAr?$AA?$AA@ 100146c8     libucrt:lcidtoname_downlevel.obj
 0002:000026d0       ??_C@_15CPKMFBDB@?$AAs?$AAk?$AA?$AA@ 100146d0     libucrt:lcidtoname_downlevel.obj
 0002:000026d8       ??_C@_15BAAIOGMK@?$AAs?$AAq?$AA?$AA@ 100146d8     libucrt:lcidtoname_downlevel.obj
 0002:000026e0       ??_C@_15INNPNOHD@?$AAs?$AAv?$AA?$AA@ 100146e0     libucrt:lcidtoname_downlevel.obj
 0002:000026e8       ??_C@_15CABMMOGH@?$AAt?$AAh?$AA?$AA@ 100146e8     libucrt:lcidtoname_downlevel.obj
 0002:000026f0       ??_C@_15BPLIHJJM@?$AAt?$AAr?$AA?$AA@ 100146f0     libucrt:lcidtoname_downlevel.obj
 0002:000026f8       ??_C@_15NEOEKKDJ@?$AAu?$AAr?$AA?$AA@ 100146f8     libucrt:lcidtoname_downlevel.obj
 0002:00002700       ??_C@_15NFICGAJK@?$AAi?$AAd?$AA?$AA@ 10014700     libucrt:lcidtoname_downlevel.obj
 0002:00002708       ??_C@_15HPJPHDM@?$AAb?$AAe?$AA?$AA@ 10014708     libucrt:lcidtoname_downlevel.obj
 0002:00002710       ??_C@_15LCHLGJII@?$AAs?$AAl?$AA?$AA@ 10014710     libucrt:lcidtoname_downlevel.obj
 0002:00002718       ??_C@_15PCFJPHHO@?$AAe?$AAt?$AA?$AA@ 10014718     libucrt:lcidtoname_downlevel.obj
 0002:00002720       ??_C@_15HPFPGODN@?$AAl?$AAv?$AA?$AA@ 10014720     libucrt:lcidtoname_downlevel.obj
 0002:00002728       ??_C@_15NFFGKGLG@?$AAl?$AAt?$AA?$AA@ 10014728     libucrt:lcidtoname_downlevel.obj
 0002:00002730       ??_C@_15BDAKCCHN@?$AAf?$AAa?$AA?$AA@ 10014730     libucrt:lcidtoname_downlevel.obj
 0002:00002738       ??_C@_15NFGIAIAJ@?$AAv?$AAi?$AA?$AA@ 10014738     libucrt:lcidtoname_downlevel.obj
 0002:00002740       ??_C@_15LMKNDMHN@?$AAh?$AAy?$AA?$AA@ 10014740     libucrt:lcidtoname_downlevel.obj
 0002:00002748       ??_C@_15IJBHMCFL@?$AAa?$AAz?$AA?$AA@ 10014748     libucrt:lcidtoname_downlevel.obj
 0002:00002750       ??_C@_15EKOFJABL@?$AAe?$AAu?$AA?$AA@ 10014750     libucrt:lcidtoname_downlevel.obj
 0002:00002758       ??_C@_15BGHADCNK@?$AAm?$AAk?$AA?$AA@ 10014758     libucrt:lcidtoname_downlevel.obj
 0002:00002760       ??_C@_15JDNICKHM@?$AAa?$AAf?$AA?$AA@ 10014760     libucrt:lcidtoname_downlevel.obj
 0002:00002768       ??_C@_15KPJEDBKD@?$AAk?$AAa?$AA?$AA@ 10014768     libucrt:lcidtoname_downlevel.obj
 0002:00002770       ??_C@_15PDNFFFEO@?$AAf?$AAo?$AA?$AA@ 10014770     libucrt:lcidtoname_downlevel.obj
 0002:00002778       ??_C@_15OMLEGLOC@?$AAh?$AAi?$AA?$AA@ 10014778     libucrt:lcidtoname_downlevel.obj
 0002:00002780       ??_C@_15IDNNENKK@?$AAm?$AAs?$AA?$AA@ 10014780     libucrt:lcidtoname_downlevel.obj
 0002:00002788       ??_C@_15MACJNBMH@?$AAk?$AAk?$AA?$AA@ 10014788     libucrt:lcidtoname_downlevel.obj
 0002:00002790       ??_C@_15DKDJEOND@?$AAk?$AAy?$AA?$AA@ 10014790     libucrt:lcidtoname_downlevel.obj
 0002:00002798       ??_C@_15DFGDLJBG@?$AAs?$AAw?$AA?$AA@ 10014798     libucrt:lcidtoname_downlevel.obj
 0002:000027a0       ??_C@_15BBFAICNG@?$AAu?$AAz?$AA?$AA@ 100147a0     libucrt:lcidtoname_downlevel.obj
 0002:000027a8       ??_C@_15DKNDCGEA@?$AAt?$AAt?$AA?$AA@ 100147a8     libucrt:lcidtoname_downlevel.obj
 0002:000027b0       ??_C@_15MGIFMDPL@?$AAp?$AAa?$AA?$AA@ 100147b0     libucrt:lcidtoname_downlevel.obj
 0002:000027b8       ??_C@_15HCNDBBA@?$AAg?$AAu?$AA?$AA@ 100147b8     libucrt:lcidtoname_downlevel.obj
 0002:000027c0       ??_C@_15FNBEIBON@?$AAt?$AAa?$AA?$AA@ 100147c0     libucrt:lcidtoname_downlevel.obj
 0002:000027c8       ??_C@_15NCHGBGLK@?$AAt?$AAe?$AA?$AA@ 100147c8     libucrt:lcidtoname_downlevel.obj
 0002:000027d0       ??_C@_15PHPHCBPF@?$AAk?$AAn?$AA?$AA@ 100147d0     libucrt:lcidtoname_downlevel.obj
 0002:000027d8       ??_C@_15DLGBCKMP@?$AAm?$AAr?$AA?$AA@ 100147d8     libucrt:lcidtoname_downlevel.obj
 0002:000027e0       ??_C@_15EABBLBFF@?$AAs?$AAa?$AA?$AA@ 100147e0     libucrt:lcidtoname_downlevel.obj
 0002:000027e8       ??_C@_15CBKOMCOI@?$AAm?$AAn?$AA?$AA@ 100147e8     libucrt:lcidtoname_downlevel.obj
 0002:000027f0       ??_C@_15CKDMCJAF@?$AAg?$AAl?$AA?$AA@ 100147f0     libucrt:lcidtoname_downlevel.obj
 0002:000027f8       ??_C@_17CNJFBPG@?$AAk?$AAo?$AAk?$AA?$AA@ 100147f8     libucrt:lcidtoname_downlevel.obj
 0002:00002800       ??_C@_17FFBJICPL@?$AAs?$AAy?$AAr?$AA?$AA@ 10014800     libucrt:lcidtoname_downlevel.obj
 0002:00002808       ??_C@_17KPNDCPAF@?$AAd?$AAi?$AAv?$AA?$AA@ 10014808     libucrt:lcidtoname_downlevel.obj
 0002:00002810       ??_C@_11LOCGONAA@?$AA?$AA@ 10014810     libucrt:lcidtoname_downlevel.obj
 0002:00002814       ??_C@_1M@OKAHONE@?$AAa?$AAr?$AA?9?$AAS?$AAA?$AA?$AA@ 10014814     libucrt:lcidtoname_downlevel.obj
 0002:00002820       ??_C@_1M@FFFIGIGK@?$AAb?$AAg?$AA?9?$AAB?$AAG?$AA?$AA@ 10014820     libucrt:lcidtoname_downlevel.obj
 0002:0000282c       ??_C@_1M@BJNKEDC@?$AAc?$AAa?$AA?9?$AAE?$AAS?$AA?$AA@ 1001482c     libucrt:lcidtoname_downlevel.obj
 0002:00002838       ??_C@_1M@IJJHFJHA@?$AAc?$AAs?$AA?9?$AAC?$AAZ?$AA?$AA@ 10014838     libucrt:lcidtoname_downlevel.obj
 0002:00002844       ??_C@_1M@CLPEOBGI@?$AAd?$AAa?$AA?9?$AAD?$AAK?$AA?$AA@ 10014844     libucrt:lcidtoname_downlevel.obj
 0002:00002850       ??_C@_1M@MCMADGCB@?$AAd?$AAe?$AA?9?$AAD?$AAE?$AA?$AA@ 10014850     libucrt:lcidtoname_downlevel.obj
 0002:0000285c       ??_C@_1M@OOCKEMAM@?$AAe?$AAl?$AA?9?$AAG?$AAR?$AA?$AA@ 1001485c     libucrt:lcidtoname_downlevel.obj
 0002:00002868       ??_C@_1M@DDNJFGID@?$AAf?$AAi?$AA?9?$AAF?$AAI?$AA?$AA@ 10014868     libucrt:lcidtoname_downlevel.obj
 0002:00002874       ??_C@_1M@GLIPPMAC@?$AAf?$AAr?$AA?9?$AAF?$AAR?$AA?$AA@ 10014874     libucrt:lcidtoname_downlevel.obj
 0002:00002880       ??_C@_1M@GFMCHPE@?$AAh?$AAe?$AA?9?$AAI?$AAL?$AA?$AA@ 10014880     libucrt:lcidtoname_downlevel.obj
 0002:0000288c       ??_C@_1M@MHLPGNKM@?$AAh?$AAu?$AA?9?$AAH?$AAU?$AA?$AA@ 1001488c     libucrt:lcidtoname_downlevel.obj
 0002:00002898       ??_C@_1M@LPDDNNPN@?$AAi?$AAs?$AA?9?$AAI?$AAS?$AA?$AA@ 10014898     libucrt:lcidtoname_downlevel.obj
 0002:000028a4       ??_C@_1M@MADIPODN@?$AAi?$AAt?$AA?9?$AAI?$AAT?$AA?$AA@ 100148a4     libucrt:lcidtoname_downlevel.obj
 0002:000028b0       ??_C@_1M@IHBJJGG@?$AAn?$AAl?$AA?9?$AAN?$AAL?$AA?$AA@ 100148b0     libucrt:lcidtoname_downlevel.obj
 0002:000028bc       ??_C@_1M@EANAGDL@?$AAn?$AAb?$AA?9?$AAN?$AAO?$AA?$AA@ 100148bc     libucrt:lcidtoname_downlevel.obj
 0002:000028c8       ??_C@_1M@NEIEMEGP@?$AAp?$AAl?$AA?9?$AAP?$AAL?$AA?$AA@ 100148c8     libucrt:lcidtoname_downlevel.obj
 0002:000028d4       ??_C@_1M@BOCFIGEP@?$AAp?$AAt?$AA?9?$AAB?$AAR?$AA?$AA@ 100148d4     libucrt:lcidtoname_downlevel.obj
 0002:000028e0       ??_C@_1M@IMPFOPBG@?$AAr?$AAo?$AA?9?$AAR?$AAO?$AA?$AA@ 100148e0     libucrt:lcidtoname_downlevel.obj
 0002:000028ec       ??_C@_1M@IDNNEJMM@?$AAr?$AAu?$AA?9?$AAR?$AAU?$AA?$AA@ 100148ec     libucrt:lcidtoname_downlevel.obj
 0002:000028f8       ??_C@_1M@LILEEOGM@?$AAh?$AAr?$AA?9?$AAH?$AAR?$AA?$AA@ 100148f8     libucrt:lcidtoname_downlevel.obj
 0002:00002904       ??_C@_1M@FKIFEHPB@?$AAs?$AAk?$AA?9?$AAS?$AAK?$AA?$AA@ 10014904     libucrt:lcidtoname_downlevel.obj
 0002:00002910       ??_C@_1M@LJMAMNPJ@?$AAs?$AAq?$AA?9?$AAA?$AAL?$AA?$AA@ 10014910     libucrt:lcidtoname_downlevel.obj
 0002:0000291c       ??_C@_1M@GIAKDKJK@?$AAs?$AAv?$AA?9?$AAS?$AAE?$AA?$AA@ 1001491c     libucrt:lcidtoname_downlevel.obj
 0002:00002928       ??_C@_1M@MKJKIKCL@?$AAt?$AAh?$AA?9?$AAT?$AAH?$AA?$AA@ 10014928     libucrt:lcidtoname_downlevel.obj
 0002:00002934       ??_C@_1M@MFLCCMPB@?$AAt?$AAr?$AA?9?$AAT?$AAR?$AA?$AA@ 10014934     libucrt:lcidtoname_downlevel.obj
 0002:00002940       ??_C@_1M@OIJHDKJN@?$AAu?$AAr?$AA?9?$AAP?$AAK?$AA?$AA@ 10014940     libucrt:lcidtoname_downlevel.obj
 0002:0000294c       ??_C@_1M@LHIPCIEK@?$AAi?$AAd?$AA?9?$AAI?$AAD?$AA?$AA@ 1001494c     libucrt:lcidtoname_downlevel.obj
 0002:00002958       ??_C@_1M@MFMOBGI@?$AAu?$AAk?$AA?9?$AAU?$AAA?$AA?$AA@ 10014958     libucrt:lcidtoname_downlevel.obj
 0002:00002964       ??_C@_1M@OBGLJIPL@?$AAb?$AAe?$AA?9?$AAB?$AAY?$AA?$AA@ 10014964     libucrt:lcidtoname_downlevel.obj
 0002:00002970       ??_C@_1M@BCFAJEAD@?$AAs?$AAl?$AA?9?$AAS?$AAI?$AA?$AA@ 10014970     libucrt:lcidtoname_downlevel.obj
 0002:0000297c       ??_C@_1M@FKFFEDDN@?$AAe?$AAt?$AA?9?$AAE?$AAE?$AA?$AA@ 1001497c     libucrt:lcidtoname_downlevel.obj
 0002:00002988       ??_C@_1M@KGKKAACI@?$AAl?$AAv?$AA?9?$AAL?$AAV?$AA?$AA@ 10014988     libucrt:lcidtoname_downlevel.obj
 0002:00002994       ??_C@_1M@IFGBIJO@?$AAl?$AAt?$AA?9?$AAL?$AAT?$AA?$AA@ 10014994     libucrt:lcidtoname_downlevel.obj
 0002:000029a0       ??_C@_1M@FGEAHEDM@?$AAf?$AAa?$AA?9?$AAI?$AAR?$AA?$AA@ 100149a0     libucrt:lcidtoname_downlevel.obj
 0002:000029ac       ??_C@_1M@KBMAIBFN@?$AAv?$AAi?$AA?9?$AAV?$AAN?$AA?$AA@ 100149ac     libucrt:lcidtoname_downlevel.obj
 0002:000029b8       ??_C@_1M@GPCBKDJK@?$AAh?$AAy?$AA?9?$AAA?$AAM?$AA?$AA@ 100149b8     libucrt:lcidtoname_downlevel.obj
 0002:000029c4       ??_C@_1BG@BECMDDJB@?$AAa?$AAz?$AA?9?$AAA?$AAZ?$AA?9?$AAL?$AAa?$AAt?$AAn?$AA?$AA@ 100149c4     libucrt:lcidtoname_downlevel.obj
 0002:000029dc       ??_C@_1M@MAOFCAEA@?$AAe?$AAu?$AA?9?$AAE?$AAS?$AA?$AA@ 100149dc     libucrt:lcidtoname_downlevel.obj
 0002:000029e8       ??_C@_1M@IGHABKPI@?$AAm?$AAk?$AA?9?$AAM?$AAK?$AA?$AA@ 100149e8     libucrt:lcidtoname_downlevel.obj
 0002:000029f4       ??_C@_1M@IAIGNEJG@?$AAt?$AAn?$AA?9?$AAZ?$AAA?$AA?$AA@ 100149f4     libucrt:lcidtoname_downlevel.obj
 0002:00002a00       ??_C@_1M@IIJCOJFA@?$AAx?$AAh?$AA?9?$AAZ?$AAA?$AA?$AA@ 10014a00     libucrt:lcidtoname_downlevel.obj
 0002:00002a0c       ??_C@_1M@LGPJHNJH@?$AAz?$AAu?$AA?9?$AAZ?$AAA?$AA?$AA@ 10014a0c     libucrt:lcidtoname_downlevel.obj
 0002:00002a18       ??_C@_1M@HOKAOIO@?$AAa?$AAf?$AA?9?$AAZ?$AAA?$AA?$AA@ 10014a18     libucrt:lcidtoname_downlevel.obj
 0002:00002a24       ??_C@_1M@DPCLHLIE@?$AAk?$AAa?$AA?9?$AAG?$AAE?$AA?$AA@ 10014a24     libucrt:lcidtoname_downlevel.obj
 0002:00002a30       ??_C@_1M@BLKMHJBI@?$AAf?$AAo?$AA?9?$AAF?$AAO?$AA?$AA@ 10014a30     libucrt:lcidtoname_downlevel.obj
 0002:00002a3c       ??_C@_1M@LGGJAPPB@?$AAh?$AAi?$AA?9?$AAI?$AAN?$AA?$AA@ 10014a3c     libucrt:lcidtoname_downlevel.obj
 0002:00002a48       ??_C@_1M@FIKPIHFE@?$AAm?$AAt?$AA?9?$AAM?$AAT?$AA?$AA@ 10014a48     libucrt:lcidtoname_downlevel.obj
 0002:00002a54       ??_C@_1M@HEGGPBFA@?$AAs?$AAe?$AA?9?$AAN?$AAO?$AA?$AA@ 10014a54     libucrt:lcidtoname_downlevel.obj
 0002:00002a60       ??_C@_1M@EIBJEEPA@?$AAm?$AAs?$AA?9?$AAM?$AAY?$AA?$AA@ 10014a60     libucrt:lcidtoname_downlevel.obj
 0002:00002a6c       ??_C@_1M@FHLBGMPP@?$AAk?$AAk?$AA?9?$AAK?$AAZ?$AA?$AA@ 10014a6c     libucrt:lcidtoname_downlevel.obj
 0002:00002a78       ??_C@_1M@NGJJLCGI@?$AAk?$AAy?$AA?9?$AAK?$AAG?$AA?$AA@ 10014a78     libucrt:lcidtoname_downlevel.obj
 0002:00002a84       ??_C@_1M@GIENNBFC@?$AAs?$AAw?$AA?9?$AAK?$AAE?$AA?$AA@ 10014a84     libucrt:lcidtoname_downlevel.obj
 0002:00002a90       ??_C@_1BG@NDGMJIMJ@?$AAu?$AAz?$AA?9?$AAU?$AAZ?$AA?9?$AAL?$AAa?$AAt?$AAn?$AA?$AA@ 10014a90     libucrt:lcidtoname_downlevel.obj
 0002:00002aa8       ??_C@_1M@IDCCIHBC@?$AAt?$AAt?$AA?9?$AAR?$AAU?$AA?$AA@ 10014aa8     libucrt:lcidtoname_downlevel.obj
 0002:00002ab4       ??_C@_1M@LOICPMOJ@?$AAb?$AAn?$AA?9?$AAI?$AAN?$AA?$AA@ 10014ab4     libucrt:lcidtoname_downlevel.obj
 0002:00002ac0       ??_C@_1M@KPKKNEAH@?$AAp?$AAa?$AA?9?$AAI?$AAN?$AA?$AA@ 10014ac0     libucrt:lcidtoname_downlevel.obj
 0002:00002acc       ??_C@_1M@PJGPPBOG@?$AAg?$AAu?$AA?9?$AAI?$AAN?$AA?$AA@ 10014acc     libucrt:lcidtoname_downlevel.obj
 0002:00002ad8       ??_C@_1M@KMKMOPHI@?$AAt?$AAa?$AA?9?$AAI?$AAN?$AA?$AA@ 10014ad8     libucrt:lcidtoname_downlevel.obj
 0002:00002ae4       ??_C@_1M@KFEHEPAC@?$AAt?$AAe?$AA?9?$AAI?$AAN?$AA?$AA@ 10014ae4     libucrt:lcidtoname_downlevel.obj
 0002:00002af0       ??_C@_1M@CDCLMGHI@?$AAk?$AAn?$AA?9?$AAI?$AAN?$AA?$AA@ 10014af0     libucrt:lcidtoname_downlevel.obj
 0002:00002afc       ??_C@_1M@MIODLDKF@?$AAm?$AAl?$AA?9?$AAI?$AAN?$AA?$AA@ 10014afc     libucrt:lcidtoname_downlevel.obj
 0002:00002b08       ??_C@_1M@PBIEACPO@?$AAm?$AAr?$AA?9?$AAI?$AAN?$AA?$AA@ 10014b08     libucrt:lcidtoname_downlevel.obj
 0002:00002b14       ??_C@_1M@NIDEAGPH@?$AAs?$AAa?$AA?9?$AAI?$AAN?$AA?$AA@ 10014b14     libucrt:lcidtoname_downlevel.obj
 0002:00002b20       ??_C@_1M@FHIHCBIO@?$AAm?$AAn?$AA?9?$AAM?$AAN?$AA?$AA@ 10014b20     libucrt:lcidtoname_downlevel.obj
 0002:00002b2c       ??_C@_1M@JAIJPENP@?$AAc?$AAy?$AA?9?$AAG?$AAB?$AA?$AA@ 10014b2c     libucrt:lcidtoname_downlevel.obj
 0002:00002b38       ??_C@_1M@PHGFBEPN@?$AAg?$AAl?$AA?9?$AAE?$AAS?$AA?$AA@ 10014b38     libucrt:lcidtoname_downlevel.obj
 0002:00002b44       ??_C@_1O@KPIPDNCP@?$AAk?$AAo?$AAk?$AA?9?$AAI?$AAN?$AA?$AA@ 10014b44     libucrt:lcidtoname_downlevel.obj
 0002:00002b54       ??_C@_1O@KNHJLDJA@?$AAs?$AAy?$AAr?$AA?9?$AAS?$AAY?$AA?$AA@ 10014b54     libucrt:lcidtoname_downlevel.obj
 0002:00002b64       ??_C@_1O@MKEKBLAH@?$AAd?$AAi?$AAv?$AA?9?$AAM?$AAV?$AA?$AA@ 10014b64     libucrt:lcidtoname_downlevel.obj
 0002:00002b74       ??_C@_1O@OHDCKDDF@?$AAq?$AAu?$AAz?$AA?9?$AAB?$AAO?$AA?$AA@ 10014b74     libucrt:lcidtoname_downlevel.obj
 0002:00002b84       ??_C@_1M@LEPJNLFD@?$AAn?$AAs?$AA?9?$AAZ?$AAA?$AA?$AA@ 10014b84     libucrt:lcidtoname_downlevel.obj
 0002:00002b90       ??_C@_1M@OMLEIIJB@?$AAm?$AAi?$AA?9?$AAN?$AAZ?$AA?$AA@ 10014b90     libucrt:lcidtoname_downlevel.obj
 0002:00002b9c       ??_C@_1M@PMPEAILG@?$AAa?$AAr?$AA?9?$AAI?$AAQ?$AA?$AA@ 10014b9c     libucrt:lcidtoname_downlevel.obj
 0002:00002ba8       ??_C@_1M@CNKPNOEE@?$AAd?$AAe?$AA?9?$AAC?$AAH?$AA?$AA@ 10014ba8     libucrt:lcidtoname_downlevel.obj
 0002:00002bb4       ??_C@_1M@LKMGMLKO@?$AAe?$AAn?$AA?9?$AAG?$AAB?$AA?$AA@ 10014bb4     libucrt:lcidtoname_downlevel.obj
 0002:00002bc0       ??_C@_1M@PGKJFFGL@?$AAe?$AAs?$AA?9?$AAM?$AAX?$AA?$AA@ 10014bc0     libucrt:lcidtoname_downlevel.obj
 0002:00002bcc       ??_C@_1M@DNNANBDC@?$AAf?$AAr?$AA?9?$AAB?$AAE?$AA?$AA@ 10014bcc     libucrt:lcidtoname_downlevel.obj
 0002:00002bd8       ??_C@_1M@HLGMDFHM@?$AAi?$AAt?$AA?9?$AAC?$AAH?$AA?$AA@ 10014bd8     libucrt:lcidtoname_downlevel.obj
 0002:00002be4       ??_C@_1M@CLLBGJH@?$AAn?$AAl?$AA?9?$AAB?$AAE?$AA?$AA@ 10014be4     libucrt:lcidtoname_downlevel.obj
 0002:00002bf0       ??_C@_1M@BODBOGLF@?$AAn?$AAn?$AA?9?$AAN?$AAO?$AA?$AA@ 10014bf0     libucrt:lcidtoname_downlevel.obj
 0002:00002bfc       ??_C@_1M@HFFAHKAD@?$AAp?$AAt?$AA?9?$AAP?$AAT?$AA?$AA@ 10014bfc     libucrt:lcidtoname_downlevel.obj
 0002:00002c08       ??_C@_1BG@LNOAKHIE@?$AAs?$AAr?$AA?9?$AAS?$AAP?$AA?9?$AAL?$AAa?$AAt?$AAn?$AA?$AA@ 10014c08     libucrt:lcidtoname_downlevel.obj
 0002:00002c20       ??_C@_1M@HBMHBGAK@?$AAs?$AAv?$AA?9?$AAF?$AAI?$AA?$AA@ 10014c20     libucrt:lcidtoname_downlevel.obj
 0002:00002c2c       ??_C@_1BG@DGCJGJBE@?$AAa?$AAz?$AA?9?$AAA?$AAZ?$AA?9?$AAC?$AAy?$AAr?$AAl?$AA?$AA@ 10014c2c     libucrt:lcidtoname_downlevel.obj
 0002:00002c44       ??_C@_1M@KEJDAAHB@?$AAs?$AAe?$AA?9?$AAS?$AAE?$AA?$AA@ 10014c44     libucrt:lcidtoname_downlevel.obj
 0002:00002c50       ??_C@_1M@HEIBJJAD@?$AAm?$AAs?$AA?9?$AAB?$AAN?$AA?$AA@ 10014c50     libucrt:lcidtoname_downlevel.obj
 0002:00002c5c       ??_C@_1BG@PBGJMCEM@?$AAu?$AAz?$AA?9?$AAU?$AAZ?$AA?9?$AAC?$AAy?$AAr?$AAl?$AA?$AA@ 10014c5c     libucrt:lcidtoname_downlevel.obj
 0002:00002c74       ??_C@_1O@LAOBCMDF@?$AAq?$AAu?$AAz?$AA?9?$AAE?$AAC?$AA?$AA@ 10014c74     libucrt:lcidtoname_downlevel.obj
 0002:00002c84       ??_C@_1M@POEEMAIO@?$AAa?$AAr?$AA?9?$AAE?$AAG?$AA?$AA@ 10014c84     libucrt:lcidtoname_downlevel.obj
 0002:00002c90       ??_C@_1M@EFAKDEDL@?$AAz?$AAh?$AA?9?$AAH?$AAK?$AA?$AA@ 10014c90     libucrt:lcidtoname_downlevel.obj
 0002:00002c9c       ??_C@_1M@HKKIJHGI@?$AAd?$AAe?$AA?9?$AAA?$AAT?$AA?$AA@ 10014c9c     libucrt:lcidtoname_downlevel.obj
 0002:00002ca8       ??_C@_1M@KBFBEHJF@?$AAe?$AAn?$AA?9?$AAA?$AAU?$AA?$AA@ 10014ca8     libucrt:lcidtoname_downlevel.obj
 0002:00002cb4       ??_C@_1M@MNPLFAAH@?$AAe?$AAs?$AA?9?$AAE?$AAS?$AA?$AA@ 10014cb4     libucrt:lcidtoname_downlevel.obj
 0002:00002cc0       ??_C@_1M@HJOOJFMA@?$AAf?$AAr?$AA?9?$AAC?$AAA?$AA?$AA@ 10014cc0     libucrt:lcidtoname_downlevel.obj
 0002:00002ccc       ??_C@_1BG@JPOFPNAB@?$AAs?$AAr?$AA?9?$AAS?$AAP?$AA?9?$AAC?$AAy?$AAr?$AAl?$AA?$AA@ 10014ccc     libucrt:lcidtoname_downlevel.obj
 0002:00002ce4       ??_C@_1M@LNFOCMOB@?$AAs?$AAe?$AA?9?$AAF?$AAI?$AA?$AA@ 10014ce4     libucrt:lcidtoname_downlevel.obj
 0002:00002cf0       ??_C@_1O@MGJBOAMB@?$AAq?$AAu?$AAz?$AA?9?$AAP?$AAE?$AA?$AA@ 10014cf0     libucrt:lcidtoname_downlevel.obj
 0002:00002d00       ??_C@_1M@GJINLBOK@?$AAa?$AAr?$AA?9?$AAL?$AAY?$AA?$AA@ 10014d00     libucrt:lcidtoname_downlevel.obj
 0002:00002d0c       ??_C@_1M@GGMNHJNL@?$AAz?$AAh?$AA?9?$AAS?$AAG?$AA?$AA@ 10014d0c     libucrt:lcidtoname_downlevel.obj
 0002:00002d18       ??_C@_1M@HOIKODND@?$AAd?$AAe?$AA?9?$AAL?$AAU?$AA?$AA@ 10014d18     libucrt:lcidtoname_downlevel.obj
 0002:00002d24       ??_C@_1M@DDOCCGFG@?$AAe?$AAn?$AA?9?$AAC?$AAA?$AA?$AA@ 10014d24     libucrt:lcidtoname_downlevel.obj
 0002:00002d30       ??_C@_1M@BNOEMJLF@?$AAe?$AAs?$AA?9?$AAG?$AAT?$AA?$AA@ 10014d30     libucrt:lcidtoname_downlevel.obj
 0002:00002d3c       ??_C@_1M@EOGNKEK@?$AAf?$AAr?$AA?9?$AAC?$AAH?$AA?$AA@ 10014d3c     libucrt:lcidtoname_downlevel.obj
 0002:00002d48       ??_C@_1M@FLIDJFHL@?$AAh?$AAr?$AA?9?$AAB?$AAA?$AA?$AA@ 10014d48     libucrt:lcidtoname_downlevel.obj
 0002:00002d54       ??_C@_1O@FMCELNAJ@?$AAs?$AAm?$AAj?$AA?9?$AAN?$AAO?$AA?$AA@ 10014d54     libucrt:lcidtoname_downlevel.obj
 0002:00002d64       ??_C@_1M@JHGLJMGJ@?$AAa?$AAr?$AA?9?$AAD?$AAZ?$AA?$AA@ 10014d64     libucrt:lcidtoname_downlevel.obj
 0002:00002d70       ??_C@_1M@JKKFDCNP@?$AAz?$AAh?$AA?9?$AAM?$AAO?$AA?$AA@ 10014d70     libucrt:lcidtoname_downlevel.obj
 0002:00002d7c       ??_C@_1M@GEEFALPE@?$AAd?$AAe?$AA?9?$AAL?$AAI?$AA?$AA@ 10014d7c     libucrt:lcidtoname_downlevel.obj
 0002:00002d88       ??_C@_1M@IGEOFBG@?$AAe?$AAn?$AA?9?$AAN?$AAZ?$AA?$AA@ 10014d88     libucrt:lcidtoname_downlevel.obj
 0002:00002d94       ??_C@_1M@KDBONEHP@?$AAe?$AAs?$AA?9?$AAC?$AAR?$AA?$AA@ 10014d94     libucrt:lcidtoname_downlevel.obj
 0002:00002da0       ??_C@_1M@FHMDOHNN@?$AAf?$AAr?$AA?9?$AAL?$AAU?$AA?$AA@ 10014da0     libucrt:lcidtoname_downlevel.obj
 0002:00002dac       ??_C@_1BG@NFKKMAFG@?$AAb?$AAs?$AA?9?$AAB?$AAA?$AA?9?$AAL?$AAa?$AAt?$AAn?$AA?$AA@ 10014dac     libucrt:lcidtoname_downlevel.obj
 0002:00002dc4       ??_C@_1O@IMNBEMCI@?$AAs?$AAm?$AAj?$AA?9?$AAS?$AAE?$AA?$AA@ 10014dc4     libucrt:lcidtoname_downlevel.obj
 0002:00002dd4       ??_C@_1M@DHHMBNDP@?$AAa?$AAr?$AA?9?$AAM?$AAA?$AA?$AA@ 10014dd4     libucrt:lcidtoname_downlevel.obj
 0002:00002de0       ??_C@_1M@BNBLJCGH@?$AAe?$AAn?$AA?9?$AAI?$AAE?$AA?$AA@ 10014de0     libucrt:lcidtoname_downlevel.obj
 0002:00002dec       ??_C@_1M@GEPAFMDL@?$AAe?$AAs?$AA?9?$AAP?$AAA?$AA?$AA@ 10014dec     libucrt:lcidtoname_downlevel.obj
 0002:00002df8       ??_C@_1M@OJONDMDL@?$AAf?$AAr?$AA?9?$AAM?$AAC?$AA?$AA@ 10014df8     libucrt:lcidtoname_downlevel.obj
 0002:00002e04       ??_C@_1BG@OBCNFJB@?$AAs?$AAr?$AA?9?$AAB?$AAA?$AA?9?$AAL?$AAa?$AAt?$AAn?$AA?$AA@ 10014e04     libucrt:lcidtoname_downlevel.obj
 0002:00002e1c       ??_C@_1O@KEMEEGPO@?$AAs?$AAm?$AAa?$AA?9?$AAN?$AAO?$AA?$AA@ 10014e1c     libucrt:lcidtoname_downlevel.obj
 0002:00002e2c       ??_C@_1M@ELMGFODK@?$AAa?$AAr?$AA?9?$AAT?$AAN?$AA?$AA@ 10014e2c     libucrt:lcidtoname_downlevel.obj
 0002:00002e38       ??_C@_1M@BHDLHFAF@?$AAe?$AAn?$AA?9?$AAZ?$AAA?$AA?$AA@ 10014e38     libucrt:lcidtoname_downlevel.obj
 0002:00002e44       ??_C@_1M@BMGIGLIF@?$AAe?$AAs?$AA?9?$AAD?$AAO?$AA?$AA@ 10014e44     libucrt:lcidtoname_downlevel.obj
 0002:00002e50       ??_C@_1BG@CMBHIPBE@?$AAs?$AAr?$AA?9?$AAB?$AAA?$AA?9?$AAC?$AAy?$AAr?$AAl?$AA?$AA@ 10014e50     libucrt:lcidtoname_downlevel.obj
 0002:00002e68       ??_C@_1O@HEDBLHNP@?$AAs?$AAm?$AAa?$AA?9?$AAS?$AAE?$AA?$AA@ 10014e68     libucrt:lcidtoname_downlevel.obj
 0002:00002e78       ??_C@_1M@DAGCADIM@?$AAa?$AAr?$AA?9?$AAO?$AAM?$AA?$AA@ 10014e78     libucrt:lcidtoname_downlevel.obj
 0002:00002e84       ??_C@_1M@FODLMICG@?$AAe?$AAn?$AA?9?$AAJ?$AAM?$AA?$AA@ 10014e84     libucrt:lcidtoname_downlevel.obj
 0002:00002e90       ??_C@_1M@DNMLCIHB@?$AAe?$AAs?$AA?9?$AAV?$AAE?$AA?$AA@ 10014e90     libucrt:lcidtoname_downlevel.obj
 0002:00002e9c       ??_C@_1O@EOKHMKJK@?$AAs?$AAm?$AAs?$AA?9?$AAF?$AAI?$AA?$AA@ 10014e9c     libucrt:lcidtoname_downlevel.obj
 0002:00002eac       ??_C@_1M@CAFJMKOF@?$AAa?$AAr?$AA?9?$AAY?$AAE?$AA?$AA@ 10014eac     libucrt:lcidtoname_downlevel.obj
 0002:00002eb8       ??_C@_1M@CBFHIJLI@?$AAe?$AAn?$AA?9?$AAC?$AAB?$AA?$AA@ 10014eb8     libucrt:lcidtoname_downlevel.obj
 0002:00002ec4       ??_C@_1M@BGNFLDN@?$AAe?$AAs?$AA?9?$AAC?$AAO?$AA?$AA@ 10014ec4     libucrt:lcidtoname_downlevel.obj
 0002:00002ed0       ??_C@_1O@JMPHMAMC@?$AAs?$AAm?$AAn?$AA?9?$AAF?$AAI?$AA?$AA@ 10014ed0     libucrt:lcidtoname_downlevel.obj
 0002:00002ee0       ??_C@_1M@JLANABKE@?$AAa?$AAr?$AA?9?$AAS?$AAY?$AA?$AA@ 10014ee0     libucrt:lcidtoname_downlevel.obj
 0002:00002eec       ??_C@_1M@HPKGCFGN@?$AAe?$AAn?$AA?9?$AAB?$AAZ?$AA?$AA@ 10014eec     libucrt:lcidtoname_downlevel.obj
 0002:00002ef8       ??_C@_1M@OLJCMLGM@?$AAe?$AAs?$AA?9?$AAP?$AAE?$AA?$AA@ 10014ef8     libucrt:lcidtoname_downlevel.obj
 0002:00002f04       ??_C@_1M@MKKGFKLE@?$AAa?$AAr?$AA?9?$AAJ?$AAO?$AA?$AA@ 10014f04     libucrt:lcidtoname_downlevel.obj
 0002:00002f10       ??_C@_1M@EKPGLDNI@?$AAe?$AAn?$AA?9?$AAT?$AAT?$AA?$AA@ 10014f10     libucrt:lcidtoname_downlevel.obj
 0002:00002f1c       ??_C@_1M@OONGHFHE@?$AAe?$AAs?$AA?9?$AAA?$AAR?$AA?$AA@ 10014f1c     libucrt:lcidtoname_downlevel.obj
 0002:00002f28       ??_C@_1M@OOJFGBHE@?$AAa?$AAr?$AA?9?$AAL?$AAB?$AA?$AA@ 10014f28     libucrt:lcidtoname_downlevel.obj
 0002:00002f34       ??_C@_1M@GCEJHNEG@?$AAe?$AAn?$AA?9?$AAZ?$AAW?$AA?$AA@ 10014f34     libucrt:lcidtoname_downlevel.obj
 0002:00002f40       ??_C@_1M@JNOCAHJI@?$AAe?$AAs?$AA?9?$AAE?$AAC?$AA?$AA@ 10014f40     libucrt:lcidtoname_downlevel.obj
 0002:00002f4c       ??_C@_1M@JEFHPGGB@?$AAa?$AAr?$AA?9?$AAK?$AAW?$AA?$AA@ 10014f4c     libucrt:lcidtoname_downlevel.obj
 0002:00002f58       ??_C@_1M@MLKIBJOJ@?$AAe?$AAn?$AA?9?$AAP?$AAH?$AA?$AA@ 10014f58     libucrt:lcidtoname_downlevel.obj
 0002:00002f64       ??_C@_1M@BDNIPEND@?$AAe?$AAs?$AA?9?$AAC?$AAL?$AA?$AA@ 10014f64     libucrt:lcidtoname_downlevel.obj
 0002:00002f70       ??_C@_1M@MPNMEKBD@?$AAa?$AAr?$AA?9?$AAA?$AAE?$AA?$AA@ 10014f70     libucrt:lcidtoname_downlevel.obj
 0002:00002f7c       ??_C@_1M@KBJALCPI@?$AAe?$AAs?$AA?9?$AAU?$AAY?$AA?$AA@ 10014f7c     libucrt:lcidtoname_downlevel.obj
 0002:00002f88       ??_C@_1M@LLCCOAGA@?$AAa?$AAr?$AA?9?$AAB?$AAH?$AA?$AA@ 10014f88     libucrt:lcidtoname_downlevel.obj
 0002:00002f94       ??_C@_1M@PBFNCDEL@?$AAe?$AAs?$AA?9?$AAP?$AAY?$AA?$AA@ 10014f94     libucrt:lcidtoname_downlevel.obj
 0002:00002fa0       ??_C@_1M@EDGINPNP@?$AAa?$AAr?$AA?9?$AAQ?$AAA?$AA?$AA@ 10014fa0     libucrt:lcidtoname_downlevel.obj
 0002:00002fac       ??_C@_1M@MKDBIIJI@?$AAe?$AAs?$AA?9?$AAB?$AAO?$AA?$AA@ 10014fac     libucrt:lcidtoname_downlevel.obj
 0002:00002fb8       ??_C@_1M@CPKKEBLD@?$AAe?$AAs?$AA?9?$AAS?$AAV?$AA?$AA@ 10014fb8     libucrt:lcidtoname_downlevel.obj
 0002:00002fc4       ??_C@_1M@NDBGMMJL@?$AAe?$AAs?$AA?9?$AAH?$AAN?$AA?$AA@ 10014fc4     libucrt:lcidtoname_downlevel.obj
 0002:00002fd0       ??_C@_1M@JIJIBHDP@?$AAe?$AAs?$AA?9?$AAN?$AAI?$AA?$AA@ 10014fd0     libucrt:lcidtoname_downlevel.obj
 0002:00002fdc       ??_C@_1M@CGFMKEEK@?$AAe?$AAs?$AA?9?$AAP?$AAR?$AA?$AA@ 10014fdc     libucrt:lcidtoname_downlevel.obj
 0002:00002fe8       ??_C@_1O@ICJHKIIK@?$AAz?$AAh?$AA?9?$AAC?$AAH?$AAT?$AA?$AA@ 10014fe8     libucrt:lcidtoname_downlevel.obj
 0002:00002ff8       ??_C@_15CLNEJCE@?$AAs?$AAr?$AA?$AA@ 10014ff8     libucrt:lcidtoname_downlevel.obj
 0002:00003720       ??_C@_1M@KAHEKEIG@?$AAa?$AAf?$AA?9?$AAz?$AAa?$AA?$AA@ 10015720     libucrt:lcidtoname_downlevel.obj
 0002:0000372c       ??_C@_1M@GIECOABL@?$AAa?$AAr?$AA?9?$AAa?$AAe?$AA?$AA@ 1001572c     libucrt:lcidtoname_downlevel.obj
 0002:00003738       ??_C@_1M@BMLMEKGI@?$AAa?$AAr?$AA?9?$AAb?$AAh?$AA?$AA@ 10015738     libucrt:lcidtoname_downlevel.obj
 0002:00003744       ??_C@_1M@DAPFDGGB@?$AAa?$AAr?$AA?9?$AAd?$AAz?$AA?$AA@ 10015744     libucrt:lcidtoname_downlevel.obj
 0002:00003750       ??_C@_1M@FJNKGKIG@?$AAa?$AAr?$AA?9?$AAe?$AAg?$AA?$AA@ 10015750     libucrt:lcidtoname_downlevel.obj
 0002:0000375c       ??_C@_1M@FLGKKCLO@?$AAa?$AAr?$AA?9?$AAi?$AAq?$AA?$AA@ 1001575c     libucrt:lcidtoname_downlevel.obj
 0002:00003768       ??_C@_1M@GNDIPALM@?$AAa?$AAr?$AA?9?$AAj?$AAo?$AA?$AA@ 10015768     libucrt:lcidtoname_downlevel.obj
 0002:00003774       ??_C@_1M@DDMJFMGJ@?$AAa?$AAr?$AA?9?$AAk?$AAw?$AA?$AA@ 10015774     libucrt:lcidtoname_downlevel.obj
 0002:00003780       ??_C@_1M@EJALMLHM@?$AAa?$AAr?$AA?9?$AAl?$AAb?$AA?$AA@ 10015780     libucrt:lcidtoname_downlevel.obj
 0002:0000378c       ??_C@_1M@MOBDBLOC@?$AAa?$AAr?$AA?9?$AAl?$AAy?$AA?$AA@ 1001578c     libucrt:lcidtoname_downlevel.obj
 0002:00003798       ??_C@_1M@JAOCLHDH@?$AAa?$AAr?$AA?9?$AAm?$AAa?$AA?$AA@ 10015798     libucrt:lcidtoname_downlevel.obj
 0002:000037a4       ??_C@_1M@JHPMKJIE@?$AAa?$AAr?$AA?9?$AAo?$AAm?$AA?$AA@ 100157a4     libucrt:lcidtoname_downlevel.obj
 0002:000037b0       ??_C@_1M@OEPGHFNH@?$AAa?$AAr?$AA?9?$AAq?$AAa?$AA?$AA@ 100157b0     libucrt:lcidtoname_downlevel.obj
 0002:000037bc       ??_C@_1M@KJDONENM@?$AAa?$AAr?$AA?9?$AAs?$AAa?$AA?$AA@ 100157bc     libucrt:lcidtoname_downlevel.obj
 0002:000037c8       ??_C@_1M@DMJDKLKM@?$AAa?$AAr?$AA?9?$AAs?$AAy?$AA?$AA@ 100157c8     libucrt:lcidtoname_downlevel.obj
 0002:000037d4       ??_C@_1M@OMFIPEDC@?$AAa?$AAr?$AA?9?$AAt?$AAn?$AA?$AA@ 100157d4     libucrt:lcidtoname_downlevel.obj
 0002:000037e0       ??_C@_1M@IHMHGAON@?$AAa?$AAr?$AA?9?$AAy?$AAe?$AA?$AA@ 100157e0     libucrt:lcidtoname_downlevel.obj
 0002:000037ec       ??_C@_1BG@KDCPGJGB@?$AAa?$AAz?$AA?9?$AAa?$AAz?$AA?9?$AAc?$AAy?$AAr?$AAl?$AA?$AA@ 100157ec     libucrt:lcidtoname_downlevel.obj
 0002:00003804       ??_C@_1BG@IBCKDDOE@?$AAa?$AAz?$AA?9?$AAa?$AAz?$AA?9?$AAl?$AAa?$AAt?$AAn?$AA?$AA@ 10015804     libucrt:lcidtoname_downlevel.obj
 0002:0000381c       ??_C@_1M@EGPFDCPD@?$AAb?$AAe?$AA?9?$AAb?$AAy?$AA?$AA@ 1001581c     libucrt:lcidtoname_downlevel.obj
 0002:00003828       ??_C@_1M@PCMGMCGC@?$AAb?$AAg?$AA?9?$AAb?$AAg?$AA?$AA@ 10015828     libucrt:lcidtoname_downlevel.obj
 0002:00003834       ??_C@_1M@BJBMFGOB@?$AAb?$AAn?$AA?9?$AAi?$AAn?$AA?$AA@ 10015834     libucrt:lcidtoname_downlevel.obj
 0002:00003840       ??_C@_1BG@EAKMMACD@?$AAb?$AAs?$AA?9?$AAb?$AAa?$AA?9?$AAl?$AAa?$AAt?$AAn?$AA?$AA@ 10015840     libucrt:lcidtoname_downlevel.obj
 0002:00003858       ??_C@_1M@KGADAODK@?$AAc?$AAa?$AA?9?$AAe?$AAs?$AA?$AA@ 10015858     libucrt:lcidtoname_downlevel.obj
 0002:00003864       ??_C@_1M@COAJPDHI@?$AAc?$AAs?$AA?9?$AAc?$AAz?$AA?$AA@ 10015864     libucrt:lcidtoname_downlevel.obj
 0002:00003870       ??_C@_1M@DHBHFONH@?$AAc?$AAy?$AA?9?$AAg?$AAb?$AA?$AA@ 10015870     libucrt:lcidtoname_downlevel.obj
 0002:0000387c       ??_C@_1M@IMGKELGA@?$AAd?$AAa?$AA?9?$AAd?$AAk?$AA?$AA@ 1001587c     libucrt:lcidtoname_downlevel.obj
 0002:00003888       ??_C@_1M@NNDGDNGA@?$AAd?$AAe?$AA?9?$AAa?$AAt?$AA?$AA@ 10015888     libucrt:lcidtoname_downlevel.obj
 0002:00003894       ??_C@_1M@IKDBHEEM@?$AAd?$AAe?$AA?9?$AAc?$AAh?$AA?$AA@ 10015894     libucrt:lcidtoname_downlevel.obj
 0002:000038a0       ??_C@_1M@GFFOJMCJ@?$AAd?$AAe?$AA?9?$AAd?$AAe?$AA?$AA@ 100158a0     libucrt:lcidtoname_downlevel.obj
 0002:000038ac       ??_C@_1M@MDNLKBPM@?$AAd?$AAe?$AA?9?$AAl?$AAi?$AA?$AA@ 100158ac     libucrt:lcidtoname_downlevel.obj
 0002:000038b8       ??_C@_1M@NJBEEJNL@?$AAd?$AAe?$AA?9?$AAl?$AAu?$AA?$AA@ 100158b8     libucrt:lcidtoname_downlevel.obj
 0002:000038c4       ??_C@_1O@GNNELBAP@?$AAd?$AAi?$AAv?$AA?9?$AAm?$AAv?$AA?$AA@ 100158c4     libucrt:lcidtoname_downlevel.obj
 0002:000038d4       ??_C@_1M@EJLEOGAE@?$AAe?$AAl?$AA?9?$AAg?$AAr?$AA?$AA@ 100158d4     libucrt:lcidtoname_downlevel.obj
 0002:000038e0       ??_C@_1M@GMPONJN@?$AAe?$AAn?$AA?9?$AAa?$AAu?$AA?$AA@ 100158e0     libucrt:lcidtoname_downlevel.obj
 0002:000038ec       ??_C@_1M@NIDIIPGF@?$AAe?$AAn?$AA?9?$AAb?$AAz?$AA?$AA@ 100158ec     libucrt:lcidtoname_downlevel.obj
 0002:000038f8       ??_C@_1M@JEHMIMFO@?$AAe?$AAn?$AA?9?$AAc?$AAa?$AA?$AA@ 100158f8     libucrt:lcidtoname_downlevel.obj
 0002:00003904       ??_C@_1M@IGMJCDLA@?$AAe?$AAn?$AA?9?$AAc?$AAb?$AA?$AA@ 10015904     libucrt:lcidtoname_downlevel.obj
 0002:00003910       ??_C@_1M@BNFIGBKG@?$AAe?$AAn?$AA?9?$AAg?$AAb?$AA?$AA@ 10015910     libucrt:lcidtoname_downlevel.obj
 0002:0000391c       ??_C@_1M@LKIFDIGP@?$AAe?$AAn?$AA?9?$AAi?$AAe?$AA?$AA@ 1001591c     libucrt:lcidtoname_downlevel.obj
 0002:00003928       ??_C@_1M@PJKFGCCO@?$AAe?$AAn?$AA?9?$AAj?$AAm?$AA?$AA@ 10015928     libucrt:lcidtoname_downlevel.obj
 0002:00003934       ??_C@_1M@KPPKEPBO@?$AAe?$AAn?$AA?9?$AAn?$AAz?$AA?$AA@ 10015934     libucrt:lcidtoname_downlevel.obj
 0002:00003940       ??_C@_1M@GMDGLDOB@?$AAe?$AAn?$AA?9?$AAp?$AAh?$AA?$AA@ 10015940     libucrt:lcidtoname_downlevel.obj
 0002:0000394c       ??_C@_1M@ONGIBJNA@?$AAe?$AAn?$AA?9?$AAt?$AAt?$AA?$AA@ 1001594c     libucrt:lcidtoname_downlevel.obj
 0002:00003958       ??_C@_1M@LLODPCMM@?$AAe?$AAn?$AA?9?$AAu?$AAs?$AA?$AA@ 10015958     libucrt:lcidtoname_downlevel.obj
 0002:00003964       ??_C@_1M@LAKFNPAN@?$AAe?$AAn?$AA?9?$AAz?$AAa?$AA?$AA@ 10015964     libucrt:lcidtoname_downlevel.obj
 0002:00003970       ??_C@_1M@MFNHNHEO@?$AAe?$AAn?$AA?9?$AAz?$AAw?$AA?$AA@ 10015970     libucrt:lcidtoname_downlevel.obj
 0002:0000397c       ??_C@_1M@EJEINPHM@?$AAe?$AAs?$AA?9?$AAa?$AAr?$AA?$AA@ 1001597c     libucrt:lcidtoname_downlevel.obj
 0002:00003988       ??_C@_1M@GNKPCCJA@?$AAe?$AAs?$AA?9?$AAb?$AAo?$AA?$AA@ 10015988     libucrt:lcidtoname_downlevel.obj
 0002:00003994       ??_C@_1M@LEEGFONL@?$AAe?$AAs?$AA?9?$AAc?$AAl?$AA?$AA@ 10015994     libucrt:lcidtoname_downlevel.obj
 0002:000039a0       ??_C@_1M@KGPDPBDF@?$AAe?$AAs?$AA?9?$AAc?$AAo?$AA?$AA@ 100159a0     libucrt:lcidtoname_downlevel.obj
 0002:000039ac       ??_C@_1M@EIAHOHH@?$AAe?$AAs?$AA?9?$AAc?$AAr?$AA?$AA@ 100159ac     libucrt:lcidtoname_downlevel.obj
 0002:000039b8       ??_C@_1M@LLPGMBIN@?$AAe?$AAs?$AA?9?$AAd?$AAo?$AA?$AA@ 100159b8     libucrt:lcidtoname_downlevel.obj
 0002:000039c4       ??_C@_1M@DKHMKNJA@?$AAe?$AAs?$AA?9?$AAe?$AAc?$AA?$AA@ 100159c4     libucrt:lcidtoname_downlevel.obj
 0002:000039d0       ??_C@_1M@GKGFPKAP@?$AAe?$AAs?$AA?9?$AAe?$AAs?$AA?$AA@ 100159d0     libucrt:lcidtoname_downlevel.obj
 0002:000039dc       ??_C@_1M@LKHKGDLN@?$AAe?$AAs?$AA?9?$AAg?$AAt?$AA?$AA@ 100159dc     libucrt:lcidtoname_downlevel.obj
 0002:000039e8       ??_C@_1M@HEIIGGJD@?$AAe?$AAs?$AA?9?$AAh?$AAn?$AA?$AA@ 100159e8     libucrt:lcidtoname_downlevel.obj
 0002:000039f4       ??_C@_1M@FBDHPPGD@?$AAe?$AAs?$AA?9?$AAm?$AAx?$AA?$AA@ 100159f4     libucrt:lcidtoname_downlevel.obj
 0002:00003a00       ??_C@_1M@DPAGLNDH@?$AAe?$AAs?$AA?9?$AAn?$AAi?$AA?$AA@ 10015a00     libucrt:lcidtoname_downlevel.obj
 0002:00003a0c       ??_C@_1M@MDGOPGDD@?$AAe?$AAs?$AA?9?$AAp?$AAa?$AA?$AA@ 10015a0c     libucrt:lcidtoname_downlevel.obj
 0002:00003a18       ??_C@_1M@EMAMGBGE@?$AAe?$AAs?$AA?9?$AAp?$AAe?$AA?$AA@ 10015a18     libucrt:lcidtoname_downlevel.obj
 0002:00003a24       ??_C@_1M@IBMCAOEC@?$AAe?$AAs?$AA?9?$AAp?$AAr?$AA?$AA@ 10015a24     libucrt:lcidtoname_downlevel.obj
 0002:00003a30       ??_C@_1M@FGMDIJED@?$AAe?$AAs?$AA?9?$AAp?$AAy?$AA?$AA@ 10015a30     libucrt:lcidtoname_downlevel.obj
 0002:00003a3c       ??_C@_1M@IIDEOLLL@?$AAe?$AAs?$AA?9?$AAs?$AAv?$AA?$AA@ 10015a3c     libucrt:lcidtoname_downlevel.obj
 0002:00003a48       ??_C@_1M@GAOBIPA@?$AAe?$AAs?$AA?9?$AAu?$AAy?$AA?$AA@ 10015a48     libucrt:lcidtoname_downlevel.obj
 0002:00003a54       ??_C@_1M@JKFFICHJ@?$AAe?$AAs?$AA?9?$AAv?$AAe?$AA?$AA@ 10015a54     libucrt:lcidtoname_downlevel.obj
 0002:00003a60       ??_C@_1M@PNMLOJDF@?$AAe?$AAt?$AA?9?$AAe?$AAe?$AA?$AA@ 10015a60     libucrt:lcidtoname_downlevel.obj
 0002:00003a6c       ??_C@_1M@GHHLIKEI@?$AAe?$AAu?$AA?9?$AAe?$AAs?$AA?$AA@ 10015a6c     libucrt:lcidtoname_downlevel.obj
 0002:00003a78       ??_C@_1M@PBNONODE@?$AAf?$AAa?$AA?9?$AAi?$AAr?$AA?$AA@ 10015a78     libucrt:lcidtoname_downlevel.obj
 0002:00003a84       ??_C@_1M@JEEHPMIL@?$AAf?$AAi?$AA?9?$AAf?$AAi?$AA?$AA@ 10015a84     libucrt:lcidtoname_downlevel.obj
 0002:00003a90       ??_C@_1M@LMDCNDBA@?$AAf?$AAo?$AA?9?$AAf?$AAo?$AA?$AA@ 10015a90     libucrt:lcidtoname_downlevel.obj
 0002:00003a9c       ??_C@_1M@JKEOHLDK@?$AAf?$AAr?$AA?9?$AAb?$AAe?$AA?$AA@ 10015a9c     libucrt:lcidtoname_downlevel.obj
 0002:00003aa8       ??_C@_1M@NOHADPMI@?$AAf?$AAr?$AA?9?$AAc?$AAa?$AA?$AA@ 10015aa8     libucrt:lcidtoname_downlevel.obj
 0002:00003ab4       ??_C@_1M@KDHIHAEC@?$AAf?$AAr?$AA?9?$AAc?$AAh?$AA?$AA@ 10015ab4     libucrt:lcidtoname_downlevel.obj
 0002:00003ac0       ??_C@_1M@MMBBFGAK@?$AAf?$AAr?$AA?9?$AAf?$AAr?$AA?$AA@ 10015ac0     libucrt:lcidtoname_downlevel.obj
 0002:00003acc       ??_C@_1M@PAFNENNF@?$AAf?$AAr?$AA?9?$AAl?$AAu?$AA?$AA@ 10015acc     libucrt:lcidtoname_downlevel.obj
 0002:00003ad8       ??_C@_1M@EOHDJGDD@?$AAf?$AAr?$AA?9?$AAm?$AAc?$AA?$AA@ 10015ad8     libucrt:lcidtoname_downlevel.obj
 0002:00003ae4       ??_C@_1M@FAPLLOPF@?$AAg?$AAl?$AA?9?$AAe?$AAs?$AA?$AA@ 10015ae4     libucrt:lcidtoname_downlevel.obj
 0002:00003af0       ??_C@_1M@FOPBFLOO@?$AAg?$AAu?$AA?9?$AAi?$AAn?$AA?$AA@ 10015af0     libucrt:lcidtoname_downlevel.obj
 0002:00003afc       ??_C@_1M@KBMCINPM@?$AAh?$AAe?$AA?9?$AAi?$AAl?$AA?$AA@ 10015afc     libucrt:lcidtoname_downlevel.obj
 0002:00003b08       ??_C@_1M@BBPHKFPJ@?$AAh?$AAi?$AA?9?$AAi?$AAn?$AA?$AA@ 10015b08     libucrt:lcidtoname_downlevel.obj
 0002:00003b14       ??_C@_1M@PMBNDPHD@?$AAh?$AAr?$AA?9?$AAb?$AAa?$AA?$AA@ 10015b14     libucrt:lcidtoname_downlevel.obj
 0002:00003b20       ??_C@_1M@BPCKOEGE@?$AAh?$AAr?$AA?9?$AAh?$AAr?$AA?$AA@ 10015b20     libucrt:lcidtoname_downlevel.obj
 0002:00003b2c       ??_C@_1M@GACBMHKE@?$AAh?$AAu?$AA?9?$AAh?$AAu?$AA?$AA@ 10015b2c     libucrt:lcidtoname_downlevel.obj
 0002:00003b38       ??_C@_1M@MILPAJJC@?$AAh?$AAy?$AA?9?$AAa?$AAm?$AA?$AA@ 10015b38     libucrt:lcidtoname_downlevel.obj
 0002:00003b44       ??_C@_1M@BABBICEC@?$AAi?$AAd?$AA?9?$AAi?$AAd?$AA?$AA@ 10015b44     libucrt:lcidtoname_downlevel.obj
 0002:00003b50       ??_C@_1M@BIKNHHPF@?$AAi?$AAs?$AA?9?$AAi?$AAs?$AA?$AA@ 10015b50     libucrt:lcidtoname_downlevel.obj
 0002:00003b5c       ??_C@_1M@NMPCJPHE@?$AAi?$AAt?$AA?9?$AAc?$AAh?$AA?$AA@ 10015b5c     libucrt:lcidtoname_downlevel.obj
 0002:00003b68       ??_C@_1M@GHKGFEDF@?$AAi?$AAt?$AA?9?$AAi?$AAt?$AA?$AA@ 10015b68     libucrt:lcidtoname_downlevel.obj
 0002:00003b74       ??_C@_1M@NIEJCJJA@?$AAj?$AAa?$AA?9?$AAj?$AAp?$AA?$AA@ 10015b74     libucrt:lcidtoname_downlevel.obj
 0002:00003b80       ??_C@_1M@JILFNBIM@?$AAk?$AAa?$AA?9?$AAg?$AAe?$AA?$AA@ 10015b80     libucrt:lcidtoname_downlevel.obj
 0002:00003b8c       ??_C@_1M@PACPMGPH@?$AAk?$AAk?$AA?9?$AAk?$AAz?$AA?$AA@ 10015b8c     libucrt:lcidtoname_downlevel.obj
 0002:00003b98       ??_C@_1M@IELFGMHA@?$AAk?$AAn?$AA?9?$AAi?$AAn?$AA?$AA@ 10015b98     libucrt:lcidtoname_downlevel.obj
 0002:00003ba4       ??_C@_1O@IBBJHCH@?$AAk?$AAo?$AAk?$AA?9?$AAi?$AAn?$AA?$AA@ 10015ba4     libucrt:lcidtoname_downlevel.obj
 0002:00003bb4       ??_C@_1M@DMHAEOGC@?$AAk?$AAo?$AA?9?$AAk?$AAr?$AA?$AA@ 10015bb4     libucrt:lcidtoname_downlevel.obj
 0002:00003bc0       ??_C@_1M@HBAHBIGA@?$AAk?$AAy?$AA?9?$AAk?$AAg?$AA?$AA@ 10015bc0     libucrt:lcidtoname_downlevel.obj
 0002:00003bcc       ??_C@_1M@KPMILCJG@?$AAl?$AAt?$AA?9?$AAl?$AAt?$AA?$AA@ 10015bcc     libucrt:lcidtoname_downlevel.obj
 0002:00003bd8       ??_C@_1M@BDEKKCA@?$AAl?$AAv?$AA?9?$AAl?$AAv?$AA?$AA@ 10015bd8     libucrt:lcidtoname_downlevel.obj
 0002:00003be4       ??_C@_1M@ELCKCCJJ@?$AAm?$AAi?$AA?9?$AAn?$AAz?$AA?$AA@ 10015be4     libucrt:lcidtoname_downlevel.obj
 0002:00003bf0       ??_C@_1M@CBOOLAPA@?$AAm?$AAk?$AA?9?$AAm?$AAk?$AA?$AA@ 10015bf0     libucrt:lcidtoname_downlevel.obj
 0002:00003bfc       ??_C@_1M@GPHNBJKN@?$AAm?$AAl?$AA?9?$AAi?$AAn?$AA?$AA@ 10015bfc     libucrt:lcidtoname_downlevel.obj
 0002:00003c08       ??_C@_1M@PABJILIG@?$AAm?$AAn?$AA?9?$AAm?$AAn?$AA?$AA@ 10015c08     libucrt:lcidtoname_downlevel.obj
 0002:00003c14       ??_C@_1M@FGBKKIPG@?$AAm?$AAr?$AA?9?$AAi?$AAn?$AA?$AA@ 10015c14     libucrt:lcidtoname_downlevel.obj
 0002:00003c20       ??_C@_1M@NDBPDDAL@?$AAm?$AAs?$AA?9?$AAb?$AAn?$AA?$AA@ 10015c20     libucrt:lcidtoname_downlevel.obj
 0002:00003c2c       ??_C@_1M@OPIHOOPI@?$AAm?$AAs?$AA?9?$AAm?$AAy?$AA?$AA@ 10015c2c     libucrt:lcidtoname_downlevel.obj
 0002:00003c38       ??_C@_1M@PPDBCNFM@?$AAm?$AAt?$AA?9?$AAm?$AAt?$AA?$AA@ 10015c38     libucrt:lcidtoname_downlevel.obj
 0002:00003c44       ??_C@_1M@KDJDKMDD@?$AAn?$AAb?$AA?9?$AAn?$AAo?$AA?$AA@ 10015c44     libucrt:lcidtoname_downlevel.obj
 0002:00003c50       ??_C@_1M@KFCFLMJP@?$AAn?$AAl?$AA?9?$AAb?$AAe?$AA?$AA@ 10015c50     libucrt:lcidtoname_downlevel.obj
 0002:00003c5c       ??_C@_1M@KPOPDDGO@?$AAn?$AAl?$AA?9?$AAn?$AAl?$AA?$AA@ 10015c5c     libucrt:lcidtoname_downlevel.obj
 0002:00003c68       ??_C@_1M@LJKPEMLN@?$AAn?$AAn?$AA?9?$AAn?$AAo?$AA?$AA@ 10015c68     libucrt:lcidtoname_downlevel.obj
 0002:00003c74       ??_C@_1M@BDGHHBFL@?$AAn?$AAs?$AA?9?$AAz?$AAa?$AA?$AA@ 10015c74     libucrt:lcidtoname_downlevel.obj
 0002:00003c80       ??_C@_1M@IDEHOAP@?$AAp?$AAa?$AA?9?$AAi?$AAn?$AA?$AA@ 10015c80     libucrt:lcidtoname_downlevel.obj
 0002:00003c8c       ??_C@_1M@HDBKGOGH@?$AAp?$AAl?$AA?9?$AAp?$AAl?$AA?$AA@ 10015c8c     libucrt:lcidtoname_downlevel.obj
 0002:00003c98       ??_C@_1M@LJLLCMEH@?$AAp?$AAt?$AA?9?$AAb?$AAr?$AA?$AA@ 10015c98     libucrt:lcidtoname_downlevel.obj
 0002:00003ca4       ??_C@_1M@NCMONAAL@?$AAp?$AAt?$AA?9?$AAp?$AAt?$AA?$AA@ 10015ca4     libucrt:lcidtoname_downlevel.obj
 0002:00003cb0       ??_C@_1O@EAKMAJDN@?$AAq?$AAu?$AAz?$AA?9?$AAb?$AAo?$AA?$AA@ 10015cb0     libucrt:lcidtoname_downlevel.obj
 0002:00003cc0       ??_C@_1O@BHHPIGDN@?$AAq?$AAu?$AAz?$AA?9?$AAe?$AAc?$AA?$AA@ 10015cc0     libucrt:lcidtoname_downlevel.obj
 0002:00003cd0       ??_C@_1O@GBAPEKMJ@?$AAq?$AAu?$AAz?$AA?9?$AAp?$AAe?$AA?$AA@ 10015cd0     libucrt:lcidtoname_downlevel.obj
 0002:00003ce0       ??_C@_1M@CLGLEFBO@?$AAr?$AAo?$AA?9?$AAr?$AAo?$AA?$AA@ 10015ce0     libucrt:lcidtoname_downlevel.obj
 0002:00003cec       ??_C@_1M@CEEDODME@?$AAr?$AAu?$AA?9?$AAr?$AAu?$AA?$AA@ 10015cec     libucrt:lcidtoname_downlevel.obj
 0002:00003cf8       ??_C@_1M@HPKKKMPP@?$AAs?$AAa?$AA?9?$AAi?$AAn?$AA?$AA@ 10015cf8     libucrt:lcidtoname_downlevel.obj
 0002:00003d04       ??_C@_1M@BKMAIGOJ@?$AAs?$AAe?$AA?9?$AAf?$AAi?$AA?$AA@ 10015d04     libucrt:lcidtoname_downlevel.obj
 0002:00003d10       ??_C@_1M@NDPIFLFI@?$AAs?$AAe?$AA?9?$AAn?$AAo?$AA?$AA@ 10015d10     libucrt:lcidtoname_downlevel.obj
 0002:00003d1c       ??_C@_1M@DANKKHJ@?$AAs?$AAe?$AA?9?$AAs?$AAe?$AA?$AA@ 10015d1c     libucrt:lcidtoname_downlevel.obj
 0002:00003d28       ??_C@_1M@PNBLONPJ@?$AAs?$AAk?$AA?9?$AAs?$AAk?$AA?$AA@ 10015d28     libucrt:lcidtoname_downlevel.obj
 0002:00003d34       ??_C@_1M@LFMODOAL@?$AAs?$AAl?$AA?9?$AAs?$AAi?$AA?$AA@ 10015d34     libucrt:lcidtoname_downlevel.obj
 0002:00003d40       ??_C@_1O@DFKOMPG@?$AAs?$AAm?$AAa?$AA?9?$AAn?$AAo?$AA?$AA@ 10015d40     libucrt:lcidtoname_downlevel.obj
 0002:00003d50       ??_C@_1O@NDKPBNNH@?$AAs?$AAm?$AAa?$AA?9?$AAs?$AAe?$AA?$AA@ 10015d50     libucrt:lcidtoname_downlevel.obj
 0002:00003d60       ??_C@_1O@PLLKBHAB@?$AAs?$AAm?$AAj?$AA?9?$AAn?$AAo?$AA?$AA@ 10015d60     libucrt:lcidtoname_downlevel.obj
 0002:00003d70       ??_C@_1O@CLEPOGCA@?$AAs?$AAm?$AAj?$AA?9?$AAs?$AAe?$AA?$AA@ 10015d70     libucrt:lcidtoname_downlevel.obj
 0002:00003d80       ??_C@_1O@DLGJGKMK@?$AAs?$AAm?$AAn?$AA?9?$AAf?$AAi?$AA?$AA@ 10015d80     libucrt:lcidtoname_downlevel.obj
 0002:00003d90       ??_C@_1O@OJDJGAJC@?$AAs?$AAm?$AAs?$AA?9?$AAf?$AAi?$AA?$AA@ 10015d90     libucrt:lcidtoname_downlevel.obj
 0002:00003da0       ??_C@_1M@BOFOGHPB@?$AAs?$AAq?$AA?9?$AAa?$AAl?$AA?$AA@ 10015da0     libucrt:lcidtoname_downlevel.obj
 0002:00003dac       ??_C@_1BG@LJBBIPGB@?$AAs?$AAr?$AA?9?$AAb?$AAa?$AA?9?$AAc?$AAy?$AAr?$AAl?$AA?$AA@ 10015dac     libucrt:lcidtoname_downlevel.obj
 0002:00003dc4       ??_C@_1BG@JLBENFOE@?$AAs?$AAr?$AA?9?$AAb?$AAa?$AA?9?$AAl?$AAa?$AAt?$AAn?$AA?$AA@ 10015dc4     libucrt:lcidtoname_downlevel.obj
 0002:00003ddc       ??_C@_1BG@KODPNHE@?$AAs?$AAr?$AA?9?$AAs?$AAp?$AA?9?$AAc?$AAy?$AAr?$AAl?$AA?$AA@ 10015ddc     libucrt:lcidtoname_downlevel.obj
 0002:00003df4       ??_C@_1BG@CIOGKHPB@?$AAs?$AAr?$AA?9?$AAs?$AAp?$AA?9?$AAl?$AAa?$AAt?$AAn?$AA?$AA@ 10015df4     libucrt:lcidtoname_downlevel.obj
 0002:00003e0c       ??_C@_1M@NGFJLMAC@?$AAs?$AAv?$AA?9?$AAf?$AAi?$AA?$AA@ 10015e0c     libucrt:lcidtoname_downlevel.obj
 0002:00003e18       ??_C@_1M@MPJEJAJC@?$AAs?$AAv?$AA?9?$AAs?$AAe?$AA?$AA@ 10015e18     libucrt:lcidtoname_downlevel.obj
 0002:00003e24       ??_C@_1M@MPNDHLFK@?$AAs?$AAw?$AA?9?$AAk?$AAe?$AA?$AA@ 10015e24     libucrt:lcidtoname_downlevel.obj
 0002:00003e30       ??_C@_1O@KOHBJJI@?$AAs?$AAy?$AAr?$AA?9?$AAs?$AAy?$AA?$AA@ 10015e30     libucrt:lcidtoname_downlevel.obj
 0002:00003e40       ??_C@_1M@LDCEFHA@?$AAt?$AAa?$AA?9?$AAi?$AAn?$AA?$AA@ 10015e40     libucrt:lcidtoname_downlevel.obj
 0002:00003e4c       ??_C@_1M@CNJOFAK@?$AAt?$AAe?$AA?9?$AAi?$AAn?$AA?$AA@ 10015e4c     libucrt:lcidtoname_downlevel.obj
 0002:00003e58       ??_C@_1M@GNAECACD@?$AAt?$AAh?$AA?9?$AAt?$AAh?$AA?$AA@ 10015e58     libucrt:lcidtoname_downlevel.obj
 0002:00003e64       ??_C@_1M@CHBIHOJO@?$AAt?$AAn?$AA?9?$AAz?$AAa?$AA?$AA@ 10015e64     libucrt:lcidtoname_downlevel.obj
 0002:00003e70       ??_C@_1M@GCCMIGPJ@?$AAt?$AAr?$AA?9?$AAt?$AAr?$AA?$AA@ 10015e70     libucrt:lcidtoname_downlevel.obj
 0002:00003e7c       ??_C@_1M@CELMCNBK@?$AAt?$AAt?$AA?9?$AAr?$AAu?$AA?$AA@ 10015e7c     libucrt:lcidtoname_downlevel.obj
 0002:00003e88       ??_C@_1M@KLMCELGA@?$AAu?$AAk?$AA?9?$AAu?$AAa?$AA?$AA@ 10015e88     libucrt:lcidtoname_downlevel.obj
 0002:00003e94       ??_C@_1M@EPAJJAJF@?$AAu?$AAr?$AA?9?$AAp?$AAk?$AA?$AA@ 10015e94     libucrt:lcidtoname_downlevel.obj
 0002:00003ea0       ??_C@_1BG@GEGPMCDJ@?$AAu?$AAz?$AA?9?$AAu?$AAz?$AA?9?$AAc?$AAy?$AAr?$AAl?$AA?$AA@ 10015ea0     libucrt:lcidtoname_downlevel.obj
 0002:00003eb8       ??_C@_1BG@EGGKJILM@?$AAu?$AAz?$AA?9?$AAu?$AAz?$AA?9?$AAl?$AAa?$AAt?$AAn?$AA?$AA@ 10015eb8     libucrt:lcidtoname_downlevel.obj
 0002:00003ed0       ??_C@_1M@GFOCLFF@?$AAv?$AAi?$AA?9?$AAv?$AAn?$AA?$AA@ 10015ed0     libucrt:lcidtoname_downlevel.obj
 0002:00003edc       ??_C@_1M@CPAMEDFI@?$AAx?$AAh?$AA?9?$AAz?$AAa?$AA?$AA@ 10015edc     libucrt:lcidtoname_downlevel.obj
 0002:00003ee8       ??_C@_1O@EBKIFIGN@?$AAz?$AAh?$AA?9?$AAc?$AAh?$AAs?$AA?$AA@ 10015ee8     libucrt:lcidtoname_downlevel.obj
 0002:00003ef8       ??_C@_1O@NMHPGANE@?$AAz?$AAh?$AA?9?$AAc?$AAh?$AAt?$AA?$AA@ 10015ef8     libucrt:lcidtoname_downlevel.obj
 0002:00003f08       ??_C@_1M@LPINJOMC@?$AAz?$AAh?$AA?9?$AAc?$AAn?$AA?$AA@ 10015f08     libucrt:lcidtoname_downlevel.obj
 0002:00003f14       ??_C@_1M@OCJEJODD@?$AAz?$AAh?$AA?9?$AAh?$AAk?$AA?$AA@ 10015f14     libucrt:lcidtoname_downlevel.obj
 0002:00003f20       ??_C@_1M@DNDLJINH@?$AAz?$AAh?$AA?9?$AAm?$AAo?$AA?$AA@ 10015f20     libucrt:lcidtoname_downlevel.obj
 0002:00003f2c       ??_C@_1M@MBFDNDND@?$AAz?$AAh?$AA?9?$AAs?$AAg?$AA?$AA@ 10015f2c     libucrt:lcidtoname_downlevel.obj
 0002:00003f38       ??_C@_1M@IMEPLEPE@?$AAz?$AAh?$AA?9?$AAt?$AAw?$AA?$AA@ 10015f38     libucrt:lcidtoname_downlevel.obj
 0002:00003f44       ??_C@_1M@BBGHNHJP@?$AAz?$AAu?$AA?9?$AAz?$AAa?$AA?$AA@ 10015f44     libucrt:lcidtoname_downlevel.obj
 0002:00003f50       ??_C@_00CNPNBAHC@?$AA@     10015f50     libucrt:mbrtowc.obj
 0002:00003fb8       ??_C@_1BA@BALFACEM@?$AAC?$AAO?$AAN?$AAO?$AAU?$AAT?$AA$?$AA?$AA@ 10015fb8     libucrt:initcon.obj
 0002:000040d0       __infinity                 100160d0     libucrt:87tran.obj
 0002:000040da       __minfinity                100160da     libucrt:87tran.obj
 0002:000040e4       __logemax                  100160e4     libucrt:87tran.obj
 0002:0000410a       __OP_EXPjmptab             1001610a     libucrt:87tran.obj
 0002:00004130       __indefinite               10016130     libucrt:87disp.obj
 0002:0000413a       __piby2                    1001613a     libucrt:87disp.obj
 0002:00004144       __piby4                    10016144     libucrt:87disp.obj
 0002:00004178       __DEFAULT_CW_in_mem        10016178     libucrt:common.obj
 0002:0000417a       __pi_by_2_to_61            1001617a     libucrt:common.obj
 0002:000041b4       ??_C@_03MGHMBJCF@log?$AA@  100161b4     libucrt:libm_error.obj
 0002:000041b8       ??_C@_05HGHHAHAP@log10?$AA@ 100161b8     libucrt:libm_error.obj
 0002:000041c0       ??_C@_03KHJOGHMM@exp?$AA@  100161c0     libucrt:libm_error.obj
 0002:000041c4       ??_C@_03JGHBODFD@pow?$AA@  100161c4     libucrt:libm_error.obj
 0002:000041c8       ??_C@_04FIHNOPOL@asin?$AA@ 100161c8     libucrt:libm_error.obj
 0002:000041d0       ??_C@_04PDIFKINK@acos?$AA@ 100161d0     libucrt:libm_error.obj
 0002:000041d8       ??_C@_04EIAKFFMI@sqrt?$AA@ 100161d8     libucrt:libm_error.obj
 0002:000041e0       __real@3ff0000000000000    100161e0     libucrt:libm_error.obj
 0002:00004200       ___acrt_log10_table_t      10016200     libucrt:log10_tables.obj
 0002:00004610       ___acrt_log10_table_cb     10016610     libucrt:log10_tables.obj
 0002:00004a20       __real@3fe0000000000000    10016a20     libucrt:powhlp.obj
 0002:00004b10       ??_C@_04COOMCNPB@sinh?$AA@ 10016b10     libucrt:fpexcept.obj
 0002:00004b18       ??_C@_04HPJJNFIM@cosh?$AA@ 10016b18     libucrt:fpexcept.obj
 0002:00004b20       ??_C@_04FJHINJAO@tanh?$AA@ 10016b20     libucrt:fpexcept.obj
 0002:00004b28       ??_C@_04MLLJIGOK@atan?$AA@ 10016b28     libucrt:fpexcept.obj
 0002:00004b30       ??_C@_05KNGEOGJB@atan2?$AA@ 10016b30     libucrt:fpexcept.obj
 0002:00004b38       ??_C@_03BLEJJJBH@sin?$AA@  10016b38     libucrt:fpexcept.obj
 0002:00004b3c       ??_C@_03LALBNOCG@cos?$AA@  10016b3c     libucrt:fpexcept.obj
 0002:00004b40       ??_C@_03IIINPABG@tan?$AA@  10016b40     libucrt:fpexcept.obj
 0002:00004b44       ??_C@_04GFPJNGEK@ceil?$AA@ 10016b44     libucrt:fpexcept.obj
 0002:00004b4c       ??_C@_05PBJFFIGL@floor?$AA@ 10016b4c     libucrt:fpexcept.obj
 0002:00004b54       ??_C@_04ODHECPBC@fabs?$AA@ 10016b54     libucrt:fpexcept.obj
 0002:00004b5c       ??_C@_04EHEDPDJG@modf?$AA@ 10016b5c     libucrt:fpexcept.obj
 0002:00004b64       ??_C@_05CEJMAHNP@ldexp?$AA@ 10016b64     libucrt:fpexcept.obj
 0002:00004b6c       ??_C@_05KBKMEMPO@_cabs?$AA@ 10016b6c     libucrt:fpexcept.obj
 0002:00004b74       ??_C@_06MEIMCGCF@_hypot?$AA@ 10016b74     libucrt:fpexcept.obj
 0002:00004b7c       ??_C@_04KEPJIHGP@fmod?$AA@ 10016b7c     libucrt:fpexcept.obj
 0002:00004b84       ??_C@_05GKKHEGJL@frexp?$AA@ 10016b84     libucrt:fpexcept.obj
 0002:00004b8c       ??_C@_03MJLDFKDL@_y0?$AA@  10016b8c     libucrt:fpexcept.obj
 0002:00004b90       ??_C@_03NAKIGLHK@_y1?$AA@  10016b90     libucrt:fpexcept.obj
 0002:00004b94       ??_C@_03ONILCKOB@_yn?$AA@  10016b94     libucrt:fpexcept.obj
 0002:00004b98       ??_C@_05JGDBENOH@_logb?$AA@ 10016b98     libucrt:fpexcept.obj
 0002:00004ba0       ??_C@_0L@KDOEJCKC@_nextafter?$AA@ 10016ba0     libucrt:fpexcept.obj
 0002:00004bb0       __d_inf                    10016bb0     libucrt:util.obj
 0002:00004bb8       __d_max                    10016bb8     libucrt:util.obj
 0002:00004bc0       __d_mzero                  10016bc0     libucrt:util.obj
 0002:00004bc8       ??_C@_1BK@DBDEIDLH@?$AAK?$AAE?$AAR?$AAN?$AAE?$AAL?$AA3?$AA2?$AA?4?$AAD?$AAL?$AAL@ 10016bc8     DelayImp:delayhlp.obj
 0002:00004be4       ??_C@_0BI@OMNLIJDB@AcquireSRWLockExclusive@ 10016be4     DelayImp:delayhlp.obj
 0002:00004bfc       ??_C@_0BI@HMIEPCNJ@ReleaseSRWLockExclusive@ 10016bfc     DelayImp:delayhlp.obj
 0002:00004c14       ___pfnDliFailureHook2      10016c14     DelayImp:delayhk1.obj
 0002:00004c18       __load_config_used         10016c18     LIBCMT:loadcfg.obj
 0002:00004cb8       ??_C@_00CNPNBAHC@@         10016cb8     memoryjs.obj
 0002:00004cc0       ??_C@_0EA@PDHELIGJ@requires?51?5argument?0?5or?52?5argum@ 10016cc0     memoryjs.obj
 0002:00004d00       ??_C@_0CM@HGGHHEEI@first?5argument?5must?5be?5a?5string@ 10016d00     memoryjs.obj
 0002:00004d2c       ??_C@_0CD@MMNPHDIN@second?5argument?5must?5be?5a?5funct@ 10016d2c     memoryjs.obj
 0002:00004d50       ??_C@_06HDDMAKPI@dwSize@   10016d50     memoryjs.obj
 0002:00004d58       ??_C@_0O@DKINBLMC@th32ProcessID@ 10016d58     memoryjs.obj
 0002:00004d68       ??_C@_0L@IJHEGKNG@cntThreads@ 10016d68     memoryjs.obj
 0002:00004d74       ??_C@_0BE@GDBHDJLD@th32ParentProcessID@ 10016d74     memoryjs.obj
 0002:00004d88       ??_C@_0P@FIJHAFKK@pcPriClassBase@ 10016d88     memoryjs.obj
 0002:00004d98       ??_C@_09EKJPJELD@szExeFile@ 10016d98     memoryjs.obj
 0002:00004da4       ??_C@_06NCGDPKCC@handle@   10016da4     memoryjs.obj
 0002:00004dac       ??_C@_0M@MDGLCEFM@modBaseAddr@ 10016dac     memoryjs.obj
 0002:00004db8       ??_C@_0BE@DJPLAIIO@requires?51?5argument@ 10016db8     memoryjs.obj
 0002:00004dcc       ??_C@_0CA@OPHEMBL@first?5argument?5must?5be?5a?5number@ 10016dcc     memoryjs.obj
 0002:00004df0       ??_C@_0EG@FIFPAJAH@requires?5either?50?5arguments?5or?5@ 10016df0     memoryjs.obj
 0002:00004e38       ??_C@_0CC@PFFNAHGO@first?5argument?5must?5be?5a?5functi@ 10016e38     memoryjs.obj
 0002:00004e60       ??_C@_0EE@CNGGMFAA@first?5argument?5must?5be?5a?5number@ 10016e60     memoryjs.obj
 0002:00004ea4       ??_C@_0M@DIBKDCIP@modBaseSize@ 10016ea4     memoryjs.obj
 0002:00004eb0       ??_C@_09MHBAFCPL@szExePath@ 10016eb0     memoryjs.obj
 0002:00004ebc       ??_C@_08FICCBMKK@szModule@ 10016ebc     memoryjs.obj
 0002:00004ec8       ??_C@_0N@MAHCMJHB@th32ModuleID@ 10016ec8     memoryjs.obj
 0002:00004ed8       ??_C@_0EN@FPMGOMDP@requires?51?5argument?0?52?5argument@ 10016ed8     memoryjs.obj
 0002:00004f28       ??_C@_0EC@OKODLAHH@first?5argument?5must?5be?5a?5string@ 10016f28     memoryjs.obj
 0002:00004f6c       ??_C@_0CC@OGEEKKID@third?5argument?5must?5be?5a?5functi@ 10016f6c     memoryjs.obj
 0002:00004f90       ??_C@_07CMLJBOCL@hModule@  10016f90     memoryjs.obj
 0002:00004f98       ??_C@_0EB@GLKHBGL@requires?53?5arguments?0?5or?54?5argu@ 10016f98     memoryjs.obj
 0002:00004fe0       ??_C@_0EM@NLIDIAAL@first?5and?5second?5argument?5must?5@ 10016fe0     memoryjs.obj
 0002:0000502c       ??_C@_0CD@COMEPCIP@fourth?5argument?5must?5be?5a?5funct@ 1001702c     memoryjs.obj
 0002:00005050       ??_C@_03JBIPMCLC@int@      10017050     memoryjs.obj
 0002:00005054       ??_C@_05KDALNKAH@dword@    10017054     memoryjs.obj
 0002:0000505c       ??_C@_04GOKPGOLB@long@     1001705c     memoryjs.obj
 0002:00005064       ??_C@_05KNFBNCOH@float@    10017064     memoryjs.obj
 0002:0000506c       ??_C@_06BNJCAIGJ@double@   1001706c     memoryjs.obj
 0002:00005074       ??_C@_03PLHFFLIH@ptr@      10017074     memoryjs.obj
 0002:00005078       ??_C@_07PFMCDPMA@pointer@  10017078     memoryjs.obj
 0002:00005080       ??_C@_04DDKJGDCM@bool@     10017080     memoryjs.obj
 0002:00005088       ??_C@_07GOBOHMJA@boolean@  10017088     memoryjs.obj
 0002:00005090       ??_C@_06ICGJLFIM@string@   10017090     memoryjs.obj
 0002:00005098       ??_C@_03OJMAPEGJ@str@      10017098     memoryjs.obj
 0002:000050a0       ??_C@_0EH@PAPNGPOC@unable?5to?5read?5string?5?$CIno?5null?9@ 100170a0     memoryjs.obj
 0002:000050e8       ??_C@_07GLAFNOGD@vector3@  100170e8     memoryjs.obj
 0002:000050f0       ??_C@_04PNENAKPF@vec3@     100170f0     memoryjs.obj
 0002:000050f8       ??_C@_01FJMABOPO@x@        100170f8     memoryjs.obj
 0002:000050fc       ??_C@_01EANLCPLP@y@        100170fc     memoryjs.obj
 0002:00005100       ??_C@_01GLPGHMHM@z@        10017100     memoryjs.obj
 0002:00005104       ??_C@_07CEEEEIKE@vector4@  10017104     memoryjs.obj
 0002:0000510c       ??_C@_04LCAMJMDC@vec4@     1001710c     memoryjs.obj
 0002:00005114       ??_C@_01NOFIACDB@w@        10017114     memoryjs.obj
 0002:00005118       ??_C@_0BF@FIJDNPKM@unexpected?5data?5type@ 10017118     memoryjs.obj
 0002:00005130       ??_C@_0BF@JGIIAIAK@requires?54?5arguments@ 10017130     memoryjs.obj
 0002:00005148       ??_C@_0BG@DNGDJEJC@unable?5to?5find?5module@ 10017148     memoryjs.obj
 0002:00005160       ??_C@_0P@EFPIPLFH@no?5match?5found@ 10017160     memoryjs.obj
 0002:00005170       ??_C@_0CB@IFCBDMJP@All?5arguments?5should?5be?5numbers@ 10017170     memoryjs.obj
 0002:00005194       ??_C@_0M@NEBNHEMD@openProcess@ 10017194     memoryjs.obj
 0002:000051a0       ??_C@_0N@PBPAMPDB@closeProcess@ 100171a0     memoryjs.obj
 0002:000051b0       ??_C@_0N@HMBKPOBM@getProcesses@ 100171b0     memoryjs.obj
 0002:000051c0       ??_C@_0L@CBNJDCMD@getModules@ 100171c0     memoryjs.obj
 0002:000051cc       ??_C@_0L@HEIBEMBG@findModule@ 100171cc     memoryjs.obj
 0002:000051d8       ??_C@_0L@MMMLPBML@readMemory@ 100171d8     memoryjs.obj
 0002:000051e4       ??_C@_0M@LMIKAJBN@writeMemory@ 100171e4     memoryjs.obj
 0002:000051f0       ??_C@_0M@OCIIPMMH@findPattern@ 100171f0     memoryjs.obj
 0002:000051fc       ??_C@_0O@IHPLAPK@setProtection@ 100171fc     memoryjs.obj
 0002:00005210       ??_C@_0EH@DJAIKHPD@c?3?2users?2salki?2desktop?2node_glo@ 10017210     memoryjs.obj
 0002:00005258       ??_C@_08OLGFILKN@memoryjs@ 10017258     memoryjs.obj
 0002:00005264       ??_C@_0BD@OLBABOEK@vector?$DMT?$DO?5too?5long@ 10017264     memoryjs.obj
 0002:00005278       ??_C@_0BA@JFNIOLAK@string?5too?5long@ 10017278     memoryjs.obj
 0002:00005288       ??_C@_0BH@BLFNGAJE@unable?5to?5find?5process@ 10017288     process.obj
 0002:000052a0       ??_C@_0CO@LEEBOAPE@method?5failed?5to?5take?5snapshot?5@ 100172a0     process.obj
 0002:000052d0       ??_C@_0CM@NCNDHAAF@method?5failed?5to?5retrieve?5the?5f@ 100172d0     process.obj
 0002:000052fc       ??_C@_0CL@LPFDIDOB@method?5failed?5to?5retrieve?5the?5f@ 100172fc     module.obj
 0002:00005328       ??_C@_0BM@NMJKDPPO@invalid?5vector?$DMT?$DO?5subscript@ 10017328     pattern.obj
 0002:00005344       ??_C@_08HCOMDCCD@iojs?4exe@ 10017344     win_delay_load_hook.obj
 0002:00005350       ??_C@_08JDDNMFDB@node?4exe@ 10017350     win_delay_load_hook.obj
 0002:0000535c       ___pfnDliNotifyHook2       1001735c     win_delay_load_hook.obj
 0002:00005360       __xmm@41f00000000000000000000000000000 10017360     memoryjs.obj
 0002:00005470       ??_R4exception@std@@6B@    10017470     libcpmt:xthrow.obj
 0002:00005484       ??_R3exception@std@@8      10017484     libcpmt:xthrow.obj
 0002:00005494       ??_R2exception@std@@8      10017494     libcpmt:xthrow.obj
 0002:0000549c       ??_R1A@?0A@EA@exception@std@@8 1001749c     libcpmt:xthrow.obj
 0002:000054b8       ??_R4bad_alloc@std@@6B@    100174b8     libcpmt:xthrow.obj
 0002:000054cc       ??_R3bad_alloc@std@@8      100174cc     libcpmt:xthrow.obj
 0002:000054dc       ??_R2bad_alloc@std@@8      100174dc     libcpmt:xthrow.obj
 0002:000054e8       ??_R1A@?0A@EA@bad_alloc@std@@8 100174e8     libcpmt:xthrow.obj
 0002:00005504       ??_R4logic_error@std@@6B@  10017504     libcpmt:xthrow.obj
 0002:00005518       ??_R3logic_error@std@@8    10017518     libcpmt:xthrow.obj
 0002:00005528       ??_R2logic_error@std@@8    10017528     libcpmt:xthrow.obj
 0002:00005534       ??_R1A@?0A@EA@logic_error@std@@8 10017534     libcpmt:xthrow.obj
 0002:00005550       ??_R4length_error@std@@6B@ 10017550     libcpmt:xthrow.obj
 0002:00005564       ??_R3length_error@std@@8   10017564     libcpmt:xthrow.obj
 0002:00005574       ??_R2length_error@std@@8   10017574     libcpmt:xthrow.obj
 0002:00005584       ??_R1A@?0A@EA@length_error@std@@8 10017584     libcpmt:xthrow.obj
 0002:000055a0       ??_R4out_of_range@std@@6B@ 100175a0     libcpmt:xthrow.obj
 0002:000055b4       ??_R3out_of_range@std@@8   100175b4     libcpmt:xthrow.obj
 0002:000055c4       ??_R2out_of_range@std@@8   100175c4     libcpmt:xthrow.obj
 0002:000055d4       ??_R1A@?0A@EA@out_of_range@std@@8 100175d4     libcpmt:xthrow.obj
 0002:000055f0       ??_R4type_info@@6B@        100175f0     LIBCMT:std_type_info_static.obj
 0002:00005604       ??_R3type_info@@8          10017604     LIBCMT:std_type_info_static.obj
 0002:00005614       ??_R2type_info@@8          10017614     LIBCMT:std_type_info_static.obj
 0002:0000561c       ??_R1A@?0A@EA@type_info@@8 1001761c     LIBCMT:std_type_info_static.obj
 0002:00005638       ??_R4bad_array_new_length@std@@6B@ 10017638     LIBCMT:throw_bad_alloc.obj
 0002:0000564c       ??_R3bad_array_new_length@std@@8 1001764c     LIBCMT:throw_bad_alloc.obj
 0002:0000565c       ??_R2bad_array_new_length@std@@8 1001765c     LIBCMT:throw_bad_alloc.obj
 0002:0000566c       ??_R1A@?0A@EA@bad_array_new_length@std@@8 1001766c     LIBCMT:throw_bad_alloc.obj
 0002:00005690       ___safe_se_handler_table   10017690     <linker-defined>
 0002:00005a58       ___rtc_iaa                 10017a58     LIBCMT:initsect.obj
 0002:00005a5c       ___rtc_izz                 10017a5c     LIBCMT:initsect.obj
 0002:00005a60       ___rtc_taa                 10017a60     LIBCMT:initsect.obj
 0002:00005a64       ___rtc_tzz                 10017a64     LIBCMT:initsect.obj
 0002:00005a68       __TI2?AVbad_alloc@std@@    10017a68     libcpmt:xthrow.obj
 0002:00005a78       __CTA2?AVbad_alloc@std@@   10017a78     libcpmt:xthrow.obj
 0002:00005a84       __CT??_R0?AVbad_alloc@std@@@8??0bad_alloc@std@@QAE@ABV01@@Z12 10017a84     libcpmt:xthrow.obj
 0002:00005aa0       __CT??_R0?AVexception@std@@@8??0exception@std@@QAE@ABV01@@Z12 10017aa0     libcpmt:xthrow.obj
 0002:00005abc       __CT??_R0?AVlogic_error@std@@@8??0logic_error@std@@QAE@ABV01@@Z12 10017abc     libcpmt:xthrow.obj
 0002:00005ad8       __TI3?AVlength_error@std@@ 10017ad8     libcpmt:xthrow.obj
 0002:00005ae8       __CTA3?AVlength_error@std@@ 10017ae8     libcpmt:xthrow.obj
 0002:00005af8       __CT??_R0?AVlength_error@std@@@8??0length_error@std@@QAE@ABV01@@Z12 10017af8     libcpmt:xthrow.obj
 0002:00005b14       __TI3?AVout_of_range@std@@ 10017b14     libcpmt:xthrow.obj
 0002:00005b24       __CTA3?AVout_of_range@std@@ 10017b24     libcpmt:xthrow.obj
 0002:00005b34       __CT??_R0?AVout_of_range@std@@@8??0out_of_range@std@@QAE@ABV01@@Z12 10017b34     libcpmt:xthrow.obj
 0002:00005bcc       __TI3?AVbad_array_new_length@std@@ 10017bcc     LIBCMT:throw_bad_alloc.obj
 0002:00005bdc       __CTA3?AVbad_array_new_length@std@@ 10017bdc     LIBCMT:throw_bad_alloc.obj
 0002:00005bec       __CT??_R0?AVbad_array_new_length@std@@@8??0bad_array_new_length@std@@QAE@ABV01@@Z12 10017bec     LIBCMT:throw_bad_alloc.obj
 0002:00005f64       __DELAY_IMPORT_DESCRIPTOR_node_exe 10017f64     node:node.exe
 0002:00005f84       __NULL_DELAY_IMPORT_DESCRIPTOR 10017f84     node:node.exe
 0002:0000601c       \177node_NULL_THUNK_DATA_DLN 1001801c     node:node.exe
 0002:000066e0       \177node_NULL_THUNK_DATA_DLB 100186e0     node:node.exe
 0002:000067b4       __IMPORT_DESCRIPTOR_KERNEL32 100187b4     kernel32:KERNEL32.dll
 0002:000067c8       __NULL_IMPORT_DESCRIPTOR   100187c8     kernel32:KERNEL32.dll
 0003:00000000       ___scrt_native_dllmain_reason 10019000     LIBCMT:utility.obj
 0003:00000004       ___security_cookie_complement 10019004     LIBCMT:gs_cookie.obj
 0003:00000008       ___security_cookie         10019008     LIBCMT:gs_cookie.obj
 0003:0000000c       ___isa_enabled             1001900c     LIBCMT:cpu_disp.obj
 0003:00000020       __NLG_Destination          10019020     libvcruntime:exsup.obj
 0003:00000030       ___abort_behavior          10019030     libucrt:abort.obj
 0003:00000050       ___acrt_initial_locale_data 10019050     libucrt:nlsdata.obj
 0003:00000108       ___acrt_initial_locale_pointers 10019108     libucrt:nlsdata.obj
 0003:00000110       ___acrt_wide_c_locale_string 10019110     libucrt:nlsdata.obj
 0003:00000118       ___acrt_initial_multibyte_data 10019118     libucrt:mbctype.obj
 0003:00000638       __iob                      10019638     libucrt:_file.obj
 0003:000006e0       ___globallocalestatus      100196e0     libucrt:glstatus.obj
 0003:000006e8       ___acrt_lconv_c            100196e8     libucrt:localeconv.obj
 0003:00000738       ___acrt_lconv_static_decimal 10019738     libucrt:localeconv.obj
 0003:0000073c       ___acrt_lconv_static_W_decimal 1001973c     libucrt:localeconv.obj
 0003:00000740       __lookuptrailbytes         10019740     libucrt:read.obj
 0003:00000850       __fltused                  10019850     LIBCMT:fltused.obj
 0003:00000890       ??_R0?AVbad_alloc@std@@@8  10019890     libcpmt:xthrow.obj
 0003:000008ac       ??_R0?AVexception@std@@@8  100198ac     libcpmt:xthrow.obj
 0003:000008c8       ??_R0?AVlogic_error@std@@@8 100198c8     libcpmt:xthrow.obj
 0003:000008e8       ??_R0?AVlength_error@std@@@8 100198e8     libcpmt:xthrow.obj
 0003:00000908       ??_R0?AVout_of_range@std@@@8 10019908     libcpmt:xthrow.obj
 0003:00000928       ??_R0?AVtype_info@@@8      10019928     LIBCMT:std_type_info_static.obj
 0003:00000940       ??_R0?AVbad_array_new_length@std@@@8 10019940     LIBCMT:throw_bad_alloc.obj
 0003:00000968       __imp_?ThrowException@Isolate@v8@@QAE?AV?$Local@VValue@v8@@@2@V32@@Z 10019968     node:node.exe
 0003:0000096c       __imp_?GetCurrentContext@Isolate@v8@@QAE?AV?$Local@VContext@v8@@@2@XZ 1001996c     node:node.exe
 0003:00000970       __imp_?GetCurrent@Isolate@v8@@SAPAV12@XZ 10019970     node:node.exe
 0003:00000974       __imp_??1HandleScope@v8@@QAE@XZ 10019974     node:node.exe
 0003:00000978       __imp_??0HandleScope@v8@@QAE@PAVIsolate@1@@Z 10019978     node:node.exe
 0003:0000097c       __imp_?TypeError@Exception@v8@@SA?AV?$Local@VValue@v8@@@2@V?$Local@VString@v8@@@2@@Z 1001997c     node:node.exe
 0003:00000980       __imp_?New@Array@v8@@SA?AV?$Local@VArray@v8@@@2@PAVIsolate@2@H@Z 10019980     node:node.exe
 0003:00000984       __imp_?GetFunction@FunctionTemplate@v8@@QAE?AV?$MaybeLocal@VFunction@v8@@@2@V?$Local@VContext@v8@@@2@@Z 10019984     node:node.exe
 0003:00000988       __imp_?New@FunctionTemplate@v8@@SA?AV?$Local@VFunctionTemplate@v8@@@2@PAVIsolate@2@P6AXABV?$FunctionCallbackInfo@VValue@v8@@@2@@ZV?$Local@VValue@v8@@@2@V?$Local@VSignature@v8@@@2@HW4ConstructorBehavior@2@W4SideEffectType@2@@Z 10019988     node:node.exe
 0003:0000098c       __imp_?ToLocalEmpty@V8@v8@@CAXXZ 1001998c     node:node.exe
 0003:00000990       __imp_?Int32Value@Value@v8@@QBEHXZ 10019990     node:node.exe
 0003:00000994       __imp_?Uint32Value@Value@v8@@QBEIXZ 10019994     node:node.exe
 0003:00000998       __imp_?IntegerValue@Value@v8@@QBE_JXZ 10019998     node:node.exe
 0003:0000099c       __imp_?NumberValue@Value@v8@@QBENXZ 1001999c     node:node.exe
 0003:000009a0       __imp_?BooleanValue@Value@v8@@QBE_NXZ 100199a0     node:node.exe
 0003:000009a4       __imp_?IsNumber@Value@v8@@QBE_NXZ 100199a4     node:node.exe
 0003:000009a8       __imp_?IsFunction@Value@v8@@QBE_NXZ 100199a8     node:node.exe
 0003:000009ac       __imp_??1Utf8Value@String@v8@@QAE@XZ 100199ac     node:node.exe
 0003:000009b0       __imp_??0Utf8Value@String@v8@@QAE@V?$Local@VValue@v8@@@2@@Z 100199b0     node:node.exe
 0003:000009b4       __imp_?NewFromUtf8@String@v8@@SA?AV?$Local@VString@v8@@@2@PAVIsolate@2@PBDW4NewStringType@12@H@Z 100199b4     node:node.exe
 0003:000009b8       __imp_?NewFromUtf8@String@v8@@SA?AV?$MaybeLocal@VString@v8@@@2@PAVIsolate@2@PBDW4NewStringType@2@H@Z 100199b8     node:node.exe
 0003:000009bc       __imp_?New@Number@v8@@SA?AV?$Local@VNumber@v8@@@2@PAVIsolate@2@N@Z 100199bc     node:node.exe
 0003:000009c0       __imp_?New@Object@v8@@SA?AV?$Local@VObject@v8@@@2@PAVIsolate@2@@Z 100199c0     node:node.exe
 0003:000009c4       __imp_?Get@Object@v8@@QAE?AV?$Local@VValue@v8@@@2@V32@@Z 100199c4     node:node.exe
 0003:000009c8       __imp_?Set@Object@v8@@QAE_NV?$Local@VValue@v8@@@2@0@Z 100199c8     node:node.exe
 0003:000009cc       __imp_?Set@Object@v8@@QAE_NIV?$Local@VValue@v8@@@2@@Z 100199cc     node:node.exe
 0003:000009d0       __imp_?SetName@Function@v8@@QAEXV?$Local@VString@v8@@@2@@Z 100199d0     node:node.exe
 0003:000009d4       __imp_?Call@Function@v8@@QAE?AV?$Local@VValue@v8@@@2@V32@HQAV32@@Z 100199d4     node:node.exe
 0003:000009d8       __imp__node_module_register 100199d8     node:node.exe
 0003:000009dc       __imp_?ToString@Value@v8@@QBE?AV?$Local@VString@v8@@@2@XZ 100199dc     node:node.exe
 0003:000009e0       \177node_NULL_THUNK_DATA_DLA 100199e0     node:node.exe
 0003:000009e8       __hmod__node_exe           100199e8     node:node.exe
 0003:000009ec       ___scrt_current_native_startup_state 100199ec     LIBCMT:utility.obj
 0003:000009f0       ___scrt_native_startup_lock 100199f0     LIBCMT:utility.obj
 0003:00000d34       ___isa_available           10019d34     LIBCMT:cpu_disp.obj
 0003:00000d38       ___favor                   10019d38     LIBCMT:cpu_disp.obj
 0003:00000d3c       ___scrt_debugger_hook_flag 10019d3c     LIBCMT:utility_desktop.obj
 0003:00000d40       ?__type_info_root_node@@3U__type_info_node@@A 10019d40     LIBCMT:tncleanup.obj
 0003:00000d48       ?_OptionsStorage@?1??__local_stdio_printf_options@@9@4_KA 10019d48     LIBCMT:default_local_stdio_options.obj
 0003:00000d50       ?_OptionsStorage@?1??__local_stdio_scanf_options@@9@4_KA 10019d50     LIBCMT:default_local_stdio_options.obj
 0003:00000dbc       ___pPurecall               10019dbc     libvcruntime:purevirt_data.obj
 0003:00000dc0       ?pArgList@UnDecorator@@0PAVReplicator@@A 10019dc0     libvcruntime:undname.obj
 0003:00000dc4       ?pZNameList@UnDecorator@@0PAVReplicator@@A 10019dc4     libvcruntime:undname.obj
 0003:00000dc8       ?pTemplateArgList@UnDecorator@@0PAVReplicator@@A 10019dc8     libvcruntime:undname.obj
 0003:00000dcc       ?gName@UnDecorator@@0PBDB  10019dcc     libvcruntime:undname.obj
 0003:00000dd0       ?name@UnDecorator@@0PBDB   10019dd0     libvcruntime:undname.obj
 0003:00000dd4       ?disableFlags@UnDecorator@@0KA 10019dd4     libvcruntime:undname.obj
 0003:00000dd8       ?fExplicitTemplateParams@UnDecorator@@0_NA 10019dd8     libvcruntime:undname.obj
 0003:00000dd9       ?fGetTemplateArgumentList@UnDecorator@@0_NA 10019dd9     libvcruntime:undname.obj
 0003:00000ddc       ?m_pGetParameter@UnDecorator@@0P6APADJ@ZA 10019ddc     libvcruntime:undname.obj
 0003:00000de0       ?m_CHPENameOffset@UnDecorator@@0KA 10019de0     libvcruntime:undname.obj
 0003:00000de4       ?m_recursionLevel@UnDecorator@@0KA 10019de4     libvcruntime:undname.obj
 0003:00000dfc       ?__WinRTOutOfMemoryExceptionCallback@@3P6GPAXXZA 10019dfc     libvcruntime:ehhelpers.obj
 0003:00000e10       ?c_exit_complete@?1???R<lambda_6e4b09c48022b2350581041d5f6b0c4c>@@QBE@XZ@4_NA 10019e10     libucrt:exit.obj
 0003:00000f20       __environ_table            10019f20     libucrt:environment_initialization.obj
 0003:00000f24       __wenviron_table           10019f24     libucrt:environment_initialization.obj
 0003:00000f28       ___dcrt_initial_wide_environment 10019f28     libucrt:environment_initialization.obj
 0003:00000f2c       ___dcrt_initial_narrow_environment 10019f2c     libucrt:environment_initialization.obj
 0003:00000f30       ___acrt_atexit_table       10019f30     libucrt:onexit.obj
 0003:00000f3c       ___acrt_at_quick_exit_table 10019f3c     libucrt:onexit.obj
 0003:00000f48       ___acrt_locale_changed_data 10019f48     libucrt:wsetlocale.obj
 0003:00000f4c       ___acrt_current_locale_data 10019f4c     libucrt:nlsdata.obj
 0003:000010a4       ___acrt_current_multibyte_data 1001a0a4     libucrt:mbctype.obj
 0003:000010a8       __mbctype                  1001a0a8     libucrt:mbctype.obj
 0003:000010ac       __mbcasemap                1001a0ac     libucrt:mbctype.obj
 0003:000010b8       __pgmptr                   1001a0b8     libucrt:argv_data.obj
 0003:000010bc       ___argc                    1001a0bc     libucrt:argv_data.obj
 0003:000010c0       ___argv                    1001a0c0     libucrt:argv_data.obj
 0003:000010c4       ___wargv                   1001a0c4     libucrt:argv_data.obj
 0003:000010c8       __acmdln                   1001a0c8     libucrt:argv_data.obj
 0003:000010cc       __wcmdln                   1001a0cc     libucrt:argv_data.obj
 0003:000010d0       ___pioinfo                 1001a0d0     libucrt:ioinit.obj
 0003:000012d0       __nhandle                  1001a2d0     libucrt:ioinit.obj
 0003:000013b0       ___acrt_heap               1001a3b0     libucrt:heap_handle.obj
 0003:000013c8       __nstream                  1001a3c8     libucrt:_file.obj
 0003:000013cc       ___piob                    1001a3cc     libucrt:_file.obj
 0003:000013d0       ___acrt_stdout_buffer      1001a3d0     libucrt:_sftbuf.obj
 0003:000013d4       ___acrt_stderr_buffer      1001a3d4     libucrt:_sftbuf.obj
 0003:000013e0       ___acrt_lconv_static_null  1001a3e0     libucrt:localeconv.obj
 0003:000013e4       ___acrt_lconv_static_W_null 1001a3e4     libucrt:localeconv.obj
 0003:000013f8       ___fastflag                1001a3f8     libucrt:fp_flags.obj
 0003:00001400       ?DloadKernel32@@3PAUHINSTANCE__@@A 1001a400     DelayImp:delayhlp.obj
 0003:00001404       ?DloadAcquireSRWLockExclusive@@3P6GXPAK@ZA 1001a404     DelayImp:delayhlp.obj
 0003:00001408       ?DloadReleaseSRWLockExclusive@@3P6GXPAK@ZA 1001a408     DelayImp:delayhlp.obj
 0003:0000140c       ?DloadSrwLock@@3KA         1001a40c     DelayImp:delayhlp.obj
 0003:00001410       ?DloadSectionLockCount@@3KA 1001a410     DelayImp:delayhlp.obj
 0003:00001414       ?DloadSectionOldProtection@@3KA 1001a414     DelayImp:delayhlp.obj
 0003:00001418       ?DloadSectionCommitPermanent@@3KA 1001a418     DelayImp:delayhlp.obj
 0003:0000141c       ?Memory@@3Vmemory@@A       1001a41c     memoryjs.obj
 0003:0000141d       ?Module@@3Vmodule@@A       1001a41d     memoryjs.obj
 0003:0000141e       ?Process@@3Vprocess@@A     1001a41e     memoryjs.obj
 0003:0000141f       ?Pattern@@3Vpattern@@A     1001a41f     memoryjs.obj
 0003:00001420       ___dyn_tls_init_callback   1001a420     <common>
 0003:00001424       ___scrt_ucrt_dll_is_in_use 1001a424     <common>
 0003:00001428       __pmatherr                 1001a428     <common>
 0003:0000142c       ___use_sse2_mathfcns       1001a42c     <common>

 entry point at        0001:00004c03

 Static symbols

 0000:fffe2000       .debug$S                   10000000     kernel32:KERNEL32.dll
 0000:fffe2000       .debug$S                   10000000     node:node.exe
 0000:fffe2000       .debug$S                   10000000     node:node.exe
 0000:fffe2000       .debug$S                   10000000     node:node.exe
 0000:fffe2000       .debug$S                   10000000     node:node.exe
 0000:fffe2000       .debug$S                   10000000     node:node.exe
 0000:fffe2000       .debug$S                   10000000     node:node.exe
 0000:fffe2000       .debug$S                   10000000     node:node.exe
 0000:fffe2000       .debug$S                   10000000     node:node.exe
 0000:fffe2000       .debug$S                   10000000     node:node.exe
 0000:fffe2000       .debug$S                   10000000     node:node.exe
 0000:fffe2000       .debug$S                   10000000     node:node.exe
 0000:fffe2000       .debug$S                   10000000     node:node.exe
 0000:fffe2000       .debug$S                   10000000     node:node.exe
 0000:fffe2000       .debug$S                   10000000     node:node.exe
 0000:fffe2000       .debug$S                   10000000     node:node.exe
 0000:fffe2000       .debug$S                   10000000     node:node.exe
 0000:fffe2000       .debug$S                   10000000     node:node.exe
 0000:fffe2000       .debug$S                   10000000     node:node.exe
 0000:fffe2000       .debug$S                   10000000     node:node.exe
 0000:fffe2000       .debug$S                   10000000     node:node.exe
 0000:fffe2000       .debug$S                   10000000     kernel32:KERNEL32.dll
 0000:fffe2000       .debug$S                   10000000     node:node.exe
 0000:fffe2000       .debug$S                   10000000     node:node.exe
 0000:fffe2000       .debug$S                   10000000     node:node.exe
 0000:fffe2000       .debug$S                   10000000     node:node.exe
 0000:fffe2000       .debug$S                   10000000     node:node.exe
 0000:fffe2000       .debug$S                   10000000     node:node.exe
 0000:fffe2000       .debug$S                   10000000     node:node.exe
 0000:fffe2000       .debug$S                   10000000     node:node.exe
 0000:fffe2000       .debug$S                   10000000     node:node.exe
 0000:fffe2000       .debug$S                   10000000     node:node.exe
 0000:fffe2000       .debug$S                   10000000     kernel32:KERNEL32.dll
 0000:fffe2000       .debug$S                   10000000     kernel32:KERNEL32.dll
 0000:fffe2000       .debug$S                   10000000     kernel32:KERNEL32.dll
 0000:fffe2000       .debug$S                   10000000     kernel32:KERNEL32.dll
 0000:fffe2000       .debug$S                   10000000     kernel32:KERNEL32.dll
 0000:fffe2000       .debug$S                   10000000     memoryjs.exp
 0000:fffe2000       .debug$S                   10000000     kernel32:KERNEL32.dll
 0000:fffe2000       .debug$S                   10000000     kernel32:KERNEL32.dll
 0000:fffe2000       .debug$S                   10000000     kernel32:KERNEL32.dll
 0000:fffe2000       .debug$S                   10000000     kernel32:KERNEL32.dll
 0000:fffe2000       .debug$S                   10000000     kernel32:KERNEL32.dll
 0000:fffe2000       .debug$S                   10000000     node:node.exe
 0000:fffe2000       .debug$S                   10000000     node:node.exe
 0000:fffe2000       .debug$S                   10000000     node:node.exe
 0000:fffe2000       .debug$S                   10000000     kernel32:KERNEL32.dll
 0000:fffe2000       .debug$S                   10000000     kernel32:KERNEL32.dll
 0000:fffe2000       .debug$S                   10000000     node:node.exe
 0000:fffe2000       .debug$S                   10000000     kernel32:KERNEL32.dll
 0000:fffe2000       .debug$S                   10000000     node:node.exe
 0000:fffe2000       .debug$S                   10000000     kernel32:KERNEL32.dll
 0000:fffe2000       .debug$S                   10000000     node:node.exe
 0000:fffe2000       .debug$S                   10000000     kernel32:KERNEL32.dll
 0000:fffe2000       .debug$S                   10000000     kernel32:KERNEL32.dll
 0000:fffe2000       .debug$S                   10000000     kernel32:KERNEL32.dll
 0000:fffe2000       .debug$S                   10000000     kernel32:KERNEL32.dll
 0000:fffe2000       .debug$S                   10000000     kernel32:KERNEL32.dll
 0000:fffe2000       .debug$S                   10000000     kernel32:KERNEL32.dll
 0000:fffe2000       .debug$S                   10000000     kernel32:KERNEL32.dll
 0000:fffe2000       .debug$S                   10000000     kernel32:KERNEL32.dll
 0000:fffe2000       .debug$S                   10000000     kernel32:KERNEL32.dll
 0000:fffe2000       .debug$S                   10000000     kernel32:KERNEL32.dll
 0000:fffe2000       .debug$S                   10000000     kernel32:KERNEL32.dll
 0000:fffe2000       .debug$S                   10000000     kernel32:KERNEL32.dll
 0000:fffe2000       .debug$S                   10000000     kernel32:KERNEL32.dll
 0000:fffe2000       .debug$S                   10000000     kernel32:KERNEL32.dll
 0000:fffe2000       .debug$S                   10000000     kernel32:KERNEL32.dll
 0000:fffe2000       .debug$S                   10000000     kernel32:KERNEL32.dll
 0000:fffe2000       .debug$S                   10000000     kernel32:KERNEL32.dll
 0000:fffe2000       .debug$S                   10000000     kernel32:KERNEL32.dll
 0000:fffe2000       .debug$S                   10000000     kernel32:KERNEL32.dll
 0000:fffe2000       .debug$S                   10000000     kernel32:KERNEL32.dll
 0000:fffe2000       .debug$S                   10000000     kernel32:KERNEL32.dll
 0000:fffe2000       .debug$S                   10000000     kernel32:KERNEL32.dll
 0000:fffe2000       .debug$S                   10000000     kernel32:KERNEL32.dll
 0000:fffe2000       .debug$S                   10000000     kernel32:KERNEL32.dll
 0000:fffe2000       .debug$S                   10000000     kernel32:KERNEL32.dll
 0000:fffe2000       .debug$S                   10000000     kernel32:KERNEL32.dll
 0000:fffe2000       .debug$S                   10000000     kernel32:KERNEL32.dll
 0000:fffe2000       .debug$S                   10000000     kernel32:KERNEL32.dll
 0000:fffe2000       .debug$S                   10000000     kernel32:KERNEL32.dll
 0000:fffe2000       .debug$S                   10000000     kernel32:KERNEL32.dll
 0000:fffe2000       .debug$S                   10000000     kernel32:KERNEL32.dll
 0000:fffe2000       .debug$S                   10000000     kernel32:KERNEL32.dll
 0000:fffe2000       .debug$S                   10000000     kernel32:KERNEL32.dll
 0000:fffe2000       .debug$S                   10000000     kernel32:KERNEL32.dll
 0000:fffe2000       .debug$S                   10000000     kernel32:KERNEL32.dll
 0000:fffe2000       .debug$S                   10000000     kernel32:KERNEL32.dll
 0000:fffe2000       .debug$S                   10000000     kernel32:KERNEL32.dll
 0000:fffe2000       .debug$S                   10000000     kernel32:KERNEL32.dll
 0000:fffe2000       .debug$S                   10000000     kernel32:KERNEL32.dll
 0000:fffe2000       .debug$S                   10000000     kernel32:KERNEL32.dll
 0000:fffe2000       .debug$S                   10000000     kernel32:KERNEL32.dll
 0000:fffe2000       .debug$S                   10000000     kernel32:KERNEL32.dll
 0000:fffe2000       .debug$S                   10000000     kernel32:KERNEL32.dll
 0000:fffe2000       .debug$S                   10000000     kernel32:KERNEL32.dll
 0000:fffe2000       .debug$S                   10000000     kernel32:KERNEL32.dll
 0000:fffe2000       .debug$S                   10000000     kernel32:KERNEL32.dll
 0000:fffe2000       .debug$S                   10000000     kernel32:KERNEL32.dll
 0000:fffe2000       .debug$S                   10000000     kernel32:KERNEL32.dll
 0000:fffe2000       .debug$S                   10000000     kernel32:KERNEL32.dll
 0000:fffe2000       .debug$S                   10000000     kernel32:KERNEL32.dll
 0000:fffe2000       .debug$S                   10000000     kernel32:KERNEL32.dll
 0000:fffe2000       .debug$S                   10000000     kernel32:KERNEL32.dll
 0000:fffe2000       .debug$S                   10000000     kernel32:KERNEL32.dll
 0000:fffe2000       .debug$S                   10000000     kernel32:KERNEL32.dll
 0000:fffe2000       .debug$S                   10000000     kernel32:KERNEL32.dll
 0000:fffe2000       .debug$S                   10000000     kernel32:KERNEL32.dll
 0000:fffe2000       .debug$S                   10000000     kernel32:KERNEL32.dll
 0000:fffe2000       .debug$S                   10000000     kernel32:KERNEL32.dll
 0000:fffe2000       .debug$S                   10000000     kernel32:KERNEL32.dll
 0000:fffe2000       .debug$S                   10000000     kernel32:KERNEL32.dll
 0000:fffe2000       .debug$S                   10000000     kernel32:KERNEL32.dll
 0000:fffe2000       .debug$S                   10000000     kernel32:KERNEL32.dll
 0000:fffe2000       .debug$S                   10000000     kernel32:KERNEL32.dll
 0000:fffe2000       .debug$S                   10000000     kernel32:KERNEL32.dll
 0000:fffe2000       .debug$S                   10000000     kernel32:KERNEL32.dll
 0000:fffe2000       .debug$S                   10000000     kernel32:KERNEL32.dll
 0000:fffe2000       .debug$S                   10000000     kernel32:KERNEL32.dll
 0000:fffe2000       .debug$S                   10000000     kernel32:KERNEL32.dll
 0000:fffe2000       .debug$S                   10000000     kernel32:KERNEL32.dll
 0000:fffe2000       .debug$S                   10000000     kernel32:KERNEL32.dll
 0000:fffe2000       .debug$S                   10000000     kernel32:KERNEL32.dll
 0000:fffe2000       .debug$S                   10000000     kernel32:KERNEL32.dll
 0000:fffe2000       .debug$S                   10000000     kernel32:KERNEL32.dll
 0000:fffe2000       .debug$S                   10000000     kernel32:KERNEL32.dll
 0000:fffe2000       .debug$S                   10000000     kernel32:KERNEL32.dll
 0000:fffe2000       .debug$S                   10000000     kernel32:KERNEL32.dll
 0000:fffe2000       .debug$S                   10000000     kernel32:KERNEL32.dll
 0000:fffe2000       .debug$S                   10000000     kernel32:KERNEL32.dll
 0000:fffe2000       .debug$S                   10000000     kernel32:KERNEL32.dll
 0000:fffe2000       .debug$S                   10000000     node:node.exe
 0001:00000000       ??__EProcess@@YAXXZ        10001000 f   memoryjs.obj
 0001:00000010       ??__EModule@@YAXXZ         10001010 f   memoryjs.obj
 0001:00000020       ??__EPattern@@YAXXZ        10001020 f   memoryjs.obj
 0001:00003720       __register_memoryjs        10004720 f   memoryjs.obj
 0001:00004200       ?load_exe_hook@@YGP6GHXZIPAUDelayLoadInfo@@@Z 10005200 f   win_delay_load_hook.obj
 0001:0000458f       ?find_pe_section@@YAPAU_IMAGE_SECTION_HEADER@@QAEI@Z 1000558f f   LIBCMT:utility.obj
 0001:000048e3       ?dllmain_crt_dispatch@@YGHQAUHINSTANCE__@@KQAX@Z 100058e3 f   LIBCMT:dll_dllmain.obj
 0001:00004936       ?dllmain_crt_process_attach@@YAHQAUHINSTANCE__@@QAX@Z 10005936 f   LIBCMT:dll_dllmain.obj
 0001:00004a40       ?dllmain_crt_process_detach@@YAH_N@Z 10005a40 f   LIBCMT:dll_dllmain.obj
 0001:00004ad2       ?dllmain_dispatch@@YAHQAUHINSTANCE__@@KQAX@Z 10005ad2 f   LIBCMT:dll_dllmain.obj
 0001:00004bd8       ?dllmain_raw@@YGHQAUHINSTANCE__@@KQAX@Z 10005bd8 f   LIBCMT:dll_dllmain.obj
 0001:000050a0       $$000000                   100060a0     LIBCMT:sehprolg4.obj
 0001:00005101       ___get_entropy             10006101 f   LIBCMT:gs_support.obj
 0001:000053a0       _ValidateLocalCookies      100063a0 f   libvcruntime:chandler4.obj
 0001:00005540       $$000000                   10006540     libvcruntime:memset.obj
 0001:0000585a       ?try_get_first_available_module@@YAPAUHINSTANCE__@@QBW4module_id@?A0x170b12c9@@0@Z 1000685a f   libvcruntime:winapi_downlevel.obj
 0001:0000591e       ?try_get_function@@YAPAXW4function_id@?A0x170b12c9@@QBDQBW4module_id@2@2@Z 1000691e f   libvcruntime:winapi_downlevel.obj
 0001:00005b30       $$000000                   10006b30     libvcruntime:exsup4.obj
 0001:00005bc0       __unwind_handler4          10006bc0 f   libvcruntime:exsup4.obj
 0001:00005d00       $$000000                   10006d00     libvcruntime:exsup.obj
 0001:00005d21       __unwind_handler           10006d21 f   libvcruntime:exsup.obj
 0001:00005e40       $$000000                   10006e40     libvcruntime:memcpy.obj
 0001:000060a4       TrailingUpVec              100070a4     libvcruntime:memcpy.obj
 0001:00006150       TrailingDownVec            10007150     libvcruntime:memcpy.obj
 0001:000063c0       $$000000                   100073c0     libvcruntime:lowhelpr.obj
 0001:000064c0       $$000000                   100074c0     libvcruntime:memmove.obj
 0001:00006724       TrailingUpVec              10007724     libvcruntime:memmove.obj
 0001:000067d0       TrailingDownVec            100077d0     libvcruntime:memmove.obj
 0001:00006ff7       ??$?RV<lambda_03b1d95aef87969028cfba75ccab2455>@@AAV<lambda_6e4b09c48022b2350581041d5f6b0c4c>@@V<lambda_22bdf7517842c4b3e53723af5aa32b9e>@@@?$__crt_seh_guarded_call@X@@QAEX$$QAV<lambda_03b1d95aef87969028cfba75ccab2455>@@AAV<lambda_6e4b09c48022b2350581041d5f6b0c4c>@@$$QAV<lambda_22bdf7517842c4b3e53723af5aa32b9e>@@@Z 10007ff7 f   libucrt:exit.obj
 0001:0000703a       ??R<lambda_6e4b09c48022b2350581041d5f6b0c4c>@@QBE@XZ 1000803a f   libucrt:exit.obj
 0001:0000710a       ?atexit_exception_filter@@YAHK@Z 1000810a f   libucrt:exit.obj
 0001:0000711d       ?common_exit@@YAXHW4_crt_exit_cleanup_mode@@W4_crt_exit_return_mode@@@Z 1000811d f   libucrt:exit.obj
 0001:00007183       ?exit_or_terminate_process@@YAXI@Z 10008183 f   libucrt:exit.obj
 0001:000071c5       ?is_managed_app@@YA_NXZ    100081c5 f   libucrt:exit.obj
 0001:00007208       ?try_cor_exit_process@@YAXI@Z 10008208 f   libucrt:exit.obj
 0001:00007298       ??$common_configure_argv@D@@YAHW4_crt_argv_mode@@@Z 10008298 f   libucrt:argv_parsing.obj
 0001:000073d0       ??$parse_command_line@D@@YAXPADPAPAD0PAI2@Z 100083d0 f   libucrt:argv_parsing.obj
 0001:000075a3       ??$common_initialize_environment_nolock@D@@YAHXZ 100085a3 f   libucrt:environment_initialization.obj
 0001:000075f6       ??$create_environment@D@@YAQAPADQAD@Z 100085f6 f   libucrt:environment_initialization.obj
 0001:000076c8       ??$free_environment@_W@@YAXQAPA_W@Z 100086c8 f   libucrt:environment_initialization.obj
 0001:000076c8       ??$free_environment@D@@YAXQAPAD@Z 100086c8 f   libucrt:environment_initialization.obj
 0001:00007720       ??$uninitialize_environment_internal@D@@YAXAAPAPAD@Z 10008720 f   libucrt:environment_initialization.obj
 0001:0000773b       ??$uninitialize_environment_internal@_W@@YAXAAPAPA_W@Z 1000873b f   libucrt:environment_initialization.obj
 0001:00007792       ??$?RV<lambda_69a2805e680e0e292e8ba93315fe43a8>@@AAV<lambda_f03950bc5685219e0bcd2087efbe011e>@@V<lambda_03fcd07e894ec930e3f35da366ca99d6>@@@?$__crt_seh_guarded_call@H@@QAEH$$QAV<lambda_69a2805e680e0e292e8ba93315fe43a8>@@AAV<lambda_f03950bc5685219e0bcd2087efbe011e>@@$$QAV<lambda_03fcd07e894ec930e3f35da366ca99d6>@@@Z 10008792 f   libucrt:onexit.obj
 0001:000077e3       ??$?RV<lambda_8e746cf0007f6ed984d6f78af1fec997>@@AAV<lambda_22ebabd17bc4fa466a2aca6d8deb888d>@@V<lambda_18ed0c0b38a6dc0daf1e7ac6d6adf05e>@@@?$__crt_seh_guarded_call@H@@QAEH$$QAV<lambda_8e746cf0007f6ed984d6f78af1fec997>@@AAV<lambda_22ebabd17bc4fa466a2aca6d8deb888d>@@$$QAV<lambda_18ed0c0b38a6dc0daf1e7ac6d6adf05e>@@@Z 100087e3 f   libucrt:onexit.obj
 0001:00007853       ??R<lambda_22ebabd17bc4fa466a2aca6d8deb888d>@@QBEHXZ 10008853 f   libucrt:onexit.obj
 0001:0000797e       ??R<lambda_f03950bc5685219e0bcd2087efbe011e>@@QBEHXZ 1000897e f   libucrt:onexit.obj
 0001:00007afd       _initialize_global_variables 10008afd f   libucrt:initialization.obj
 0001:00007b0a       _initialize_c              10008b0a f   libucrt:initialization.obj
 0001:00007b24       _report_memory_leaks       10008b24 f   libucrt:initialization.obj
 0001:00007b24       _initialize_environment    10008b24 f   libucrt:initialization.obj
 0001:00007b24       _initialize_global_state_isolation 10008b24 f   libucrt:initialization.obj
 0001:00007b24       _uninitialize_global_state_isolation 10008b24 f   libucrt:initialization.obj
 0001:00007b24       _uninitialize_c            10008b24 f   libucrt:initialization.obj
 0001:00007b27       _uninitialize_environment  10008b27 f   libucrt:initialization.obj
 0001:00007b2f       _initialize_pointers       10008b2f f   libucrt:initialization.obj
 0001:00007b5d       _uninitialize_vcruntime    10008b5d f   libucrt:initialization.obj
 0001:00007b66       _uninitialize_allocated_memory 10008b66 f   libucrt:initialization.obj
 0001:00007b7f       _uninitialize_allocated_io_buffers 10008b7f f   libucrt:initialization.obj
 0001:00007bcf       ??R<lambda_af42a3ee9806e9a7305d451646e05244>@@QBEXAAPAU__crt_multibyte_data@@@Z 10008bcf f   libucrt:initialization.obj
 0001:00007ea0       $$000000                   10008ea0     libucrt:strncmp.obj
 0001:00007f18       ??$?RV<lambda_15ade71b0218206bbe3333a0c9b79046>@@AAV<lambda_da44e0f8b0f19ba52fefafb335991732>@@V<lambda_207f2d024fc103971653565357d6cd41>@@@?$__crt_seh_guarded_call@X@@QAEX$$QAV<lambda_15ade71b0218206bbe3333a0c9b79046>@@AAV<lambda_da44e0f8b0f19ba52fefafb335991732>@@$$QAV<lambda_207f2d024fc103971653565357d6cd41>@@@Z 10008f18 f   libucrt:per_thread_data.obj
 0001:00007f60       ??$?RV<lambda_38edbb1296d33220d7e4dd0ed76b244a>@@AAV<lambda_5ce1d447e08cb34b2473517608e21441>@@V<lambda_fb385d3da700c9147fc39e65dd577a8c>@@@?$__crt_seh_guarded_call@X@@QAEX$$QAV<lambda_38edbb1296d33220d7e4dd0ed76b244a>@@AAV<lambda_5ce1d447e08cb34b2473517608e21441>@@$$QAV<lambda_fb385d3da700c9147fc39e65dd577a8c>@@@Z 10008f60 f   libucrt:per_thread_data.obj
 0001:00007fc1       ??$?RV<lambda_6affb1475c98b40b75cdec977db92e3c>@@AAV<lambda_b8d4b9c228a6ecc3f80208dbb4b4a104>@@V<lambda_608742c3c92a14382c1684fc64f96c88>@@@?$__crt_seh_guarded_call@X@@QAEX$$QAV<lambda_6affb1475c98b40b75cdec977db92e3c>@@AAV<lambda_b8d4b9c228a6ecc3f80208dbb4b4a104>@@$$QAV<lambda_608742c3c92a14382c1684fc64f96c88>@@@Z 10008fc1 f   libucrt:per_thread_data.obj
 0001:0000800c       ??$?RV<lambda_a7e850c220f1c8d1e6efeecdedd162c6>@@AAV<lambda_46720907175c18b6c9d2717bc0d2d362>@@V<lambda_9048902d66e8d99359bc9897bbb930a8>@@@?$__crt_seh_guarded_call@X@@QAEX$$QAV<lambda_a7e850c220f1c8d1e6efeecdedd162c6>@@AAV<lambda_46720907175c18b6c9d2717bc0d2d362>@@$$QAV<lambda_9048902d66e8d99359bc9897bbb930a8>@@@Z 1000900c f   libucrt:per_thread_data.obj
 0001:0000805c       ?construct_ptd@@YAXQAU__acrt_ptd@@QAPAU__crt_locale_data@@@Z 1000905c f   libucrt:per_thread_data.obj
 0001:000080f7       ?destroy_fls@@YGXPAX@Z     100090f7 f   libucrt:per_thread_data.obj
 0001:00008118       ?destroy_ptd@@YAXQAU__acrt_ptd@@@Z 10009118 f   libucrt:per_thread_data.obj
 0001:000081e7       ?replace_current_thread_locale_nolock@@YAXQAU__acrt_ptd@@QAU__crt_locale_data@@@Z 100091e7 f   libucrt:per_thread_data.obj
 0001:000084b0       ??$common_tox_l@$1?internal_isupper_l@@YA_NHQAU__crt_locale_pointers@@@Z$1?internal_map_lower@@YAHH0@Z@@YAHHKQAU__crt_locale_pointers@@@Z 100094b0 f   libucrt:tolower_toupper.obj
 0001:000085f7       ?internal_isupper_l@@YA_NHQAU__crt_locale_pointers@@@Z 100095f7 f   libucrt:tolower_toupper.obj
 0001:00008713       ??$?RV<lambda_e5124f882df8998aaf41531e079ba474>@@AAV<lambda_3e16ef9562a7dcce91392c22ab16ea36>@@V<lambda_e25ca0880e6ef98be67edffd8c599615>@@@?$__crt_seh_guarded_call@X@@QAEX$$QAV<lambda_e5124f882df8998aaf41531e079ba474>@@AAV<lambda_3e16ef9562a7dcce91392c22ab16ea36>@@$$QAV<lambda_e25ca0880e6ef98be67edffd8c599615>@@@Z 10009713 f   libucrt:wsetlocale.obj
 0001:00008963       ?<lambda_invoker_cdecl>@<lambda_86056e3c024bff449830248dc1621ed2>@@CAHPBX0@Z 10009963 f   libucrt:argv_wildcards.obj
 0001:0000897b       ??$__acrt_convert_wcs_mbs_cp@D_WV<lambda_62f6974d9771e494a5ea317cc32e971c>@@U__crt_win32_buffer_internal_dynamic_resizing@@@@YAHQBDAAV?$__crt_win32_buffer@_WU__crt_win32_buffer_internal_dynamic_resizing@@@@ABV<lambda_62f6974d9771e494a5ea317cc32e971c>@@I@Z 1000997b f   libucrt:argv_wildcards.obj
 0001:00008a2d       ??$__acrt_convert_wcs_mbs_cp@_WDV<lambda_28bda7af82a03b66c1cb3803a755f95d>@@U__crt_win32_buffer_internal_dynamic_resizing@@@@YAHQB_WAAV?$__crt_win32_buffer@DU__crt_win32_buffer_internal_dynamic_resizing@@@@ABV<lambda_28bda7af82a03b66c1cb3803a755f95d>@@I@Z 10009a2d f   libucrt:argv_wildcards.obj
 0001:00008b1b       ??$common_expand_argv_wildcards@D@@YAHQAPADQAPAPAD@Z 10009b1b f   libucrt:argv_wildcards.obj
 0001:00008d0c       ??$copy_and_add_argument_to_buffer@D@@YAHQBD0IAAV?$argument_list@D@?A0x5f5c8891@@@Z 10009d0c f   libucrt:argv_wildcards.obj
 0001:00008dbf       ??$expand_argument_wildcards@D@@YAHQAD0AAV?$argument_list@D@?A0x5f5c8891@@@Z 10009dbf f   libucrt:argv_wildcards.obj
 0001:0000910d       ?expand_if_necessary@?$argument_list@D@?A0x5f5c8891@@AAEHXZ 1000a10d f   libucrt:argv_wildcards.obj
 0001:0000919f       ??$__acrt_convert_wcs_mbs_cp@_WDV<lambda_0fec1a7b3f42a53036604e18c2d5e07e>@@U__crt_win32_buffer_no_resizing@@@@YAHQB_WAAV?$__crt_win32_buffer@DU__crt_win32_buffer_no_resizing@@@@ABV<lambda_0fec1a7b3f42a53036604e18c2d5e07e>@@I@Z 1000a19f f   libucrt:getmodulefilenamea.obj
 0001:00009344       ??$?RV<lambda_ceb1ee4838e85a9d631eb091e2fbe199>@@AAV<lambda_ae742caa10f662c28703da3d2ea5e57e>@@V<lambda_cd08b5d6af4937fe54fc07d0c9bf6b37>@@@?$__crt_seh_guarded_call@X@@QAEX$$QAV<lambda_ceb1ee4838e85a9d631eb091e2fbe199>@@AAV<lambda_ae742caa10f662c28703da3d2ea5e57e>@@$$QAV<lambda_cd08b5d6af4937fe54fc07d0c9bf6b37>@@@Z 1000a344 f   libucrt:mbctype.obj
 0001:00009387       ??R<lambda_ae742caa10f662c28703da3d2ea5e57e>@@QBEXXZ 1000a387 f   libucrt:mbctype.obj
 0001:0000940a       ?CPtoLocaleName@@YAPB_WH@Z 1000a40a f   libucrt:mbctype.obj
 0001:00009448       ?getSystemCP@@YAHH@Z       1000a448 f   libucrt:mbctype.obj
 0001:000094bb       ?setSBCS@@YAXPAU__crt_multibyte_data@@@Z 1000a4bb f   libucrt:mbctype.obj
 0001:00009520       ?setSBUpLow@@YAXPAU__crt_multibyte_data@@@Z 1000a520 f   libucrt:mbctype.obj
 0001:000096a3       ?setmbcp_internal@@YAHH_NQAU__acrt_ptd@@QAPAU__crt_multibyte_data@@@Z 1000a6a3 f   libucrt:mbctype.obj
 0001:000097be       ?update_thread_multibyte_data_internal@@YAPAU__crt_multibyte_data@@QAU__acrt_ptd@@QAPAU1@@Z 1000a7be f   libucrt:mbctype.obj
 0001:00009aa4       _memcpy_s                  1000aaa4 f   libucrt:mbctype.obj
 0001:00009b25       ?x_ismbbtype_l@@YAHPAU__crt_locale_pointers@@IHH@Z 1000ab25 f   libucrt:ismbbyte.obj
 0001:00009cd8       ?find_end_of_double_null_terminated_sequence@@YAPB_WQB_W@Z 1000acd8 f   libucrt:get_environment_from_os.obj
 0001:00009e02       ?initialize_inherited_file_handles_nolock@@YAXXZ 1000ae02 f   libucrt:ioinit.obj
 0001:00009eba       ?initialize_stdio_handles_nolock@@YAXXZ 1000aeba f   libucrt:ioinit.obj
 0001:00009ff0       ?try_get_AreFileApisANSI@@YAP6GHXZXZ 1000aff0 f   libucrt:winapi_thunks.obj
 0001:0000a00a       ?try_get_LCMapStringEx@@YAP6GHPB_WK0HPA_WHPAU_nlsversioninfo@@PAXJ@ZXZ 1000b00a f   libucrt:winapi_thunks.obj
 0001:0000a024       ?try_get_LocaleNameToLCID@@YAP6GKPB_WK@ZXZ 1000b024 f   libucrt:winapi_thunks.obj
 0001:0000a03e       ?try_get_first_available_module@@YAPAUHINSTANCE__@@QBW4module_id@?A0x391cf84c@@0@Z 1000b03e f   libucrt:winapi_thunks.obj
 0001:0000a107       ?try_get_function@@YAPAXW4function_id@?A0x391cf84c@@QBDQBW4module_id@2@2@Z 1000b107 f   libucrt:winapi_thunks.obj
 0001:0000a4d6       ??$?RV<lambda_cbab9ec6f41b0180b23cc171c22676b0>@@AAV<lambda_44731a7d0e6d81c3e6aa82d741081786>@@V<lambda_4b292cb8dd18144e164572427af410ab>@@@?$__crt_seh_guarded_call@P6AXH@Z@@QAEP6AXH@Z$$QAV<lambda_cbab9ec6f41b0180b23cc171c22676b0>@@AAV<lambda_44731a7d0e6d81c3e6aa82d741081786>@@$$QAV<lambda_4b292cb8dd18144e164572427af410ab>@@@Z 1000b4d6 f   libucrt:signal.obj
 0001:0000a530       ?get_global_action_nolock@@YAPAP6AXH@ZH@Z 1000b530 f   libucrt:signal.obj
 0001:0000a572       ?siglookup@@YAPAU__crt_signal_action_t@@HQAU1@@Z 1000b572 f   libucrt:signal.obj
 0001:0000a82a       ??$?RV<lambda_2866be3712abc81a800a822484c830d8>@@AAV<lambda_39ca0ed439415581b5b15c265174cece>@@V<lambda_2b24c74d71094a6cd0cb82e44167d71b>@@@?$__crt_seh_guarded_call@X@@QAEX$$QAV<lambda_2866be3712abc81a800a822484c830d8>@@AAV<lambda_39ca0ed439415581b5b15c265174cece>@@$$QAV<lambda_2b24c74d71094a6cd0cb82e44167d71b>@@@Z 1000b82a f   libucrt:fflush.obj
 0001:0000a8ac       ??$?RV<lambda_2cc53f568c5a2bb6f192f930a45d44ea>@@AAV<lambda_ab61a845afdef5b7c387490eaf3616ee>@@V<lambda_c2ffc0b7726aa6be21d5f0026187e748>@@@?$__crt_seh_guarded_call@X@@QAEX$$QAV<lambda_2cc53f568c5a2bb6f192f930a45d44ea>@@AAV<lambda_ab61a845afdef5b7c387490eaf3616ee>@@$$QAV<lambda_c2ffc0b7726aa6be21d5f0026187e748>@@@Z 1000b8ac f   libucrt:fflush.obj
 0001:0000a94e       ?common_flush_all@@YAH_N@Z 1000b94e f   libucrt:fflush.obj
 0001:0000a99d       ?common_flush_all_should_try_to_flush_stream@@YA_NV__crt_stdio_stream@@QAH@Z 1000b99d f   libucrt:fflush.obj
 0001:0000a9d0       ?is_stream_flushable_or_commitable@@YA_NJ@Z 1000b9d0 f   libucrt:fflush.obj
 0001:0000b235       ?__acrt_LCMapStringA_stat@@YAHPAU__crt_locale_pointers@@PB_WKPBDHPADHHH@Z 1000c235 f   libucrt:lcmapstringa.obj
 0001:0000b5f3       ?free_crt_array_internal@@YAXQAPBXI@Z 1000c5f3 f   libucrt:inittime.obj
 0001:0000b820       ?swap@@YAXPAD0I@Z          1000c820 f   libucrt:qsort.obj
 0001:0000bca4       ??$common_tcsncpy_s@D@@YAHQADIQBDI@Z 1000cca4 f   libucrt:strncpy_s.obj
 0001:0000bd70       $$000000                   1000cd70     libucrt:strpbrk.obj
 0001:0000be56       ?initialize_multibyte@@YAHXZ 1000ce56 f   libucrt:multibyte_initializer.obj
 0001:0000c188       ?GetTableIndexFromLocaleName@@YAHPB_W@Z 1000d188 f   libucrt:lcidtoname_downlevel.obj
 0001:0000c268       ??$?RV<lambda_9e9de3de5fa147e2223d7db92bc10aa6>@@AAV<lambda_38ce7e780aa69e748d6df282ebc68efe>@@V<lambda_8ca6da459f0f6780f1cff60fdc3d00e5>@@@?$__crt_seh_guarded_call@H@@QAEH$$QAV<lambda_9e9de3de5fa147e2223d7db92bc10aa6>@@AAV<lambda_38ce7e780aa69e748d6df282ebc68efe>@@$$QAV<lambda_8ca6da459f0f6780f1cff60fdc3d00e5>@@@Z 1000d268 f   libucrt:commit.obj
 0001:0000c37f       ?write_double_translated_ansi_nolock@@YA?AUwrite_result@?A0x17268360@@HQBDI@Z 1000d37f f   libucrt:write.obj
 0001:0000c72b       ?write_double_translated_unicode_nolock@@YA?AUwrite_result@?A0x17268360@@QBDI@Z 1000d72b f   libucrt:write.obj
 0001:0000c795       ?write_requires_double_translation_nolock@@YA_NH@Z 1000d795 f   libucrt:write.obj
 0001:0000c808       ?write_text_ansi_nolock@@YA?AUwrite_result@?A0x17268360@@HQBDI@Z 1000d808 f   libucrt:write.obj
 0001:0000c8e5       ?write_text_utf16le_nolock@@YA?AUwrite_result@?A0x17268360@@HQBDI@Z 1000d8e5 f   libucrt:write.obj
 0001:0000c9d0       ?write_text_utf8_nolock@@YA?AUwrite_result@?A0x17268360@@HQBDI@Z 1000d9d0 f   libucrt:write.obj
 0001:0000cf07       ??R<lambda_0f007d4f94c691a9a85cf1869a09f0c3>@@QBEIPBD@Z 1000df07 f   libucrt:mbrtowc.obj
 0001:0000d0b3       ??$common_lseek_nolock@_J@@YA_JH_JH@Z 1000e0b3 f   libucrt:lseek.obj
 0001:0000d430       $$000000                   1000e430     libucrt:log10_impl.obj
 0001:0000d540       $$000000                   1000e540     libucrt:ceil_pentium4.obj
 0001:0000d660       $$000000                   1000e660     libucrt:_strnicm.obj
 0001:0000d6c1       ?__dcrt_lowio_initialize_console_output@@YAXXZ 1000e6c1 f   libucrt:initcon.obj
 0001:0000d76b       ??$?RV<lambda_218ce3db14220d0be481dae8ef3383b6>@@AAV<lambda_628dfdc04ba53c8bfc02c9951375f3f5>@@V<lambda_57dc472bd5c9d5f3b2cbca59b8a843ae>@@@?$__crt_seh_guarded_call@H@@QAEH$$QAV<lambda_218ce3db14220d0be481dae8ef3383b6>@@AAV<lambda_628dfdc04ba53c8bfc02c9951375f3f5>@@$$QAV<lambda_57dc472bd5c9d5f3b2cbca59b8a843ae>@@@Z 1000e76b f   libucrt:close.obj
 0001:0000d970       $$000000                   1000e970     libucrt:log10_pentium4.obj
 0001:0000dc00       $$000000                   1000ec00     libucrt:87tran.obj
 0001:0000de10       $$000000                   1000ee10     libucrt:87disp.obj
 0001:0000e070       $$000000                   1000f070     libucrt:common.obj
 0001:0000e200       $$000000                   1000f200     libucrt:genexcep.obj
 0001:0000f7b0       $$000000                   100107b0     LIBCMT:ulldvrm.obj
 0001:0000f850       $$000000                   10010850     LIBCMT:llmul.obj
 0001:0000f890       $$000000                   10010890     LIBCMT:lldvrm.obj
 0001:0000f970       $$000000                   10010970     LIBCMT:ullshr.obj
 0001:0000f990       $$000000                   10010990     LIBCMT:alloca16.obj
 0001:0000f9c0       $$000000                   100109c0     LIBCMT:chkstk.obj
 0001:0000f9f0       $$000000                   100109f0     LIBCMT:llshl.obj
 0001:0000fa10       $$000000                   10010a10     LIBCMT:ftol2.obj
 0001:0000fad0       $$000000                   10010ad0     libvcruntime:strchr.obj
 0001:0000fc00       $$000000                   10010c00     libvcruntime:strrchr.obj
 0001:0000fd50       $$000000                   10010d50     LIBCMT:ftol3.obj
 0001:000100d0       ??__FProcess@@YAXXZ        100110d0 f   memoryjs.obj
 0001:000100e0       ??__FModule@@YAXXZ         100110e0 f   memoryjs.obj
 0001:000100f0       ??__FPattern@@YAXXZ        100110f0 f   memoryjs.obj
 0002:00000148       ?Process$initializer$@@3P6AXXZA 10012148     memoryjs.obj
 0002:0000014c       ?Module$initializer$@@3P6AXXZA 1001214c     memoryjs.obj
 0002:00000150       ?Pattern$initializer$@@3P6AXXZA 10012150     memoryjs.obj
 0002:00000208       _GS_ExceptionPointers      10012208     LIBCMT:gs_report.obj
 0002:00000234       ?ExceptionTemplate@?1??_CxxThrowException@@9@8@4UEHExceptionRecord@@B 10012234     libvcruntime:throw.obj
 0002:00000254       ?module_names@?A0x170b12c9@@3QBQB_WB 10012254     libvcruntime:winapi_downlevel.obj
 0002:0000030c       ?candidate_modules@?1??try_get_FlsAlloc@@YAP6GKP6GXPAX@Z@ZXZ@4QBW4module_id@?A0x170b12c9@@B 1001230c     libvcruntime:winapi_downlevel.obj
 0002:00000320       ?candidate_modules@?1??try_get_FlsFree@@YAP6GHK@ZXZ@4QBW4module_id@?A0x170b12c9@@B 10012320     libvcruntime:winapi_downlevel.obj
 0002:00000330       ?candidate_modules@?1??try_get_FlsGetValue@@YAP6GPAXK@ZXZ@4QBW4module_id@?A0x170b12c9@@B 10012330     libvcruntime:winapi_downlevel.obj
 0002:00000344       ?candidate_modules@?1??try_get_FlsSetValue@@YAP6GHKPAX@ZXZ@4QBW4module_id@?A0x170b12c9@@B 10012344     libvcruntime:winapi_downlevel.obj
 0002:00000358       ?candidate_modules@?1??try_get_InitializeCriticalSectionEx@@YAP6GHPAU_RTL_CRITICAL_SECTION@@KK@ZXZ@4QBW4module_id@?A0x170b12c9@@B 10012358     libvcruntime:winapi_downlevel.obj
 0002:00000380       ?tokenTable@@3QBQBDB       10012380     libvcruntime:undname.obj
 0002:000003c0       ?nameTable@@3QBQBDB        100123c0     libvcruntime:undname.obj
 0002:00000508       ?rttiTable@@3QBQBDB        10012508     libvcruntime:undname.obj
 0002:00000be8       ___acrt_initializers       10012be8     libucrt:initialization.obj
 0002:00000c68       ?errtable@@3QBUerrentry@?A0x31fdb9ec@@B 10012c68     libucrt:errno.obj
 0002:00001290       ?_mb_locale_names@@3QBQB_WB 10013290     libucrt:mbctype.obj
 0002:000012d0       ?module_names@?A0x391cf84c@@3QBQB_WB 100132d0     libucrt:winapi_thunks.obj
 0002:000017f0       ?candidate_modules@?1??try_get_AreFileApisANSI@@YAP6GHXZXZ@4QBW4module_id@?A0x391cf84c@@B 100137f0     libucrt:winapi_thunks.obj
 0002:00001804       ?candidate_modules@?1??try_get_FlsAlloc@@YAP6GKP6GXPAX@Z@ZXZ@4QBW4module_id@?A0x391cf84c@@B 10013804     libucrt:winapi_thunks.obj
 0002:00001818       ?candidate_modules@?1??try_get_FlsFree@@YAP6GHK@ZXZ@4QBW4module_id@?A0x391cf84c@@B 10013818     libucrt:winapi_thunks.obj
 0002:00001828       ?candidate_modules@?1??try_get_FlsGetValue@@YAP6GPAXK@ZXZ@4QBW4module_id@?A0x391cf84c@@B 10013828     libucrt:winapi_thunks.obj
 0002:0000183c       ?candidate_modules@?1??try_get_FlsSetValue@@YAP6GHKPAX@ZXZ@4QBW4module_id@?A0x391cf84c@@B 1001383c     libucrt:winapi_thunks.obj
 0002:00001850       ?candidate_modules@?1??try_get_InitializeCriticalSectionEx@@YAP6GHPAU_RTL_CRITICAL_SECTION@@KK@ZXZ@4QBW4module_id@?A0x391cf84c@@B 10013850     libucrt:winapi_thunks.obj
 0002:00001874       ?candidate_modules@?1??try_get_LCMapStringEx@@YAP6GHPB_WK0HPA_WHPAU_nlsversioninfo@@PAXJ@ZXZ@4QBW4module_id@?A0x391cf84c@@B 10013874     libucrt:winapi_thunks.obj
 0002:0000188c       ?candidate_modules@?1??try_get_LocaleNameToLCID@@YAP6GKPB_WK@ZXZ@4QBW4module_id@?A0x391cf84c@@B 1001388c     libucrt:winapi_thunks.obj
 0002:000018a8       ?candidate_modules@?1??try_get_AppPolicyGetProcessTerminationMethod@@YAP6GJPAXPAW4AppPolicyProcessTerminationMethod@@@ZXZ@4QBW4module_id@?A0x391cf84c@@B 100138a8     libucrt:winapi_thunks.obj
 0002:00001ee0       ?LcidToLocaleNameTable@?A0x881e4c05@@3QBULcidToLocaleName@1@B 10013ee0     libucrt:lcidtoname_downlevel.obj
 0002:00003000       ?LocaleNameToIndexTable@?A0x881e4c05@@3QBULocaleNameIndex@1@B 10015000     libucrt:lcidtoname_downlevel.obj
 0002:00003f60       LOG_name                   10015f60     libucrt:log10_impl.obj
 0002:00003f70       _One                       10015f70     libucrt:ceil_pentium4.obj
 0002:00003f80       _Bns                       10015f80     libucrt:ceil_pentium4.obj
 0002:00003f90       _Zero                      10015f90     libucrt:ceil_pentium4.obj
 0002:00003fa0       _S                         10015fa0     libucrt:ceil_pentium4.obj
 0002:00003fb0       _NegZero                   10015fb0     libucrt:ceil_pentium4.obj
 0002:00003fd0       emask                      10015fd0     libucrt:log10_pentium4.obj
 0002:00003fe0       CC                         10015fe0     libucrt:log10_pentium4.obj
 0002:00003ff0       Magic                      10015ff0     libucrt:log10_pentium4.obj
 0002:00004000       hi_mask                    10016000     libucrt:log10_pentium4.obj
 0002:00004010       LOG10_2                    10016010     libucrt:log10_pentium4.obj
 0002:00004020       place_L                    10016020     libucrt:log10_pentium4.obj
 0002:00004040       One                        10016040     libucrt:log10_pentium4.obj
 0002:00004050       Zero                       10016050     libucrt:log10_pentium4.obj
 0002:00004060       Two52                      10016060     libucrt:log10_pentium4.obj
 0002:00004070       Infs                       10016070     libucrt:log10_pentium4.obj
 0002:00004080       NaN                        10016080     libucrt:log10_pentium4.obj
 0002:00004090       coeff                      10016090     libucrt:log10_pentium4.obj
 0002:000040ee       _log2max                   100160ee     libucrt:87tran.obj
 0002:000040f8       _smallarg                  100160f8     libucrt:87tran.obj
 0002:00004102       _half                      10016102     libucrt:87tran.obj
 0002:0000414e       One                        1001614e     libucrt:87disp.obj
 0002:00004156       Three                      10016156     libucrt:87disp.obj
 0002:0000415e       XAMtoTagTab                1001615e     libucrt:87disp.obj
 0002:00004170       One                        10016170     libucrt:common.obj
 0002:00004184       DblMax                     10016184     libucrt:common.obj
 0002:0000418c       DblMin                     1001618c     libucrt:common.obj
 0002:00004194       IeeeAdjO                   10016194     libucrt:common.obj
 0002:0000419c       IeeeAdjU                   1001619c     libucrt:common.obj
 0002:000041a4       _infinity                  100161a4     libucrt:common.obj
 0002:000041ac       _zero                      100161ac     libucrt:common.obj
 0002:000041e8       _over                      100161e8     libucrt:fpctrl.obj
 0002:000041f4       _under                     100161f4     libucrt:fpctrl.obj
 0002:00004a28       ?_names@?1??_get_fname@@9@9 10016a28     libucrt:fpexcept.obj
 0002:00005370       _Int32ToUInt32             10017370     LIBCMT:ftol3.obj
 0002:00005378       _DP2to32                   10017378     LIBCMT:ftol3.obj
 0002:00005380       _MantissaMask              10017380     LIBCMT:ftol3.obj
 0002:00005388       _IntegerBit                10017388     LIBCMT:ftol3.obj
 0002:00005390       _SignBit64                 10017390     LIBCMT:ftol3.obj
 0002:00005398       _MinFP64                   10017398     LIBCMT:ftol3.obj
 0002:000053a0       _MinInt64                  100173a0     LIBCMT:ftol3.obj
 0002:000053a8       _MaxInt64                  100173a8     LIBCMT:ftol3.obj
 0002:000053b0       _MaxUInt64                 100173b0     LIBCMT:ftol3.obj
 0002:000053b8       _MaxFP32                   100173b8     LIBCMT:ftol3.obj
 0002:000053c0       _MinFP32                   100173c0     LIBCMT:ftol3.obj
 0002:000053c8       _MinSubInexact             100173c8     LIBCMT:ftol3.obj
 0002:000053d0       _FpExcptTable              100173d0     LIBCMT:ftol3.obj
 0002:000053e0       _i1075                     100173e0     LIBCMT:ftol3.obj
 0002:000053e4       _i1087                     100173e4     LIBCMT:ftol3.obj
 0002:000053e8       _x0800                     100173e8     LIBCMT:ftol3.obj
 0002:000053ec       _x17FF                     100173ec     LIBCMT:ftol3.obj
 0002:000053f0       _CWMask                    100173f0     LIBCMT:ftol3.obj
 0002:00005b50       __sehtable$___scrt_is_nonwritable_in_current_image 10017b50     LIBCMT:utility.obj
 0002:00005b70       __sehtable$?dllmain_crt_process_attach@@YAHQAUHINSTANCE__@@QAX@Z 10017b70     LIBCMT:dll_dllmain.obj
 0002:00005b90       __sehtable$?dllmain_crt_process_detach@@YAH_N@Z 10017b90     LIBCMT:dll_dllmain.obj
 0002:00005bb0       __sehtable$?dllmain_dispatch@@YAHQAUHINSTANCE__@@KQAX@Z 10017bb0     LIBCMT:dll_dllmain.obj
 0002:00005c08       __sehtable$___DestructExceptionObject 10017c08     libvcruntime:ehhelpers.obj
 0002:00005c28       __sehtable$__query_new_handler 10017c28     libucrt:new_handler.obj
 0002:00005c48       __sehtable$??R<lambda_6e4b09c48022b2350581041d5f6b0c4c>@@QBE@XZ 10017c48     libucrt:exit.obj
 0002:00005c68       __sehtable$??$?RV<lambda_03b1d95aef87969028cfba75ccab2455>@@AAV<lambda_6e4b09c48022b2350581041d5f6b0c4c>@@V<lambda_22bdf7517842c4b3e53723af5aa32b9e>@@@?$__crt_seh_guarded_call@X@@QAEX$$QAV<lambda_03b1d95aef87969028cfba75ccab2455>@@AAV<lambda_6e4b09c48022b2350581041d5f6b0c4c>@@$$QAV<lambda_22bdf7517842c4b3e53723af5aa32b9e>@@@Z 10017c68     libucrt:exit.obj
 0002:00005c88       __sehtable$??$?RV<lambda_8e746cf0007f6ed984d6f78af1fec997>@@AAV<lambda_22ebabd17bc4fa466a2aca6d8deb888d>@@V<lambda_18ed0c0b38a6dc0daf1e7ac6d6adf05e>@@@?$__crt_seh_guarded_call@H@@QAEH$$QAV<lambda_8e746cf0007f6ed984d6f78af1fec997>@@AAV<lambda_22ebabd17bc4fa466a2aca6d8deb888d>@@$$QAV<lambda_18ed0c0b38a6dc0daf1e7ac6d6adf05e>@@@Z 10017c88     libucrt:onexit.obj
 0002:00005ca8       __sehtable$??$?RV<lambda_69a2805e680e0e292e8ba93315fe43a8>@@AAV<lambda_f03950bc5685219e0bcd2087efbe011e>@@V<lambda_03fcd07e894ec930e3f35da366ca99d6>@@@?$__crt_seh_guarded_call@H@@QAEH$$QAV<lambda_69a2805e680e0e292e8ba93315fe43a8>@@AAV<lambda_f03950bc5685219e0bcd2087efbe011e>@@$$QAV<lambda_03fcd07e894ec930e3f35da366ca99d6>@@@Z 10017ca8     libucrt:onexit.obj
 0002:00005cc8       __sehtable$_terminate      10017cc8     libucrt:terminate.obj
 0002:00005ce8       __sehtable$??$?RV<lambda_15ade71b0218206bbe3333a0c9b79046>@@AAV<lambda_da44e0f8b0f19ba52fefafb335991732>@@V<lambda_207f2d024fc103971653565357d6cd41>@@@?$__crt_seh_guarded_call@X@@QAEX$$QAV<lambda_15ade71b0218206bbe3333a0c9b79046>@@AAV<lambda_da44e0f8b0f19ba52fefafb335991732>@@$$QAV<lambda_207f2d024fc103971653565357d6cd41>@@@Z 10017ce8     libucrt:per_thread_data.obj
 0002:00005d08       __sehtable$??$?RV<lambda_a7e850c220f1c8d1e6efeecdedd162c6>@@AAV<lambda_46720907175c18b6c9d2717bc0d2d362>@@V<lambda_9048902d66e8d99359bc9897bbb930a8>@@@?$__crt_seh_guarded_call@X@@QAEX$$QAV<lambda_a7e850c220f1c8d1e6efeecdedd162c6>@@AAV<lambda_46720907175c18b6c9d2717bc0d2d362>@@$$QAV<lambda_9048902d66e8d99359bc9897bbb930a8>@@@Z 10017d08     libucrt:per_thread_data.obj
 0002:00005d28       __sehtable$??$?RV<lambda_38edbb1296d33220d7e4dd0ed76b244a>@@AAV<lambda_5ce1d447e08cb34b2473517608e21441>@@V<lambda_fb385d3da700c9147fc39e65dd577a8c>@@@?$__crt_seh_guarded_call@X@@QAEX$$QAV<lambda_38edbb1296d33220d7e4dd0ed76b244a>@@AAV<lambda_5ce1d447e08cb34b2473517608e21441>@@$$QAV<lambda_fb385d3da700c9147fc39e65dd577a8c>@@@Z 10017d28     libucrt:per_thread_data.obj
 0002:00005d48       __sehtable$??$?RV<lambda_6affb1475c98b40b75cdec977db92e3c>@@AAV<lambda_b8d4b9c228a6ecc3f80208dbb4b4a104>@@V<lambda_608742c3c92a14382c1684fc64f96c88>@@@?$__crt_seh_guarded_call@X@@QAEX$$QAV<lambda_6affb1475c98b40b75cdec977db92e3c>@@AAV<lambda_b8d4b9c228a6ecc3f80208dbb4b4a104>@@$$QAV<lambda_608742c3c92a14382c1684fc64f96c88>@@@Z 10017d48     libucrt:per_thread_data.obj
 0002:00005d68       __sehtable$??$?RV<lambda_e5124f882df8998aaf41531e079ba474>@@AAV<lambda_3e16ef9562a7dcce91392c22ab16ea36>@@V<lambda_e25ca0880e6ef98be67edffd8c599615>@@@?$__crt_seh_guarded_call@X@@QAEX$$QAV<lambda_e5124f882df8998aaf41531e079ba474>@@AAV<lambda_3e16ef9562a7dcce91392c22ab16ea36>@@$$QAV<lambda_e25ca0880e6ef98be67edffd8c599615>@@@Z 10017d68     libucrt:wsetlocale.obj
 0002:00005d88       __sehtable$?update_thread_multibyte_data_internal@@YAPAU__crt_multibyte_data@@QAU__acrt_ptd@@QAPAU1@@Z 10017d88     libucrt:mbctype.obj
 0002:00005da8       __sehtable$??$?RV<lambda_ceb1ee4838e85a9d631eb091e2fbe199>@@AAV<lambda_ae742caa10f662c28703da3d2ea5e57e>@@V<lambda_cd08b5d6af4937fe54fc07d0c9bf6b37>@@@?$__crt_seh_guarded_call@X@@QAEX$$QAV<lambda_ceb1ee4838e85a9d631eb091e2fbe199>@@AAV<lambda_ae742caa10f662c28703da3d2ea5e57e>@@$$QAV<lambda_cd08b5d6af4937fe54fc07d0c9bf6b37>@@@Z 10017da8     libucrt:mbctype.obj
 0002:00005dc8       __sehtable$___acrt_initialize_lowio 10017dc8     libucrt:ioinit.obj
 0002:00005de8       __sehtable$_raise          10017de8     libucrt:signal.obj
 0002:00005e08       __sehtable$??$?RV<lambda_cbab9ec6f41b0180b23cc171c22676b0>@@AAV<lambda_44731a7d0e6d81c3e6aa82d741081786>@@V<lambda_4b292cb8dd18144e164572427af410ab>@@@?$__crt_seh_guarded_call@P6AXH@Z@@QAEP6AXH@Z$$QAV<lambda_cbab9ec6f41b0180b23cc171c22676b0>@@AAV<lambda_44731a7d0e6d81c3e6aa82d741081786>@@$$QAV<lambda_4b292cb8dd18144e164572427af410ab>@@@Z 10017e08     libucrt:signal.obj
 0002:00005e28       __sehtable$??$?RV<lambda_2866be3712abc81a800a822484c830d8>@@AAV<lambda_39ca0ed439415581b5b15c265174cece>@@V<lambda_2b24c74d71094a6cd0cb82e44167d71b>@@@?$__crt_seh_guarded_call@X@@QAEX$$QAV<lambda_2866be3712abc81a800a822484c830d8>@@AAV<lambda_39ca0ed439415581b5b15c265174cece>@@$$QAV<lambda_2b24c74d71094a6cd0cb82e44167d71b>@@@Z 10017e28     libucrt:fflush.obj
 0002:00005e48       __sehtable$??$?RV<lambda_2cc53f568c5a2bb6f192f930a45d44ea>@@AAV<lambda_ab61a845afdef5b7c387490eaf3616ee>@@V<lambda_c2ffc0b7726aa6be21d5f0026187e748>@@@?$__crt_seh_guarded_call@X@@QAEX$$QAV<lambda_2cc53f568c5a2bb6f192f930a45d44ea>@@AAV<lambda_ab61a845afdef5b7c387490eaf3616ee>@@$$QAV<lambda_c2ffc0b7726aa6be21d5f0026187e748>@@@Z 10017e48     libucrt:fflush.obj
 0002:00005e68       __sehtable$___acrt_update_thread_locale_data 10017e68     libucrt:locale_refcounting.obj
 0002:00005e88       __sehtable$___acrt_lowio_ensure_fh_exists 10017e88     libucrt:osfinfo.obj
 0002:00005ea8       __sehtable$??$?RV<lambda_9e9de3de5fa147e2223d7db92bc10aa6>@@AAV<lambda_38ce7e780aa69e748d6df282ebc68efe>@@V<lambda_8ca6da459f0f6780f1cff60fdc3d00e5>@@@?$__crt_seh_guarded_call@H@@QAEH$$QAV<lambda_9e9de3de5fa147e2223d7db92bc10aa6>@@AAV<lambda_38ce7e780aa69e748d6df282ebc68efe>@@$$QAV<lambda_8ca6da459f0f6780f1cff60fdc3d00e5>@@@Z 10017ea8     libucrt:commit.obj
 0002:00005ec8       __sehtable$__write         10017ec8     libucrt:write.obj
 0002:00005ee8       __sehtable$__fcloseall     10017ee8     libucrt:closeall.obj
 0002:00005f08       __sehtable$_fclose         10017f08     libucrt:fclose.obj
 0002:00005f28       __sehtable$??$?RV<lambda_218ce3db14220d0be481dae8ef3383b6>@@AAV<lambda_628dfdc04ba53c8bfc02c9951375f3f5>@@V<lambda_57dc472bd5c9d5f3b2cbca59b8a843ae>@@@?$__crt_seh_guarded_call@H@@QAEH$$QAV<lambda_218ce3db14220d0be481dae8ef3383b6>@@AAV<lambda_628dfdc04ba53c8bfc02c9951375f3f5>@@$$QAV<lambda_57dc472bd5c9d5f3b2cbca59b8a843ae>@@@Z 10017f28     libucrt:close.obj
 0002:00005f48       __sehtable$__IsNonwritableInCurrentImage 10017f48     LIBCMT:pesect.obj
 0002:00006760       .edata                     10018760     memoryjs.exp
 0002:00006788       rgpv                       10018788     memoryjs.exp
 0002:0000678c       rgszName                   1001878c     memoryjs.exp
 0002:00006790       rgwOrd                     10018790     memoryjs.exp
 0002:00006792       szName                     10018792     memoryjs.exp
 0002:000067a0       $N00001                    100187a0     memoryjs.exp
 0002:000069f8       .idata$6                   100189f8     kernel32:KERNEL32.dll
 0003:00000010       ?__vcrt_flsindex@@3KA      10019010     libvcruntime:per_thread_data.obj
 0003:00000040       ?__acrt_flsindex@@3KA      10019040     libucrt:per_thread_data.obj
 0003:00000044       ?errno_no_memory@@3HA      10019044     libucrt:errno.obj
 0003:00000048       ?doserrno_no_memory@@3KA   10019048     libucrt:errno.obj
 0003:00000338       __mbctypes                 10019338     libucrt:mbctype.obj
 0003:00000440       __mbcasemaps               10019440     libucrt:mbctype.obj
 0003:00000540       ?__rgctypeflag@@3PADA      10019540     libucrt:mbctype.obj
 0003:00000548       ?__rgcode_page_info@@3PAUcode_page_info@@A 10019548     libucrt:mbctype.obj
 0003:00000840       ?__dcrt_lowio_console_output_handle@@3PAXA 10019840     libucrt:initcon.obj
 0003:00000860       __module                   10019860     memoryjs.obj
 0003:000009f4       ?is_initialized_as_dll@@3_NA 100199f4     LIBCMT:utility.obj
 0003:000009f5       ?module_local_atexit_table_initialized@@3_NA 100199f5     LIBCMT:utility.obj
 0003:000009f8       ?module_local_atexit_table@@3U_onexit_table_t@@A 100199f8     LIBCMT:utility.obj
 0003:00000a04       ?module_local_at_quick_exit_table@@3U_onexit_table_t@@A 10019a04     LIBCMT:utility.obj
 0003:00000a10       ?__proc_attached@@3HA      10019a10     LIBCMT:dll_dllmain.obj
 0003:00000a18       _GS_ExceptionRecord        10019a18     LIBCMT:gs_report.obj
 0003:00000a68       _GS_ContextRecord          10019a68     LIBCMT:gs_report.obj
 0003:00000d58       ?__vcrt_startup_thread_ptd@@3U__vcrt_ptd@@A 10019d58     libvcruntime:per_thread_data.obj
 0003:00000d80       ___vcrt_lock_table         10019d80     libvcruntime:locks.obj
 0003:00000d98       ___vcrt_locks_initialized  10019d98     libvcruntime:locks.obj
 0003:00000d9c       ?module_handles@@3PAPAUHINSTANCE__@@A 10019d9c     libvcruntime:winapi_downlevel.obj
 0003:00000da8       ?encoded_function_pointers@@3PAPAXA 10019da8     libvcruntime:winapi_downlevel.obj
 0003:00000de8       ?heap@@3V_HeapManager@@A   10019de8     libvcruntime:undname.obj
 0003:00000e00       ?__acrt_invalid_parameter_handler@@3V?$dual_state_global@P6AXPB_W00II@Z@__crt_state_management@@A 10019e00     libucrt:invalid_parameter.obj
 0003:00000e04       ?__acrt_new_handler@@3V?$dual_state_global@P6AHI@Z@__crt_state_management@@A 10019e04     libucrt:new_handler.obj
 0003:00000e08       ?c_termination_complete@@3JA 10019e08     libucrt:exit.obj
 0003:00000e0c       ?thread_local_exit_callback_func@@3P6GXPAXK0@ZA 10019e0c     libucrt:exit.obj
 0003:00000e18       ?program_name@?1???$common_configure_argv@D@@YAHW4_crt_argv_mode@@@Z@4PADA 10019e18     libucrt:argv_parsing.obj
 0003:00000f50       ?__acrt_lock_table@@3PAU_RTL_CRITICAL_SECTION@@A 10019f50     libucrt:locks.obj
 0003:000010a0       ?__acrt_locks_initialized@@3IA 1001a0a0     libucrt:locks.obj
 0003:000010b0       ?fSystemSet@@3HA           1001a0b0     libucrt:mbctype.obj
 0003:000010b4       ?initialized@?1??__acrt_initialize_multibyte@@9@4_NA 1001a0b4     libucrt:mbctype.obj
 0003:000012d8       ?module_handles@@3PAPAUHINSTANCE__@@A 1001a2d8     libucrt:winapi_thunks.obj
 0003:00001328       ?encoded_function_pointers@@3PAPAXA 1001a328     libucrt:winapi_thunks.obj
 0003:000013b4       ?ctrlc_action@@3V?$dual_state_global@P6AXH@Z@__crt_state_management@@A 1001a3b4     libucrt:signal.obj
 0003:000013b8       ?ctrlbreak_action@@3V?$dual_state_global@P6AXH@Z@__crt_state_management@@A 1001a3b8     libucrt:signal.obj
 0003:000013bc       ?abort_action@@3V?$dual_state_global@P6AXH@Z@__crt_state_management@@A 1001a3bc     libucrt:signal.obj
 0003:000013c0       ?term_action@@3V?$dual_state_global@P6AXH@Z@__crt_state_management@@A 1001a3c0     libucrt:signal.obj
 0003:000013c4       ?user_matherr@@3V?$dual_state_global@P6AHPAU_exception@@@Z@__crt_state_management@@A 1001a3c4     libucrt:matherr.obj
 0003:000013d8       ?internal_state@?1??_mbtowc_l@@9@4U_Mbstatet@@A 1001a3d8     libucrt:mbtowc.obj
 0003:000013e8       ?__acrt_global_new_mode@@3V?$dual_state_global@J@__crt_state_management@@A 1001a3e8     libucrt:new_mode.obj
 0003:000013ec       ?__acrt_app_type@@3W4_crt_app_type@@A 1001a3ec     libucrt:report_runtime_error.obj
 0003:000013f0       ?internal_pst@?1??__mbrtoc32_utf8@__crt_mbstring@@YAIPA_UPBDIPAU_Mbstatet@@@Z@4U3@A 1001a3f0     libucrt:mbrtoc32.obj
 0003:000013fc       __pmatherr_set             1001a3fc     libucrt:libm_error.obj
 0004:00000060       $R000000                   1001b060     * linker generated manifest res *

 Exports

  ordinal    name

        1    __register_memoryjs_
               exported name: _register_memoryjs_
