 asynckeystate

 Timestamp is 5e932ed0 (Sun Apr 12 17:08:00 2020)

 Preferred load address is 10000000

 Start         Length     Name                   Class
 0001:00000000 0000b58fH .text$mn                CODE
 0001:0000b58f 00000000H .text$x                 CODE
 0002:00000000 00000120H .idata$5                DATA
 0002:00000120 00000004H .00cfg                  DATA
 0002:00000124 00000004H .CRT$XCA                DATA
 0002:00000128 00000004H .CRT$XCU                DATA
 0002:0000012c 00000004H .CRT$XCZ                DATA
 0002:00000130 00000004H .CRT$XIA                DATA
 0002:00000134 0000000cH .CRT$XIC                DATA
 0002:00000140 00000004H .CRT$XIZ                DATA
 0002:00000144 00000004H .CRT$XPA                DATA
 0002:00000148 00000008H .CRT$XPX                DATA
 0002:00000150 00000004H .CRT$XPXA               DATA
 0002:00000154 00000004H .CRT$XPZ                DATA
 0002:00000158 00000004H .CRT$XTA                DATA
 0002:0000015c 00000004H .CRT$XTZ                DATA
 0002:00000160 00000000H .gfids$y                DATA
 0002:00000160 00004b80H .rdata                  DATA
 0002:00004ce0 00000000H .rdata$r                DATA
 0002:00004ce0 0000000cH .rdata$sxdata           DATA
 0002:00004cec 00000394H .rdata$zzzdbg           DATA
 0002:00005080 00000004H .rtc$IAA                DATA
 0002:00005084 00000004H .rtc$IZZ                DATA
 0002:00005088 00000004H .rtc$TAA                DATA
 0002:0000508c 00000004H .rtc$TZZ                DATA
 0002:00005090 000003bcH .xdata$x                DATA
 0002:0000544c 00000020H .didat$2                DATA
 0002:0000546c 00000020H .didat$3                DATA
 0002:0000548c 00000038H .didat$4                DATA
 0002:000054c4 00000360H .didat$6                DATA
 0002:00005824 0000003cH .didat$7                DATA
 0002:00005860 00000058H .edata                  DATA
 0002:000058b8 00000028H .idata$2                DATA
 0002:000058e0 00000014H .idata$3                DATA
 0002:000058f4 00000120H .idata$4                DATA
 0002:00005a14 00000526H .idata$6                DATA
 0003:00000000 00000884H .data                   DATA
 0003:00000884 00000000H .data$r                 DATA
 0003:00000884 0000003cH .didat$5                DATA
 0003:000008c0 00000a48H .bss                    DATA
 0004:00000000 00000060H .rsrc$01                DATA
 0004:00000060 00000180H .rsrc$02                DATA

  Address         Publics by Value              Rva+Base       Lib:Object

 0000:00000000       ___guard_longjmp_count     00000000     <absolute>
 0000:00000000       __except_list              00000000     <absolute>
 0000:00000000       ___guard_iat_count         00000000     <absolute>
 0000:00000000       ___guard_fids_count        00000000     <absolute>
 0000:00000000       ___guard_longjmp_table     00000000     <absolute>
 0000:00000000       ___hybrid_code_map_count   00000000     <absolute>
 0000:00000000       ___hybrid_auxiliary_iat    00000000     <absolute>
 0000:00000000       ___dynamic_value_reloc_table 00000000     <absolute>
 0000:00000000       ___guard_fids_table        00000000     <absolute>
 0000:00000000       ___volatile_metadata       00000000     <absolute>
 0000:00000000       ___guard_iat_table         00000000     <absolute>
 0000:00000000       ___AbsoluteZero            00000000     <absolute>
 0000:00000000       ___enclave_config          00000000     <absolute>
 0000:00000000       ___hybrid_code_map         00000000     <absolute>
 0000:00000003       ___safe_se_handler_count   00000003     <absolute>
 0000:00000100       ___guard_flags             00000100     <absolute>
 0000:00000000       ___ImageBase               10000000     <linker-defined>
 0001:00000000       ?getAsyncKeyState@@YAXABV?$FunctionCallbackInfo@VValue@v8@@@v8@@@Z 10001000 f   asynckeystate.obj
 0001:00000050       ?init@@YAXV?$Local@VObject@v8@@@v8@@@Z 10001050 f   asynckeystate.obj
 0001:0000016e       __imp_load_?GetCurrentContext@Isolate@v8@@QAE?AV?$Local@VContext@v8@@@2@XZ 1000116e f   node:node.exe
 0001:00000178       __tailMerge_node_exe       10001178     node:node.exe
 0001:00000189       __imp_load_?GetCurrent@Isolate@v8@@SAPAV12@XZ 10001189 f   node:node.exe
 0001:00000193       __imp_load_??1HandleScope@v8@@QAE@XZ 10001193 f   node:node.exe
 0001:0000019d       __imp_load_??0HandleScope@v8@@QAE@PAVIsolate@1@@Z 1000119d f   node:node.exe
 0001:000001a7       __imp_load_?GetFunction@FunctionTemplate@v8@@QAE?AV?$MaybeLocal@VFunction@v8@@@2@V?$Local@VContext@v8@@@2@@Z 100011a7 f   node:node.exe
 0001:000001b1       __imp_load_?New@FunctionTemplate@v8@@SA?AV?$Local@VFunctionTemplate@v8@@@2@PAVIsolate@2@P6AXABV?$FunctionCallbackInfo@VValue@v8@@@2@@ZV?$Local@VValue@v8@@@2@V?$Local@VSignature@v8@@@2@HW4ConstructorBehavior@2@W4SideEffectType@2@@Z 100011b1 f   node:node.exe
 0001:000001bb       __imp_load_?ToLocalEmpty@V8@v8@@CAXXZ 100011bb f   node:node.exe
 0001:000001c5       __imp_load_?FromJustIsNothing@V8@v8@@CAXXZ 100011c5 f   node:node.exe
 0001:000001cf       __imp_load_?IntegerValue@Value@v8@@QBE_JXZ 100011cf f   node:node.exe
 0001:000001d9       __imp_load_?NewFromUtf8@String@v8@@SA?AV?$MaybeLocal@VString@v8@@@2@PAVIsolate@2@PBDW4NewStringType@2@H@Z 100011d9 f   node:node.exe
 0001:000001e3       __imp_load_?Set@Object@v8@@QAE?AV?$Maybe@_N@2@V?$Local@VContext@v8@@@2@V?$Local@VValue@v8@@@2@1@Z 100011e3 f   node:node.exe
 0001:000001ed       __imp_load_?SetName@Function@v8@@QAEXV?$Local@VString@v8@@@2@@Z 100011ed f   node:node.exe
 0001:000001f7       __imp_load__node_module_register 100011f7 f   node:node.exe
 0001:00000201       @__security_check_cookie@4 10001201 f   LIBCMT:secchk.obj
 0001:0000052d       __DllMainCRTStartup@12     1000152d f   LIBCMT:dll_dllmain.obj
 0001:00000550       ___raise_securityfailure   10001550 f   LIBCMT:gs_report.obj
 0001:00000578       ___report_gsfailure        10001578 f   LIBCMT:gs_report.obj
 0001:000006be       ___security_init_cookie    100016be f   LIBCMT:gs_support.obj
 0001:00000709       _DllMain@12                10001709 f   LIBCMT:dll_dllmain_stub.obj
 0001:0000070f       ?__scrt_initialize_type_info@@YAXXZ 1000170f f   LIBCMT:tncleanup.obj
 0001:0000071b       ?__scrt_uninitialize_type_info@@YAXXZ 1000171b f   LIBCMT:tncleanup.obj
 0001:00000727       ___local_stdio_printf_options 10001727 f i LIBCMT:default_local_stdio_options.obj
 0001:0000072d       ___local_stdio_scanf_options 1000172d f i LIBCMT:default_local_stdio_options.obj
 0001:00000733       ___scrt_initialize_default_local_stdio_options 10001733 f   LIBCMT:default_local_stdio_options.obj
 0001:00000794       ___scrt_acquire_startup_lock 10001794 f   LIBCMT:utility.obj
 0001:000007c6       ___scrt_dllmain_after_initialize_c 100017c6 f   LIBCMT:utility.obj
 0001:000007f1       ___scrt_dllmain_before_initialize_c 100017f1 f   LIBCMT:utility.obj
 0001:000007ff       ___scrt_dllmain_crt_thread_attach 100017ff f   LIBCMT:utility.obj
 0001:0000081e       ___scrt_dllmain_crt_thread_detach 1000181e f   LIBCMT:utility.obj
 0001:0000082b       ___scrt_dllmain_exception_filter 1000182b f   LIBCMT:utility.obj
 0001:0000085f       ___scrt_dllmain_uninitialize_c 1000185f f   LIBCMT:utility.obj
 0001:00000882       ___scrt_dllmain_uninitialize_critical 10001882 f   LIBCMT:utility.obj
 0001:0000088f       ___scrt_initialize_crt     1000188f f   LIBCMT:utility.obj
 0001:000008c8       ___scrt_initialize_onexit_tables 100018c8 f   LIBCMT:utility.obj
 0001:0000094f       ___scrt_is_nonwritable_in_current_image 1000194f f   LIBCMT:utility.obj
 0001:000009e3       ___scrt_release_startup_lock 100019e3 f   LIBCMT:utility.obj
 0001:00000a00       ___scrt_uninitialize_crt   10001a00 f   LIBCMT:utility.obj
 0001:00000a28       ___scrt_get_dyn_tls_init_callback 10001a28 f   LIBCMT:dyn_tls_init.obj
 0001:00000a2e       ___scrt_fastfail           10001a2e f   LIBCMT:utility_desktop.obj
 0001:00000b48       __crt_debugger_hook        10001b48 f   LIBCMT:utility_desktop.obj
 0001:00000b50       __RTC_Initialize           10001b50 f   LIBCMT:initsect.obj
 0001:00000b7c       __RTC_Terminate            10001b7c f   LIBCMT:initsect.obj
 0001:00000bb0       __SEH_prolog4              10001bb0 f   LIBCMT:sehprolg4.obj
 0001:00000bf6       __SEH_epilog4              10001bf6 f   LIBCMT:sehprolg4.obj
 0001:00000c0b       @_guard_check_icall_nop@4  10001c0b f i LIBCMT:guard_support.obj
 0001:00000c0c       ___isa_available_init      10001c0c f   LIBCMT:cpu_disp.obj
 0001:00000da3       __get_startup_argv_mode    10001da3 f   LIBCMT:argv_mode.obj
 0001:00000da7       ___scrt_is_ucrt_dll_in_use 10001da7 f   LIBCMT:ucrt_detection.obj
 0001:00000e00       __except_handler4          10001e00 f   libvcruntime:chandler4.obj
 0001:00000f5e       ___std_type_info_destroy_list 10001f5e f   libvcruntime:std_type_info.obj
 0001:00000f81       ___vcrt_initialize         10001f81 f   libvcruntime:initialization.obj
 0001:00000fa0       ___vcrt_thread_attach      10001fa0 f   libvcruntime:initialization.obj
 0001:00000fab       ___vcrt_thread_detach      10001fab f   libvcruntime:initialization.obj
 0001:00000fb6       ___vcrt_uninitialize       10001fb6 f   libvcruntime:initialization.obj
 0001:00000fcd       ___vcrt_uninitialize_critical 10001fcd f   libvcruntime:initialization.obj
 0001:00000fe0       _memset                    10001fe0 f   libvcruntime:memset.obj
 0001:00001140       __local_unwind4            10002140 f   libvcruntime:exsup4.obj
 0001:00001218       __seh_longjmp_unwind4@4    10002218 f   libvcruntime:exsup4.obj
 0001:00001240       @_EH4_CallFilterFunc@8     10002240 f   libvcruntime:exsup4.obj
 0001:00001258       @_EH4_TransferToHandler@8  10002258 f   libvcruntime:exsup4.obj
 0001:00001274       @_EH4_GlobalUnwind2@8      10002274 f   libvcruntime:exsup4.obj
 0001:00001290       @_EH4_LocalUnwind@16       10002290 f   libvcruntime:exsup4.obj
 0001:000012a7       ___except_validate_context_record 100022a7 f   libvcruntime:jbcxrval.obj
 0001:000012d7       ___except_validate_jump_buffer 100022d7 f   libvcruntime:jbcxrval.obj
 0001:00001304       ___vcrt_freefls@4          10002304 f   libvcruntime:per_thread_data.obj
 0001:00001320       ___vcrt_freeptd            10002320 f   libvcruntime:per_thread_data.obj
 0001:00001356       ___vcrt_getptd_noexit      10002356 f   libvcruntime:per_thread_data.obj
 0001:000013e8       ___vcrt_initialize_ptd     100023e8 f   libvcruntime:per_thread_data.obj
 0001:0000141b       ___vcrt_uninitialize_ptd   1000241b f   libvcruntime:per_thread_data.obj
 0001:00001436       ___vcrt_initialize_locks   10002436 f   libvcruntime:locks.obj
 0001:00001472       ___vcrt_uninitialize_locks 10002472 f   libvcruntime:locks.obj
 0001:000014b0       __global_unwind2           100024b0 f   libvcruntime:exsup.obj
 0001:00001516       __local_unwind2            10002516 f   libvcruntime:exsup.obj
 0001:0000159a       __abnormal_termination     1000259a f   libvcruntime:exsup.obj
 0001:000015c0       __NLG_Notify1              100025c0 f   libvcruntime:exsup.obj
 0001:000015cc       __NLG_Notify               100025cc f   libvcruntime:exsup.obj
 0001:000015e3       __NLG_Dispatch             100025e3     libvcruntime:exsup.obj
 0001:000015e3       __NLG_Dispatch2            100025e3     libvcruntime:exsup.obj
 0001:000015eb       __NLG_Call                 100025eb f   libvcruntime:exsup.obj
 0001:000015ed       __NLG_Return2              100025ed     libvcruntime:exsup.obj
 0001:000015f0       _memcpy                    100025f0 f   libvcruntime:memcpy.obj
 0001:00001c59       ___vcrt_FlsAlloc           10002c59 f   libvcruntime:winapi_downlevel.obj
 0001:00001c94       ___vcrt_FlsFree            10002c94 f   libvcruntime:winapi_downlevel.obj
 0001:00001ccf       ___vcrt_FlsGetValue        10002ccf f   libvcruntime:winapi_downlevel.obj
 0001:00001d0a       ___vcrt_FlsSetValue        10002d0a f   libvcruntime:winapi_downlevel.obj
 0001:00001d48       ___vcrt_InitializeCriticalSectionEx 10002d48 f   libvcruntime:winapi_downlevel.obj
 0001:00001d90       __CallSettingFrame@12      10002d90 f   libvcruntime:lowhelpr.obj
 0001:00001db7       __NLG_Return               10002db7     libvcruntime:lowhelpr.obj
 0001:00001ddc       ___DestructExceptionObject 10002ddc f   libvcruntime:ehhelpers.obj
 0001:00001e7c       ?_CallMemberFunction0@@YGXQAX0@Z 10002e7c f i libvcruntime:ehhelpers.obj
 0001:00001e90       _memmove                   10002e90 f   libvcruntime:memmove.obj
 0001:00002404       ??0_LocaleUpdate@@QAE@QAU__crt_locale_pointers@@@Z 10003404 f i libucrt:stricmp.obj
 0001:00002487       ___ascii_stricmp           10003487 f   libucrt:stricmp.obj
 0001:000024c2       __stricmp                  100034c2 f   libucrt:stricmp.obj
 0001:0000250b       __stricmp_l                1000350b f   libucrt:stricmp.obj
 0001:000025a5       __initterm                 100035a5 f   libucrt:initterm.obj
 0001:000025ec       __initterm_e               100035ec f   libucrt:initterm.obj
 0001:0000261a       __seh_filter_dll           1000361a f   libucrt:exception_filter.obj
 0001:0000263a       __seh_filter_exe           1000363a f   libucrt:exception_filter.obj
 0001:000029fa       ___acrt_initialize_thread_local_exit_callback 100039fa f   libucrt:exit.obj
 0001:00002a09       __cexit                    10003a09 f   libucrt:exit.obj
 0001:00002a18       __exit                     10003a18 f   libucrt:exit.obj
 0001:00002a2e       __is_c_termination_complete 10003a2e f   libucrt:exit.obj
 0001:00002ce6       ___acrt_allocate_buffer_for_argv 10003ce6 f   libucrt:argv_parsing.obj
 0001:00002d35       __configure_narrow_argv    10003d35 f   libucrt:argv_parsing.obj
 0001:00002e94       ??$uninitialize@A6AXAAPAPAD@Z@?$dual_state_global@PAPAD@__crt_state_management@@QAEXA6AXAAPAPAD@Z@Z 10003e94 f i libucrt:environment_initialization.obj
 0001:00002e94       ??$uninitialize@A6AXAAPAPA_W@Z@?$dual_state_global@PAPA_W@__crt_state_management@@QAEXA6AXAAPAPA_W@Z@Z 10003e94 f i libucrt:environment_initialization.obj
 0001:00002ef3       ___dcrt_uninitialize_environments_nolock 10003ef3 f   libucrt:environment_initialization.obj
 0001:00002f2a       __initialize_narrow_environment 10003f2a f   libucrt:environment_initialization.obj
 0001:0000305c       __execute_onexit_table     1000405c f   libucrt:onexit.obj
 0001:0000308b       __initialize_onexit_table  1000408b f   libucrt:onexit.obj
 0001:000030db       ___acrt_uninitialize_command_line 100040db f   libucrt:argv_data.obj
 0001:00003186       ??$__crt_fast_encode_pointer@PAX@@YAPAXQAX@Z 10004186 f i libucrt:initialization.obj
 0001:000031d3       ___acrt_initialize         100041d3 f   libucrt:initialization.obj
 0001:000031e5       ___acrt_thread_attach      100041e5 f   libucrt:initialization.obj
 0001:000031f0       ___acrt_thread_detach      100041f0 f   libucrt:initialization.obj
 0001:000031f8       ___acrt_uninitialize       100041f8 f   libucrt:initialization.obj
 0001:00003228       ___acrt_uninitialize_critical 10004228 f   libucrt:initialization.obj
 0001:0000323a       _terminate                 1000423a f   libucrt:terminate.obj
 0001:00003276       _free                      10004276 f   libucrt:free.obj
 0001:00003293       _strcpy_s                  10004293 f   libucrt:strcpy_s.obj
 0001:000032ed       ___acrt_locale_get_ctype_array_value 100042ed f i libucrt:output.obj
 0001:0000330f       __chvalidchk_l             1000430f f i libucrt:atox.obj
 0001:00003337       __ischartype_l             10004337 f i libucrt:atox.obj
 0001:00003370       _strncmp                   10004370 f   libucrt:strncmp.obj
 0001:000033e8       _abort                     100043e8 f   libucrt:abort.obj
 0001:0000342c       _calloc                    1000442c f   libucrt:calloc.obj
 0001:00003437       _wcsncmp                   10004437 f   libucrt:wcsncmp.obj
 0001:00003471       ___acrt_call_reportfault   10004471 f   libucrt:invalid_parameter.obj
 0001:000035ac       ___acrt_initialize_invalid_parameter_handler 100045ac f   libucrt:invalid_parameter.obj
 0001:000035bb       __invalid_parameter        100045bb f   libucrt:invalid_parameter.obj
 0001:0000361f       __invalid_parameter_noinfo 1000461f f   libucrt:invalid_parameter.obj
 0001:0000362f       __invoke_watson            1000462f f   libucrt:invalid_parameter.obj
 0001:000037c6       __tolower_l                100047c6 f   libucrt:tolower_toupper.obj
 0001:000037e0       ___acrt_errno_from_os_error 100047e0 f   libucrt:errno.obj
 0001:00003823       ___acrt_errno_map_os_error 10004823 f   libucrt:errno.obj
 0001:00003846       ___doserrno                10004846 f   libucrt:errno.obj
 0001:00003859       __errno                    10004859 f   libucrt:errno.obj
 0001:00003b86       ___acrt_freeptd            10004b86 f   libucrt:per_thread_data.obj
 0001:00003bb2       ___acrt_getptd             10004bb2 f   libucrt:per_thread_data.obj
 0001:00003c6f       ___acrt_getptd_head        10004c6f f   libucrt:per_thread_data.obj
 0001:00003d09       ___acrt_getptd_noexit      10004d09 f   libucrt:per_thread_data.obj
 0001:00003dbe       ___acrt_initialize_ptd     10004dbe f   libucrt:per_thread_data.obj
 0001:00003dea       ___acrt_uninitialize_ptd   10004dea f   libucrt:per_thread_data.obj
 0001:00003e04       ___acrt_update_locale_info 10004e04 f   libucrt:locale_update.obj
 0001:00003e31       ___acrt_update_multibyte_info 10004e31 f   libucrt:locale_update.obj
 0001:00003ec2       ___acrt_set_locale_changed 10004ec2 f   libucrt:wsetlocale.obj
 0001:00003ecd       ___acrt_uninitialize_locale 10004ecd f   libucrt:wsetlocale.obj
 0001:00003ef6       ___acrt_initialize_locks   10004ef6 f   libucrt:locks.obj
 0001:00003f37       ___acrt_lock               10004f37 f   libucrt:locks.obj
 0001:00003f4e       ___acrt_uninitialize_locks 10004f4e f   libucrt:locks.obj
 0001:00003f7f       ___acrt_unlock             10004f7f f   libucrt:locks.obj
 0001:00003f96       ___acrt_get_process_end_policy 10004f96 f   libucrt:win_policies.obj
 0001:00003fc9       __calloc_base              10004fc9 f   libucrt:calloc_base.obj
 0001:00004026       __free_base                10005026 f   libucrt:free_base.obj
 0001:000041f9       ??$__acrt_mbs_to_wcs_cp@U__crt_win32_buffer_internal_dynamic_resizing@@@@YAHQBDAAV?$__crt_win32_buffer@_WU__crt_win32_buffer_internal_dynamic_resizing@@@@I@Z 100051f9 f i libucrt:argv_wildcards.obj
 0001:00004715       ?__acrt_get_utf8_acp_compatibility_codepage@@YAIXZ 10005715 f i libucrt:argv_wildcards.obj
 0001:00004756       ?_deallocate@?$__crt_win32_buffer@_WU__crt_win32_buffer_internal_dynamic_resizing@@@@AAEXXZ 10005756 f i libucrt:argv_wildcards.obj
 0001:00004756       ?_deallocate@?$__crt_win32_buffer@DU__crt_win32_buffer_internal_dynamic_resizing@@@@AAEXXZ 10005756 f i libucrt:argv_wildcards.obj
 0001:00004770       ?allocate@?$__crt_win32_buffer@DU__crt_win32_buffer_internal_dynamic_resizing@@@@QAEHI@Z 10005770 f i libucrt:argv_wildcards.obj
 0001:000047ac       ?allocate@?$__crt_win32_buffer@_WU__crt_win32_buffer_internal_dynamic_resizing@@@@QAEHI@Z 100057ac f i libucrt:argv_wildcards.obj
 0001:000047eb       ?allocate@__crt_win32_buffer_internal_dynamic_resizing@@SAHQAPAXIABV__crt_win32_buffer_empty_debug_info@@@Z 100057eb f i libucrt:argv_wildcards.obj
 0001:00004891       ___acrt_expand_narrow_argv_wildcards 10005891 f   libucrt:argv_wildcards.obj
 0001:00004963       ?allocate@?$__crt_win32_buffer@DU__crt_win32_buffer_no_resizing@@@@QAEHI@Z 10005963 f i libucrt:getmodulefilenamea.obj
 0001:0000498a       ?set_to_nullptr@?$__crt_win32_buffer@DU__crt_win32_buffer_no_resizing@@@@QAEXXZ 1000598a f i libucrt:getmodulefilenamea.obj
 0001:0000499e       ___acrt_GetModuleFileNameA 1000599e f   libucrt:getmodulefilenamea.obj
 0001:00004f51       ___acrt_initialize_multibyte 10005f51 f   libucrt:mbctype.obj
 0001:00004f99       ___acrt_update_thread_multibyte_data 10005f99 f   libucrt:mbctype.obj
 0001:00004fac       __setmbcp_nolock           10005fac f   libucrt:mbctype.obj
 0001:0000527b       __ismbblead                1000627b f   libucrt:ismbbyte.obj
 0001:00005293       ___acrt_initialize_command_line 10006293 f   libucrt:argv_data.obj
 0001:000052ac       ___acrt_MultiByteToWideChar 100062ac f   libucrt:multibytetowidechar.obj
 0001:00005328       ___acrt_WideCharToMultiByte 10006328 f   libucrt:widechartomultibyte.obj
 0001:0000540c       ___dcrt_get_narrow_environment_from_os 1000640c f   libucrt:get_environment_from_os.obj
 0001:00005492       __recalloc_base            10006492 f   libucrt:recalloc.obj
 0001:0000566b       ___acrt_initialize_lowio   1000666b f   libucrt:ioinit.obj
 0001:000056c1       ___acrt_uninitialize_lowio 100066c1 f   libucrt:ioinit.obj
 0001:00005887       ___acrt_AppPolicyGetProcessTerminationMethodInternal@4 10006887 f   libucrt:winapi_thunks.obj
 0001:000058c7       ___acrt_AreFileApisANSI@0  100068c7 f   libucrt:winapi_thunks.obj
 0001:000058e6       ___acrt_FlsAlloc@4         100068e6 f   libucrt:winapi_thunks.obj
 0001:00005925       ___acrt_FlsFree@4          10006925 f   libucrt:winapi_thunks.obj
 0001:00005964       ___acrt_FlsGetValue@4      10006964 f   libucrt:winapi_thunks.obj
 0001:000059a3       ___acrt_FlsSetValue@8      100069a3 f   libucrt:winapi_thunks.obj
 0001:000059e5       ___acrt_InitializeCriticalSectionEx@12 100069e5 f   libucrt:winapi_thunks.obj
 0001:00005a30       ___acrt_LCMapStringEx@36   10006a30 f   libucrt:winapi_thunks.obj
 0001:00005a8d       ___acrt_LocaleNameToLCID@8 10006a8d f   libucrt:winapi_thunks.obj
 0001:00005abe       ___acrt_initialize_winapi_thunks 10006abe f   libucrt:winapi_thunks.obj
 0001:00005ae9       ___acrt_uninitialize_winapi_thunks 10006ae9 f   libucrt:winapi_thunks.obj
 0001:00005b1f       ___acrt_initialize_heap    10006b1f f   libucrt:heap_handle.obj
 0001:00005b30       ___acrt_uninitialize_heap  10006b30 f   libucrt:heap_handle.obj
 0001:00005b3a       ___acrt_execute_initializers 10006b3a f   libucrt:shared_initialization.obj
 0001:00005ba2       ___acrt_execute_uninitializers 10006ba2 f   libucrt:shared_initialization.obj
 0001:00005bd3       ___acrt_initialize_new_handler 10006bd3 f   libucrt:new_handler.obj
 0001:00005be2       __callnewh                 10006be2 f   libucrt:new_handler.obj
 0001:00005c0f       __query_new_handler        10006c0f f   libucrt:new_handler.obj
 0001:00005d25       ___acrt_get_sigabrt_handler 10006d25 f   libucrt:signal.obj
 0001:00005d4e       ___acrt_initialize_signal_handlers 10006d4e f   libucrt:signal.obj
 0001:00005d6c       ___fpecode                 10006d6c f   libucrt:signal.obj
 0001:00005d75       _raise                     10006d75 f   libucrt:signal.obj
 0001:00005f5c       ___acrt_has_user_matherr   10006f5c f   libucrt:matherr.obj
 0001:00005f74       ___acrt_initialize_user_matherr 10006f74 f   libucrt:matherr.obj
 0001:00005f83       ___acrt_invoke_user_matherr 10006f83 f   libucrt:matherr.obj
 0001:00006180       ___acrt_stdio_flush_nolock 10007180 f   libucrt:fflush.obj
 0001:000061e5       __fflush_nolock            100071e5 f   libucrt:fflush.obj
 0001:0000622d       __flushall                 1000722d f   libucrt:fflush.obj
 0001:00006236       ___acrt_initialize_stdio   10007236 f   libucrt:_file.obj
 0001:000062fe       ___acrt_uninitialize_stdio 100072fe f   libucrt:_file.obj
 0001:0000634a       __lock_file                1000734a f   libucrt:_file.obj
 0001:0000635e       __unlock_file              1000735e f   libucrt:_file.obj
 0001:00006372       __malloc_base              10007372 f   libucrt:malloc_base.obj
 0001:000063c0       __mbtowc_l                 100073c0 f   libucrt:mbtowc.obj
 0001:00006504       _mbtowc                    10007504 f   libucrt:mbtowc.obj
 0001:0000651e       __fileno                   1000751e f   libucrt:fileno.obj
 0001:00006545       ___pctype_func             10007545 f   libucrt:ctype.obj
 0001:0000656b       __isctype_l                1000756b f   libucrt:isctype.obj
 0001:00006640       __isleadbyte_l             10007640 f i libucrt:_wctype.obj
 0001:00006868       ___acrt_LCMapStringA       10007868 f   libucrt:lcmapstringa.obj
 0001:000068b3       __freea_crt                100078b3 f i libucrt:lcmapstringa.obj
 0001:000068d3       ___acrt_add_locale_ref     100078d3 f   libucrt:locale_refcounting.obj
 0001:00006950       ___acrt_free_locale        10007950 f   libucrt:locale_refcounting.obj
 0001:00006a9a       ___acrt_locale_add_lc_time_reference 10007a9a f   libucrt:locale_refcounting.obj
 0001:00006ac3       ___acrt_locale_free_lc_time_if_unreferenced 10007ac3 f   libucrt:locale_refcounting.obj
 0001:00006af4       ___acrt_locale_release_lc_time_reference 10007af4 f   libucrt:locale_refcounting.obj
 0001:00006b1d       ___acrt_release_locale_ref 10007b1d f   libucrt:locale_refcounting.obj
 0001:00006b9e       ___acrt_update_thread_locale_data 10007b9e f   libucrt:locale_refcounting.obj
 0001:00006c15       __updatetlocinfoEx_nolock  10007c15 f   libucrt:locale_refcounting.obj
 0001:00006c65       ___acrt_locale_free_monetary 10007c65 f   libucrt:initmon.obj
 0001:00006d63       ___acrt_locale_free_numeric 10007d63 f   libucrt:initnum.obj
 0001:00006e04       ___acrt_locale_free_time   10007e04 f   libucrt:inittime.obj
 0001:00006ee8       ___acrt_GetStringTypeA     10007ee8 f   libucrt:getstringtypea.obj
 0001:00006fed       __query_new_mode           10007fed f   libucrt:new_mode.obj
 0001:00007040       _qsort                     10008040 f   libucrt:qsort.obj
 0001:00007537       _strncpy_s                 10008537 f   libucrt:strncpy_s.obj
 0001:00007550       _strpbrk                   10008550 f   libucrt:strpbrk.obj
 0001:00007590       __mbsdec                   10008590 f   libucrt:mbsdec.obj
 0001:000075a7       __mbsdec_l                 100085a7 f   libucrt:mbsdec.obj
 0001:00007645       __msize_base               10008645 f   libucrt:msize.obj
 0001:00007678       __realloc_base             10008678 f   libucrt:realloc_base.obj
 0001:000076e1       ___acrt_lowio_create_handle_array 100086e1 f   libucrt:osfinfo.obj
 0001:0000775e       ___acrt_lowio_destroy_handle_array 1000875e f   libucrt:osfinfo.obj
 0001:00007793       ___acrt_lowio_ensure_fh_exists 10008793 f   libucrt:osfinfo.obj
 0001:00007827       ___acrt_lowio_lock_fh      10008827 f   libucrt:osfinfo.obj
 0001:0000784a       ___acrt_lowio_unlock_fh    1000884a f   libucrt:osfinfo.obj
 0001:0000786d       __free_osfhnd              1000886d f   libucrt:osfinfo.obj
 0001:000078fe       __get_osfhandle            100088fe f   libucrt:osfinfo.obj
 0001:00007a1c       ___acrt_DownlevelLocaleNameToLCID 10008a1c f   libucrt:lcidtoname_downlevel.obj
 0001:00007ae0       __commit                   10008ae0 f   libucrt:commit.obj
 0001:000082e4       __write                    100092e4 f   libucrt:write.obj
 0001:000083cc       __write_nolock             100093cc f   libucrt:write.obj
 0001:000085b0       __fcloseall                100095b0 f   libucrt:closeall.obj
 0001:00008651       ___acrt_stdio_free_buffer_nolock 10009651 f   libucrt:_freebuf.obj
 0001:00008691       __isatty                   10009691 f   libucrt:isatty.obj
 0001:00008713       ?__mbrtowc_utf8@__crt_mbstring@@YAIPA_WPBDIPAU_Mbstatet@@@Z 10009713 f   libucrt:mbrtowc.obj
 0001:00008755       ?__mbsrtowcs_utf8@__crt_mbstring@@YAIPA_WPAPBDIPAU_Mbstatet@@@Z 10009755 f   libucrt:mbrtowc.obj
 0001:00008852       ?return_illegal_sequence@__crt_mbstring@@YAIPAU_Mbstatet@@@Z 10009852 f i libucrt:c32rtomb.obj
 0001:00008871       ___strncnt                 10009871 f   libucrt:strncnt.obj
 0001:0000888d       __query_app_type           1000988d f   libucrt:report_runtime_error.obj
 0001:00008911       __lseeki64_nolock          10009911 f   libucrt:lseek.obj
 0001:0000892c       __putwch_nolock            1000992c f   libucrt:putwch.obj
 0001:00008960       __fclose_nolock            10009960 f   libucrt:fclose.obj
 0001:000089d7       _fclose                    100099d7 f   libucrt:fclose.obj
 0001:00008a51       ?__mbrtoc32_utf8@__crt_mbstring@@YAIPA_UPBDIPAU_Mbstatet@@@Z 10009a51 f   libucrt:mbrtoc32.obj
 0001:00008c10       __CIlog10                  10009c10 f   libucrt:log10_impl.obj
 0001:00008c4b       __CIlog10_default          10009c4b f   libucrt:log10_impl.obj
 0001:00008c5f       __log10_default            10009c5f     libucrt:log10_impl.obj
 0001:00008d20       _ceil                      10009d20 f   libucrt:ceil_pentium4.obj
 0001:00008d60       __ceil_pentium4            10009d60 f   libucrt:ceil_pentium4.obj
 0001:00008e40       ___ascii_strnicmp          10009e40 f   libucrt:_strnicm.obj
 0001:00008ec0       ___dcrt_lowio_ensure_console_output_initialized 10009ec0 f   libucrt:initcon.obj
 0001:00008edf       ___dcrt_terminate_console_output 10009edf f   libucrt:initcon.obj
 0001:00008ef6       ___dcrt_write_console      10009ef6 f   libucrt:initcon.obj
 0001:00008fcd       __close                    10009fcd f   libucrt:close.obj
 0001:0000905c       __close_nolock             1000a05c f   libucrt:close.obj
 0001:000090f8       ?__acrt_stdio_free_stream@@YAXV__crt_stdio_stream@@@Z 1000a0f8 f   libucrt:stream.obj
 0001:00009133       ___acrt_initialize_sse2    1000a133 f   libucrt:mathfcns.obj
 0001:00009150       __CIlog10_pentium4         1000a150 f   libucrt:log10_pentium4.obj
 0001:00009168       __log10_pentium4           1000a168     libucrt:log10_pentium4.obj
 0001:00009400       __fFEXP                    1000a400 f   libucrt:87tran.obj
 0001:00009457       __rtinfpopse               1000a457     libucrt:87tran.obj
 0001:00009459       __rtinfnpopse              1000a459     libucrt:87tran.obj
 0001:00009469       __fFLN                     1000a469     libucrt:87tran.obj
 0001:0000951e       __rtinfpop                 1000a51e     libucrt:87tran.obj
 0001:00009520       __rtinfnpop                1000a520     libucrt:87tran.obj
 0001:00009530       __rtforexpinf              1000a530 f   libucrt:87tran.obj
 0001:0000953d       __ffexpm1                  1000a53d     libucrt:87tran.obj
 0001:000095f0       __trandisp1                1000a5f0 f   libucrt:87disp.obj
 0001:00009665       __trandisp2                1000a665 f   libucrt:87disp.obj
 0001:000096ff       __rttospopde               1000a6ff     libucrt:87disp.obj
 0001:00009704       __rttospop                 1000a704     libucrt:87disp.obj
 0001:00009710       __rtnospop                 1000a710 f   libucrt:87disp.obj
 0001:00009720       __rttosnpop                1000a720 f   libucrt:87disp.obj
 0001:00009721       __rtnospopde               1000a721     libucrt:87disp.obj
 0001:00009728       __rtzeropop                1000a728     libucrt:87disp.obj
 0001:0000972a       __rtzeronpop               1000a72a     libucrt:87disp.obj
 0001:00009730       __rtzerospop               1000a730 f   libucrt:87disp.obj
 0001:0000973d       __rtonepop                 1000a73d     libucrt:87disp.obj
 0001:00009740       __rtonenpop                1000a740 f   libucrt:87disp.obj
 0001:00009750       __tosnan1                  1000a750 f   libucrt:87disp.obj
 0001:00009780       __nosnan2                  1000a780 f   libucrt:87disp.obj
 0001:00009790       __tosnan2                  1000a790 f   libucrt:87disp.obj
 0001:000097c0       __nan2                     1000a7c0 f   libucrt:87disp.obj
 0001:00009800       __rtindfpop                1000a800 f   libucrt:87disp.obj
 0001:00009802       __rtindfnpop               1000a802     libucrt:87disp.obj
 0001:00009813       __rttosnpopde              1000a813     libucrt:87disp.obj
 0001:00009820       __rtatan2inf               1000a820 f   libucrt:87disp.obj
 0001:0000983d       __rtchsifneg               1000a83d     libucrt:87disp.obj
 0001:00009850       __twoToTOS                 1000a850 f   libucrt:common.obj
 0001:00009865       __load_CW                  1000a865 f   libucrt:common.obj
 0001:0000987c       __convertTOStoQNaN         1000a87c f   libucrt:common.obj
 0001:00009895       __fload_withFB             1000a895 f   libucrt:common.obj
 0001:000098d8       __checkTOS_withFB          1000a8d8 f   libucrt:common.obj
 0001:000098ee       __fast_exit                1000a8ee f   libucrt:common.obj
 0001:000098fb       __math_exit                1000a8fb f   libucrt:common.obj
 0001:00009925       __check_overflow_exit      1000a925 f   libucrt:common.obj
 0001:00009939       __check_range_exit         1000a939 f   libucrt:common.obj
 0001:000099e0       __startTwoArgErrorHandling 1000a9e0 f   libucrt:genexcep.obj
 0001:000099f7       __startOneArgErrorHandling 1000a9f7 f   libucrt:genexcep.obj
 0001:00009a33       ___libm_error_support      1000aa33 f   libucrt:libm_error.obj
 0001:00009c29       __ceil_default             1000ac29 f   libucrt:ceil.obj
 0001:00009ce0       __clrfp                    1000ace0 f   libucrt:fpctrl.obj
 0001:00009cf3       __ctrlfp                   1000acf3 f   libucrt:fpctrl.obj
 0001:00009d1f       __set_statfp               1000ad1f f   libucrt:fpctrl.obj
 0001:00009d7a       __statfp                   1000ad7a f   libucrt:fpctrl.obj
 0001:00009d8c       __d_inttype                1000ad8c f   libucrt:powhlp.obj
 0001:00009df6       __powhlp                   1000adf6 f   libucrt:powhlp.obj
 0001:00009f21       __87except                 1000af21 f   libucrt:87except.obj
 0001:0000a02b       __frnd                     1000b02b f   libucrt:frnd.obj
 0001:0000a041       __errcode                  1000b041 f   libucrt:fpexcept.obj
 0001:0000a075       __except1                  1000b075 f   libucrt:fpexcept.obj
 0001:0000a143       __handle_exc               1000b143 f   libucrt:fpexcept.obj
 0001:0000a330       __raise_exc                1000b330 f   libucrt:fpexcept.obj
 0001:0000a353       __raise_exc_ex             1000b353 f   libucrt:fpexcept.obj
 0001:0000a649       __set_errno_from_matherr   1000b649 f   libucrt:fpexcept.obj
 0001:0000a678       __umatherr                 1000b678 f   libucrt:fpexcept.obj
 0001:0000a71a       __decomp                   1000b71a f   libucrt:util.obj
 0001:0000a7f8       __set_exp                  1000b7f8 f   libucrt:util.obj
 0001:0000a827       __sptype                   1000b827 f   libucrt:util.obj
 0001:0000a885       __fpclass                  1000b885 f   libucrt:ieeemisc.obj
 0001:0000a929       _IsProcessorFeaturePresent@4 1000b929 f   kernel32:KERNEL32.dll
 0001:0000a92f       ?DloadAcquireSectionWriteAccess@@YGXXZ 1000b92f f i DelayImp:delayhlp.obj
 0001:0000a962       ?DloadGetSRWLockFunctionPointers@@YGEXZ 1000b962 f i DelayImp:delayhlp.obj
 0001:0000a9d5       ?DloadLock@@YGXXZ          1000b9d5 f i DelayImp:delayhlp.obj
 0001:0000aa14       ?DloadMakePermanentImageCommit@@YGXPAXK@Z 1000ba14 f i DelayImp:delayhlp.obj
 0001:0000aa83       ?DloadObtainSection@@YGPAXPAK0@Z 1000ba83 f i DelayImp:delayhlp.obj
 0001:0000aafe       ?DloadProtectSection@@YGXKPAK@Z 1000bafe f i DelayImp:delayhlp.obj
 0001:0000ab6c       ?DloadReleaseSectionWriteAccess@@YGXXZ 1000bb6c f i DelayImp:delayhlp.obj
 0001:0000aba2       ?DloadUnlock@@YGXXZ        1000bba2 f i DelayImp:delayhlp.obj
 0001:0000abce       ___delayLoadHelper2@8      1000bbce f   DelayImp:delayhlp.obj
 0001:0000ae40       __FindPESection            1000be40 f   LIBCMT:pesect.obj
 0001:0000ae90       __IsNonwritableInCurrentImage 1000be90 f   LIBCMT:pesect.obj
 0001:0000af50       __ValidateImageBase        1000bf50 f   LIBCMT:pesect.obj
 0001:0000af90       __aulldvrm                 1000bf90 f   LIBCMT:ulldvrm.obj
 0001:0000b030       __allmul                   1000c030 f   LIBCMT:llmul.obj
 0001:0000b070       __alldvrm                  1000c070 f   LIBCMT:lldvrm.obj
 0001:0000b150       __aullshr                  1000c150 f   LIBCMT:ullshr.obj
 0001:0000b170       __alloca_probe_16          1000c170 f   LIBCMT:alloca16.obj
 0001:0000b186       __alloca_probe_8           1000c186     LIBCMT:alloca16.obj
 0001:0000b1a0       __alloca_probe             1000c1a0 f   LIBCMT:chkstk.obj
 0001:0000b1a0       __chkstk                   1000c1a0 f   LIBCMT:chkstk.obj
 0001:0000b1d0       __allshl                   1000c1d0 f   LIBCMT:llshl.obj
 0001:0000b1f0       __ftol2_sse                1000c1f0 f   LIBCMT:ftol2.obj
 0001:0000b1f9       __ftol2_pentium4           1000c1f9 f   LIBCMT:ftol2.obj
 0001:0000b20c       __ftol2_sse_excpt          1000c20c f   LIBCMT:ftol2.obj
 0001:0000b230       __ftol2                    1000c230 f   LIBCMT:ftol2.obj
 0001:0000b2b0       _strchr                    1000c2b0 f   libvcruntime:strchr.obj
 0001:0000b31e       ___from_strstr_to_strchr   1000c31e     libvcruntime:strchr.obj
 0001:0000b3e0       _strrchr                   1000c3e0 f   libvcruntime:strrchr.obj
 0001:0000b517       __filter_x86_sse2_floating_point_exception_default 1000c517 f   LIBCMT:x86_exception_filter.obj
 0001:0000b517       __filter_x86_sse2_floating_point_exception 1000c517 f   LIBCMT:x86_exception_filter.obj
 0002:00000000       __imp__GetModuleHandleA@4  1000d000     kernel32:KERNEL32.dll
 0002:00000004       __imp__VirtualQuery@12     1000d004     kernel32:KERNEL32.dll
 0002:00000008       __imp__VirtualProtect@16   1000d008     kernel32:KERNEL32.dll
 0002:0000000c       __imp__GetSystemInfo@4     1000d00c     kernel32:KERNEL32.dll
 0002:00000010       __imp__UnhandledExceptionFilter@4 1000d010     kernel32:KERNEL32.dll
 0002:00000014       __imp__SetUnhandledExceptionFilter@4 1000d014     kernel32:KERNEL32.dll
 0002:00000018       __imp__GetCurrentProcess@0 1000d018     kernel32:KERNEL32.dll
 0002:0000001c       __imp__TerminateProcess@8  1000d01c     kernel32:KERNEL32.dll
 0002:00000020       __imp__IsProcessorFeaturePresent@4 1000d020     kernel32:KERNEL32.dll
 0002:00000024       __imp__QueryPerformanceCounter@4 1000d024     kernel32:KERNEL32.dll
 0002:00000028       __imp__GetCurrentProcessId@0 1000d028     kernel32:KERNEL32.dll
 0002:0000002c       __imp__GetCurrentThreadId@0 1000d02c     kernel32:KERNEL32.dll
 0002:00000030       __imp__GetSystemTimeAsFileTime@4 1000d030     kernel32:KERNEL32.dll
 0002:00000034       __imp__InitializeSListHead@4 1000d034     kernel32:KERNEL32.dll
 0002:00000038       __imp__IsDebuggerPresent@0 1000d038     kernel32:KERNEL32.dll
 0002:0000003c       __imp__GetStartupInfoW@4   1000d03c     kernel32:KERNEL32.dll
 0002:00000040       __imp__GetModuleHandleW@4  1000d040     kernel32:KERNEL32.dll
 0002:00000044       __imp__InterlockedFlushSList@4 1000d044     kernel32:KERNEL32.dll
 0002:00000048       __imp__RtlUnwind@16        1000d048     kernel32:KERNEL32.dll
 0002:0000004c       __imp__GetLastError@0      1000d04c     kernel32:KERNEL32.dll
 0002:00000050       __imp__SetLastError@4      1000d050     kernel32:KERNEL32.dll
 0002:00000054       __imp__EnterCriticalSection@4 1000d054     kernel32:KERNEL32.dll
 0002:00000058       __imp__LeaveCriticalSection@4 1000d058     kernel32:KERNEL32.dll
 0002:0000005c       __imp__DeleteCriticalSection@4 1000d05c     kernel32:KERNEL32.dll
 0002:00000060       __imp__InitializeCriticalSectionAndSpinCount@8 1000d060     kernel32:KERNEL32.dll
 0002:00000064       __imp__TlsAlloc@0          1000d064     kernel32:KERNEL32.dll
 0002:00000068       __imp__TlsGetValue@4       1000d068     kernel32:KERNEL32.dll
 0002:0000006c       __imp__TlsSetValue@8       1000d06c     kernel32:KERNEL32.dll
 0002:00000070       __imp__TlsFree@4           1000d070     kernel32:KERNEL32.dll
 0002:00000074       __imp__FreeLibrary@4       1000d074     kernel32:KERNEL32.dll
 0002:00000078       __imp__GetProcAddress@8    1000d078     kernel32:KERNEL32.dll
 0002:0000007c       __imp__LoadLibraryExW@12   1000d07c     kernel32:KERNEL32.dll
 0002:00000080       __imp__RaiseException@16   1000d080     kernel32:KERNEL32.dll
 0002:00000084       __imp__ExitProcess@4       1000d084     kernel32:KERNEL32.dll
 0002:00000088       __imp__GetModuleHandleExW@12 1000d088     kernel32:KERNEL32.dll
 0002:0000008c       __imp__GetModuleFileNameW@12 1000d08c     kernel32:KERNEL32.dll
 0002:00000090       __imp__HeapAlloc@12        1000d090     kernel32:KERNEL32.dll
 0002:00000094       __imp__HeapFree@12         1000d094     kernel32:KERNEL32.dll
 0002:00000098       __imp__FindClose@4         1000d098     kernel32:KERNEL32.dll
 0002:0000009c       __imp__FindFirstFileExW@24 1000d09c     kernel32:KERNEL32.dll
 0002:000000a0       __imp__FindNextFileW@8     1000d0a0     kernel32:KERNEL32.dll
 0002:000000a4       __imp__IsValidCodePage@4   1000d0a4     kernel32:KERNEL32.dll
 0002:000000a8       __imp__GetACP@0            1000d0a8     kernel32:KERNEL32.dll
 0002:000000ac       __imp__GetOEMCP@0          1000d0ac     kernel32:KERNEL32.dll
 0002:000000b0       __imp__GetCPInfo@8         1000d0b0     kernel32:KERNEL32.dll
 0002:000000b4       __imp__GetCommandLineA@0   1000d0b4     kernel32:KERNEL32.dll
 0002:000000b8       __imp__GetCommandLineW@0   1000d0b8     kernel32:KERNEL32.dll
 0002:000000bc       __imp__MultiByteToWideChar@24 1000d0bc     kernel32:KERNEL32.dll
 0002:000000c0       __imp__WideCharToMultiByte@32 1000d0c0     kernel32:KERNEL32.dll
 0002:000000c4       __imp__GetEnvironmentStringsW@0 1000d0c4     kernel32:KERNEL32.dll
 0002:000000c8       __imp__FreeEnvironmentStringsW@4 1000d0c8     kernel32:KERNEL32.dll
 0002:000000cc       __imp__GetStdHandle@4      1000d0cc     kernel32:KERNEL32.dll
 0002:000000d0       __imp__GetFileType@4       1000d0d0     kernel32:KERNEL32.dll
 0002:000000d4       __imp__LCMapStringW@24     1000d0d4     kernel32:KERNEL32.dll
 0002:000000d8       __imp__GetProcessHeap@0    1000d0d8     kernel32:KERNEL32.dll
 0002:000000dc       __imp__GetStringTypeW@16   1000d0dc     kernel32:KERNEL32.dll
 0002:000000e0       __imp__HeapSize@12         1000d0e0     kernel32:KERNEL32.dll
 0002:000000e4       __imp__HeapReAlloc@16      1000d0e4     kernel32:KERNEL32.dll
 0002:000000e8       __imp__SetStdHandle@8      1000d0e8     kernel32:KERNEL32.dll
 0002:000000ec       __imp__FlushFileBuffers@4  1000d0ec     kernel32:KERNEL32.dll
 0002:000000f0       __imp__WriteFile@20        1000d0f0     kernel32:KERNEL32.dll
 0002:000000f4       __imp__GetConsoleCP@0      1000d0f4     kernel32:KERNEL32.dll
 0002:000000f8       __imp__GetConsoleMode@8    1000d0f8     kernel32:KERNEL32.dll
 0002:000000fc       __imp__SetFilePointerEx@20 1000d0fc     kernel32:KERNEL32.dll
 0002:00000100       __imp__CreateFileW@28      1000d100     kernel32:KERNEL32.dll
 0002:00000104       __imp__CloseHandle@4       1000d104     kernel32:KERNEL32.dll
 0002:00000108       __imp__WriteConsoleW@20    1000d108     kernel32:KERNEL32.dll
 0002:0000010c       __imp__DecodePointer@4     1000d10c     kernel32:KERNEL32.dll
 0002:00000110       __imp__LoadLibraryExA@12   1000d110     kernel32:KERNEL32.dll
 0002:00000114       \177KERNEL32_NULL_THUNK_DATA 1000d114     kernel32:KERNEL32.dll
 0002:00000118       __imp__GetAsyncKeyState@4  1000d118     user32:USER32.dll
 0002:0000011c       \177USER32_NULL_THUNK_DATA 1000d11c     user32:USER32.dll
 0002:00000120       ___guard_check_icall_fptr  1000d120     LIBCMT:guard_support.obj
 0002:00000124       ___xc_a                    1000d124     LIBCMT:initializers.obj
 0002:00000128       __register_addon_          1000d128     asynckeystate.obj
 0002:0000012c       ___xc_z                    1000d12c     LIBCMT:initializers.obj
 0002:00000130       ___xi_a                    1000d130     LIBCMT:initializers.obj
 0002:00000134       ___acrt_multibyte_initializer 1000d134     libucrt:multibyte_initializer.obj
 0002:00000138       ___acrt_stdio_initializer  1000d138     libucrt:stdio_initializer.obj
 0002:0000013c       ___acrt_tran_sse2_initializer 1000d13c     libucrt:sse2_initializer.obj
 0002:00000140       ___xi_z                    1000d140     LIBCMT:initializers.obj
 0002:00000144       ___xp_a                    1000d144     LIBCMT:initializers.obj
 0002:00000148       ___acrt_locale_terminator  1000d148     libucrt:locale_initializer.obj
 0002:0000014c       ___dcrt_console_output_terminator 1000d14c     libucrt:console_output_initializer.obj
 0002:00000150       ___acrt_stdio_terminator   1000d150     libucrt:stdio_initializer.obj
 0002:00000154       ___xp_z                    1000d154     LIBCMT:initializers.obj
 0002:00000158       ___xt_a                    1000d158     LIBCMT:initializers.obj
 0002:0000015c       ___xt_z                    1000d15c     LIBCMT:initializers.obj
 0002:00000160       __sz_node_exe              1000d160     node:node.exe
 0002:0000016c       __pDefaultRawDllMain       1000d16c     LIBCMT:dll_dllmain.obj
 0002:0000016c       __pRawDllMain              1000d16c     LIBCMT:dll_dllmain.obj
 0002:00000318       ??_C@_08EHJDFFNH@__based?$CI@ 1000d318     libvcruntime:undname.obj
 0002:00000324       ??_C@_07KOLFKCDI@__cdecl@  1000d324     libvcruntime:undname.obj
 0002:0000032c       ??_C@_08GHMPAG@__pascal@   1000d32c     libvcruntime:undname.obj
 0002:00000338       ??_C@_09IFJBGAPI@__stdcall@ 1000d338     libvcruntime:undname.obj
 0002:00000344       ??_C@_0L@NPHFGOKO@__thiscall@ 1000d344     libvcruntime:undname.obj
 0002:00000350       ??_C@_0L@JMKHOMEK@__fastcall@ 1000d350     libvcruntime:undname.obj
 0002:0000035c       ??_C@_0N@BCKKPABJ@__vectorcall@ 1000d35c     libvcruntime:undname.obj
 0002:0000036c       ??_C@_09HIJEGCPM@__clrcall@ 1000d36c     libvcruntime:undname.obj
 0002:00000378       ??_C@_06GHPCKEAG@__eabi@   1000d378     libvcruntime:undname.obj
 0002:00000380       ??_C@_09IOPIDJLG@__swift_1@ 1000d380     libvcruntime:undname.obj
 0002:0000038c       ??_C@_09KFNFGKHF@__swift_2@ 1000d38c     libvcruntime:undname.obj
 0002:00000398       ??_C@_07JOMMBBKO@__ptr64@  1000d398     libvcruntime:undname.obj
 0002:000003a0       ??_C@_0L@PILCLIHE@__restrict@ 1000d3a0     libvcruntime:undname.obj
 0002:000003ac       ??_C@_0M@GFIIJFMG@__unaligned@ 1000d3ac     libvcruntime:undname.obj
 0002:000003b8       ??_C@_09DHDLOLLB@restrict?$CI@ 1000d3b8     libvcruntime:undname.obj
 0002:000003c2       ??_C@_00CNPNBAHC@@         1000d3c2     libvcruntime:undname.obj
 0002:000003c4       ??_C@_04NIHEBCM@?5new@     1000d3c4     libvcruntime:undname.obj
 0002:000003cc       ??_C@_07FPCDHGMM@?5delete@ 1000d3cc     libvcruntime:undname.obj
 0002:000003d4       ??_C@_01NEMOKFLO@?$DN@     1000d3d4     libvcruntime:undname.obj
 0002:000003d8       ??_C@_02GPIOPFAK@?$DO?$DO@ 1000d3d8     libvcruntime:undname.obj
 0002:000003dc       ??_C@_02FODMEDOG@?$DM?$DM@ 1000d3dc     libvcruntime:undname.obj
 0002:000003e0       ??_C@_01DCLJPIOD@?$CB@     1000d3e0     libvcruntime:undname.obj
 0002:000003e4       ??_C@_02EGOFBIJA@?$DN?$DN@ 1000d3e4     libvcruntime:undname.obj
 0002:000003e8       ??_C@_02FDNJECIE@?$CB?$DN@ 1000d3e8     libvcruntime:undname.obj
 0002:000003ec       ??_C@_02GPECMEKF@?$FL?$FN@ 1000d3ec     libvcruntime:undname.obj
 0002:000003f0       ??_C@_08LHJFAFGD@operator@ 1000d3f0     libvcruntime:undname.obj
 0002:000003fc       ??_C@_02HBOOOICD@?9?$DO@   1000d3fc     libvcruntime:undname.obj
 0002:00000400       ??_C@_01NBENCBCI@?$CK@     1000d400     libvcruntime:undname.obj
 0002:00000404       ??_C@_02ECNGHCIF@?$CL?$CL@ 1000d404     libvcruntime:undname.obj
 0002:00000408       ??_C@_02BAABKJLB@?9?9@     1000d408     libvcruntime:undname.obj
 0002:0000040c       ??_C@_01JOAMLHOP@?9@       1000d40c     libvcruntime:undname.obj
 0002:00000410       ??_C@_01MIFGBAGJ@?$CL@     1000d410     libvcruntime:undname.obj
 0002:00000414       ??_C@_01HNPIGOCE@?$CG@     1000d414     libvcruntime:undname.obj
 0002:00000418       ??_C@_03MNHNFDLC@?9?$DO?$CK@ 1000d418     libvcruntime:undname.obj
 0002:0000041c       ??_C@_01KMDKNFGN@?1@       1000d41c     libvcruntime:undname.obj
 0002:00000420       ??_C@_01FGNFDNOH@?$CF@     1000d420     libvcruntime:undname.obj
 0002:00000424       ??_C@_01MNNFJEPP@?$DM@     1000d424     libvcruntime:undname.obj
 0002:00000428       ??_C@_02EHCHHCKH@?$DM?$DN@ 1000d428     libvcruntime:undname.obj
 0002:0000042c       ??_C@_01PPODPGHN@?$DO@     1000d42c     libvcruntime:undname.obj
 0002:00000430       ??_C@_02EEKDKGMJ@?$DO?$DN@ 1000d430     libvcruntime:undname.obj
 0002:00000434       ??_C@_01IHBHIGKO@?0@       1000d434     libvcruntime:undname.obj
 0002:00000438       ??_C@_02HCKGKOFO@?$CI?$CJ@ 1000d438     libvcruntime:undname.obj
 0002:0000043c       ??_C@_01PJKLJHI@?$HO@      1000d43c     libvcruntime:undname.obj
 0002:00000440       ??_C@_01JKBOJNNK@?$FO@     1000d440     libvcruntime:undname.obj
 0002:00000444       ??_C@_01DNKMNLPK@?$HM@     1000d444     libvcruntime:undname.obj
 0002:00000448       ??_C@_02PPKAJPJL@?$CG?$CG@ 1000d448     libvcruntime:undname.obj
 0002:0000044c       ??_C@_02NONPIBCD@?$HM?$HM@ 1000d44c     libvcruntime:undname.obj
 0002:00000450       ??_C@_02FPIMKNGF@?$CK?$DN@ 1000d450     libvcruntime:undname.obj
 0002:00000454       ??_C@_02FOEOMHFC@?$CL?$DN@ 1000d454     libvcruntime:undname.obj
 0002:00000458       ??_C@_02FKMDLLOA@?9?$DN@   1000d458     libvcruntime:undname.obj
 0002:0000045c       ??_C@_02FJEHGPIO@?1?$DN@   1000d45c     libvcruntime:undname.obj
 0002:00000460       ??_C@_02FENAOKFI@?$CF?$DN@ 1000d460     libvcruntime:undname.obj
 0002:00000464       ??_C@_03IKFCCPFF@?$DO?$DO?$DN@ 1000d464     libvcruntime:undname.obj
 0002:00000468       ??_C@_03CDNPDDLA@?$DM?$DM?$DN@ 1000d468     libvcruntime:undname.obj
 0002:0000046c       ??_C@_02FGJGFEAB@?$CG?$DN@ 1000d46c     libvcruntime:undname.obj
 0002:00000470       ??_C@_02DHLNPPGH@?$HM?$DN@ 1000d470     libvcruntime:undname.obj
 0002:00000474       ??_C@_02MHEGNOJ@?$FO?$DN@  1000d474     libvcruntime:undname.obj
 0002:00000478       ??_C@_09IFPLHPGF@?$GAvftable?8@ 1000d478     libvcruntime:undname.obj
 0002:00000484       ??_C@_09BLBHBJP@?$GAvbtable?8@ 1000d484     libvcruntime:undname.obj
 0002:00000490       ??_C@_07FEEIOKP@?$GAvcall?8@ 1000d490     libvcruntime:undname.obj
 0002:00000498       ??_C@_08LLFFHHDJ@?$GAtypeof?8@ 1000d498     libvcruntime:undname.obj
 0002:000004a4       ??_C@_0BF@KDPPACIK@?$GAlocal?5static?5guard?8@ 1000d4a4     libvcruntime:undname.obj
 0002:000004bc       ??_C@_08OBABFOLI@?$GAstring?8@ 1000d4bc     libvcruntime:undname.obj
 0002:000004c8       ??_C@_0BD@JDLKDPAB@?$GAvbase?5destructor?8@ 1000d4c8     libvcruntime:undname.obj
 0002:000004dc       ??_C@_0BN@DEGPLNFK@?$GAvector?5deleting?5destructor?8@ 1000d4dc     libvcruntime:undname.obj
 0002:000004fc       ??_C@_0BO@OBMKPJIG@?$GAdefault?5constructor?5closure?8@ 1000d4fc     libvcruntime:undname.obj
 0002:0000051c       ??_C@_0BN@IMDCHIKM@?$GAscalar?5deleting?5destructor?8@ 1000d51c     libvcruntime:undname.obj
 0002:0000053c       ??_C@_0BO@PFGOCPJJ@?$GAvector?5constructor?5iterator?8@ 1000d53c     libvcruntime:undname.obj
 0002:0000055c       ??_C@_0BN@LFPFMEDL@?$GAvector?5destructor?5iterator?8@ 1000d55c     libvcruntime:undname.obj
 0002:0000057c       ??_C@_0CE@IKBNEHA@?$GAvector?5vbase?5constructor?5itera@ 1000d57c     libvcruntime:undname.obj
 0002:000005a0       ??_C@_0BL@NILFHHPC@?$GAvirtual?5displacement?5map?8@ 1000d5a0     libvcruntime:undname.obj
 0002:000005bc       ??_C@_0CB@JONCMFFK@?$GAeh?5vector?5constructor?5iterator@ 1000d5bc     libvcruntime:undname.obj
 0002:000005e0       ??_C@_0CA@GCEOPDGL@?$GAeh?5vector?5destructor?5iterator?8@ 1000d5e0     libvcruntime:undname.obj
 0002:00000600       ??_C@_0CH@OOJPLCPH@?$GAeh?5vector?5vbase?5constructor?5it@ 1000d600     libvcruntime:undname.obj
 0002:00000628       ??_C@_0BL@LLKPOHJI@?$GAcopy?5constructor?5closure?8@ 1000d628     libvcruntime:undname.obj
 0002:00000644       ??_C@_0BA@KBCDOMBN@?$GAudt?5returning?8@ 1000d644     libvcruntime:undname.obj
 0002:00000654       ??_C@_03KLGMFNMG@?$GAEH@   1000d654     libvcruntime:undname.obj
 0002:00000658       ??_C@_05KHLCHHI@?$GARTTI@  1000d658     libvcruntime:undname.obj
 0002:00000660       ??_C@_0BA@KKLDJDLB@?$GAlocal?5vftable?8@ 1000d660     libvcruntime:undname.obj
 0002:00000670       ??_C@_0CE@IIHCMGGL@?$GAlocal?5vftable?5constructor?5clos@ 1000d670     libvcruntime:undname.obj
 0002:00000694       ??_C@_06FHBGPFGH@?5new?$FL?$FN@ 1000d694     libvcruntime:undname.obj
 0002:0000069c       ??_C@_09LBNFPBCA@?5delete?$FL?$FN@ 1000d69c     libvcruntime:undname.obj
 0002:000006a8       ??_C@_0P@HJKNJFNN@?$GAomni?5callsig?8@ 1000d6a8     libvcruntime:undname.obj
 0002:000006b8       ??_C@_0BL@CNOONJFP@?$GAplacement?5delete?5closure?8@ 1000d6b8     libvcruntime:undname.obj
 0002:000006d4       ??_C@_0BN@CKNJLHMB@?$GAplacement?5delete?$FL?$FN?5closure?8@ 1000d6d4     libvcruntime:undname.obj
 0002:000006f4       ??_C@_0CG@CFDHKGGD@?$GAmanaged?5vector?5constructor?5ite@ 1000d6f4     libvcruntime:undname.obj
 0002:0000071c       ??_C@_0CF@IMGKMJNO@?$GAmanaged?5vector?5destructor?5iter@ 1000d71c     libvcruntime:undname.obj
 0002:00000744       ??_C@_0CG@HLDDJMAG@?$GAeh?5vector?5copy?5constructor?5ite@ 1000d744     libvcruntime:undname.obj
 0002:0000076c       ??_C@_0CM@FCBBDIGB@?$GAeh?5vector?5vbase?5copy?5construct@ 1000d76c     libvcruntime:undname.obj
 0002:00000798       ??_C@_0BL@CLIPGLGB@?$GAdynamic?5initializer?5for?5?8@ 1000d798     libvcruntime:undname.obj
 0002:000007b4       ??_C@_0CB@PDBIFEP@?$GAdynamic?5atexit?5destructor?5for?5@ 1000d7b4     libvcruntime:undname.obj
 0002:000007d8       ??_C@_0CD@CGAJBKEJ@?$GAvector?5copy?5constructor?5iterat@ 1000d7d8     libvcruntime:undname.obj
 0002:000007fc       ??_C@_0CJ@GJELGAMM@?$GAvector?5vbase?5copy?5constructor?5@ 1000d7fc     libvcruntime:undname.obj
 0002:00000828       ??_C@_0CL@FGIJHLCE@?$GAmanaged?5vector?5copy?5constructo@ 1000d828     libvcruntime:undname.obj
 0002:00000854       ??_C@_0BM@PMGGMLDN@?$GAlocal?5static?5thread?5guard?8@ 1000d854     libvcruntime:undname.obj
 0002:00000870       ??_C@_0N@BDNMDMOL@operator?5?$CC?$CC?5@ 1000d870     libvcruntime:undname.obj
 0002:00000880       ??_C@_0BC@GGEBGALA@operator?5co_await@ 1000d880     libvcruntime:undname.obj
 0002:00000894       ??_C@_0M@GAAIMMOH@operator?$DM?$DN?$DO@ 1000d894     libvcruntime:undname.obj
 0002:000008a0       ??_C@_0BC@DAFEJGAK@?5Type?5Descriptor?8@ 1000d8a0     libvcruntime:undname.obj
 0002:000008b4       ??_C@_0BM@LDKODKLH@?5Base?5Class?5Descriptor?5at?5?$CI@ 1000d8b4     libvcruntime:undname.obj
 0002:000008d0       ??_C@_0BD@LGICGFMM@?5Base?5Class?5Array?8@ 1000d8d0     libvcruntime:undname.obj
 0002:000008e4       ??_C@_0BN@MECKDCOJ@?5Class?5Hierarchy?5Descriptor?8@ 1000d8e4     libvcruntime:undname.obj
 0002:00000904       ??_C@_0BK@CFCOFLF@?5Complete?5Object?5Locator?8@ 1000d904     libvcruntime:undname.obj
 0002:0000092c       ??_C@_1DM@KHCHBNEB@?$AAa?$AAp?$AAi?$AA?9?$AAm?$AAs?$AA?9?$AAw?$AAi?$AAn?$AA?9?$AAc?$AAo?$AAr?$AAe@ 1000d92c     libvcruntime:winapi_downlevel.obj
 0002:00000968       ??_C@_1DK@LPPGFMPP@?$AAa?$AAp?$AAi?$AA?9?$AAm?$AAs?$AA?9?$AAw?$AAi?$AAn?$AA?9?$AAc?$AAo?$AAr?$AAe@ 1000d968     libvcruntime:winapi_downlevel.obj
 0002:000009a4       ??_C@_1BC@GDMECMAK@?$AAk?$AAe?$AAr?$AAn?$AAe?$AAl?$AA3?$AA2@ 1000d9a4     libvcruntime:winapi_downlevel.obj
 0002:000009b8       ??_C@_1BA@PFFKHIOG@?$AAa?$AAp?$AAi?$AA?9?$AAm?$AAs?$AA?9@ 1000d9b8     libvcruntime:winapi_downlevel.obj
 0002:000009d0       ??_C@_08KNHFBNJ@FlsAlloc@  1000d9d0     libvcruntime:winapi_downlevel.obj
 0002:000009e4       ??_C@_07PEJMOBNF@FlsFree@  1000d9e4     libvcruntime:winapi_downlevel.obj
 0002:000009f4       ??_C@_0M@GDNOONDI@FlsGetValue@ 1000d9f4     libvcruntime:winapi_downlevel.obj
 0002:00000a08       ??_C@_0M@JCPCPOEF@FlsSetValue@ 1000da08     libvcruntime:winapi_downlevel.obj
 0002:00000a1c       ??_C@_0BM@HCFOFFN@InitializeCriticalSectionEx@ 1000da1c     libvcruntime:winapi_downlevel.obj
 0002:00000a38       __pDestructExceptionObject 1000da38     libvcruntime:ehhelpers.obj
 0002:00000a40       ___acrt_exception_action_table 1000da40     libucrt:exception_filter.obj
 0002:00000ad0       ___acrt_signal_action_table_count 1000dad0     libucrt:exception_filter.obj
 0002:00000ad4       ___acrt_signal_action_first_fpe_index 1000dad4     libucrt:exception_filter.obj
 0002:00000ad8       ___acrt_signal_action_fpe_count 1000dad8     libucrt:exception_filter.obj
 0002:00000adc       ??_C@_1BI@BGOHAHKC@?$AAm?$AAs?$AAc?$AAo?$AAr?$AAe?$AAe?$AA?4?$AAd?$AAl?$AAl?$AA?$AA@ 1000dadc     libucrt:exit.obj
 0002:00000af4       ??_C@_0P@MIGLKIOC@CorExitProcess?$AA@ 1000daf4     libucrt:exit.obj
 0002:00000cf0       ___lc_time_c               1000dcf0     libucrt:nlsdata.obj
 0002:00000e54       ??_C@_03KOEHGMDN@Sun?$AA@  1000de54     libucrt:nlsdata.obj
 0002:00000e58       ??_C@_03PDAGKDH@Mon?$AA@   1000de58     libucrt:nlsdata.obj
 0002:00000e5c       ??_C@_03NAGEINEP@Tue?$AA@  1000de5c     libucrt:nlsdata.obj
 0002:00000e60       ??_C@_03MHOMLAJA@Wed?$AA@  1000de60     libucrt:nlsdata.obj
 0002:00000e64       ??_C@_03IOFIKPDN@Thu?$AA@  1000de64     libucrt:nlsdata.obj
 0002:00000e68       ??_C@_03IDIOELNC@Fri?$AA@  1000de68     libucrt:nlsdata.obj
 0002:00000e6c       ??_C@_03FEFJNEK@Sat?$AA@   1000de6c     libucrt:nlsdata.obj
 0002:00000e70       ??_C@_06OOPIFAJ@Sunday?$AA@ 1000de70     libucrt:nlsdata.obj
 0002:00000e78       ??_C@_06JLEDEDGH@Monday?$AA@ 1000de78     libucrt:nlsdata.obj
 0002:00000e80       ??_C@_07BAAGCFCM@Tuesday?$AA@ 1000de80     libucrt:nlsdata.obj
 0002:00000e88       ??_C@_09DLIGFAKA@Wednesday?$AA@ 1000de88     libucrt:nlsdata.obj
 0002:00000e94       ??_C@_08HACCIKIA@Thursday?$AA@ 1000de94     libucrt:nlsdata.obj
 0002:00000ea0       ??_C@_06JECMNKMI@Friday?$AA@ 1000dea0     libucrt:nlsdata.obj
 0002:00000ea8       ??_C@_08INBOOONO@Saturday?$AA@ 1000dea8     libucrt:nlsdata.obj
 0002:00000eb4       ??_C@_03JIHJHPIE@Jan?$AA@  1000deb4     libucrt:nlsdata.obj
 0002:00000eb8       ??_C@_03HJBDCHOM@Feb?$AA@  1000deb8     libucrt:nlsdata.obj
 0002:00000ebc       ??_C@_03ODNJBKGA@Mar?$AA@  1000debc     libucrt:nlsdata.obj
 0002:00000ec0       ??_C@_03LEOLGMJP@Apr?$AA@  1000dec0     libucrt:nlsdata.obj
 0002:00000ec4       ??_C@_03CNMDKL@May?$AA@    1000dec4     libucrt:nlsdata.obj
 0002:00000ec8       ??_C@_03IDFGHECI@Jun?$AA@  1000dec8     libucrt:nlsdata.obj
 0002:00000ecc       ??_C@_03LBGABGKK@Jul?$AA@  1000decc     libucrt:nlsdata.obj
 0002:00000ed0       ??_C@_03IFJFEIGA@Aug?$AA@  1000ded0     libucrt:nlsdata.obj
 0002:00000ed4       ??_C@_03GGCAPAJC@Sep?$AA@  1000ded4     libucrt:nlsdata.obj
 0002:00000ed8       ??_C@_03BMAOKBAD@Oct?$AA@  1000ded8     libucrt:nlsdata.obj
 0002:00000edc       ??_C@_03JPJOFNIA@Nov?$AA@  1000dedc     libucrt:nlsdata.obj
 0002:00000ee0       ??_C@_03MKABNOCG@Dec?$AA@  1000dee0     libucrt:nlsdata.obj
 0002:00000ee4       ??_C@_07CGJPFGJA@January?$AA@ 1000dee4     libucrt:nlsdata.obj
 0002:00000eec       ??_C@_08GNJGEPFN@February?$AA@ 1000deec     libucrt:nlsdata.obj
 0002:00000ef8       ??_C@_05HPCKOFNC@March?$AA@ 1000def8     libucrt:nlsdata.obj
 0002:00000f00       ??_C@_05DMJDNLEJ@April?$AA@ 1000df00     libucrt:nlsdata.obj
 0002:00000f08       ??_C@_04CNLMGBGM@June?$AA@ 1000df08     libucrt:nlsdata.obj
 0002:00000f10       ??_C@_04MIEPOIFP@July?$AA@ 1000df10     libucrt:nlsdata.obj
 0002:00000f18       ??_C@_06LBBHFDDG@August?$AA@ 1000df18     libucrt:nlsdata.obj
 0002:00000f20       ??_C@_09BHHEALKD@September?$AA@ 1000df20     libucrt:nlsdata.obj
 0002:00000f2c       ??_C@_07JJNFCEND@October?$AA@ 1000df2c     libucrt:nlsdata.obj
 0002:00000f34       ??_C@_08HCHEGEOA@November?$AA@ 1000df34     libucrt:nlsdata.obj
 0002:00000f40       ??_C@_08EDHMEBNP@December?$AA@ 1000df40     libucrt:nlsdata.obj
 0002:00000f4c       ??_C@_02DEDBPAFC@AM?$AA@   1000df4c     libucrt:nlsdata.obj
 0002:00000f50       ??_C@_02CJNFDJBF@PM?$AA@   1000df50     libucrt:nlsdata.obj
 0002:00000f54       ??_C@_08BPBNCDIB@MM?1dd?1yy?$AA@ 1000df54     libucrt:nlsdata.obj
 0002:00000f60       ??_C@_0BE@CKGJFCPC@dddd?0?5MMMM?5dd?0?5yyyy?$AA@ 1000df60     libucrt:nlsdata.obj
 0002:00000f74       ??_C@_08JCCMCCIL@HH?3mm?3ss?$AA@ 1000df74     libucrt:nlsdata.obj
 0002:00000f80       ??_C@_17MBGCMIPB@?$AAS?$AAu?$AAn?$AA?$AA@ 1000df80     libucrt:nlsdata.obj
 0002:00000f88       ??_C@_17KBOMKBF@?$AAM?$AAo?$AAn?$AA?$AA@ 1000df88     libucrt:nlsdata.obj
 0002:00000f90       ??_C@_17BMKGEGOJ@?$AAT?$AAu?$AAe?$AA?$AA@ 1000df90     libucrt:nlsdata.obj
 0002:00000f98       ??_C@_17CJEDCEPE@?$AAW?$AAe?$AAd?$AA?$AA@ 1000df98     libucrt:nlsdata.obj
 0002:00000fa0       ??_C@_17PDPHAADD@?$AAT?$AAh?$AAu?$AA?$AA@ 1000dfa0     libucrt:nlsdata.obj
 0002:00000fa8       ??_C@_17HFOLPPLP@?$AAF?$AAr?$AAi?$AA?$AA@ 1000dfa8     libucrt:nlsdata.obj
 0002:00000fb0       ??_C@_17GGIBDPIH@?$AAS?$AAa?$AAt?$AA?$AA@ 1000dfb0     libucrt:nlsdata.obj
 0002:00000fb8       ??_C@_1O@IHNHDHPB@?$AAS?$AAu?$AAn?$AAd?$AAa?$AAy?$AA?$AA@ 1000dfb8     libucrt:nlsdata.obj
 0002:00000fc8       ??_C@_1O@MMNBFLIA@?$AAM?$AAo?$AAn?$AAd?$AAa?$AAy?$AA?$AA@ 1000dfc8     libucrt:nlsdata.obj
 0002:00000fd8       ??_C@_1BA@ENFBFFEK@?$AAT?$AAu?$AAe?$AAs?$AAd?$AAa?$AAy?$AA?$AA@ 1000dfd8     libucrt:nlsdata.obj
 0002:00000fe8       ??_C@_1BE@EBOGMDOH@?$AAW?$AAe?$AAd?$AAn?$AAe?$AAs?$AAd?$AAa?$AAy?$AA?$AA@ 1000dfe8     libucrt:nlsdata.obj
 0002:00000ffc       ??_C@_1BC@HHMNLIHE@?$AAT?$AAh?$AAu?$AAr?$AAs?$AAd?$AAa?$AAy?$AA?$AA@ 1000dffc     libucrt:nlsdata.obj
 0002:00001010       ??_C@_1O@PDICJHAG@?$AAF?$AAr?$AAi?$AAd?$AAa?$AAy?$AA?$AA@ 1000e010     libucrt:nlsdata.obj
 0002:00001020       ??_C@_1BC@ENMNNPAJ@?$AAS?$AAa?$AAt?$AAu?$AAr?$AAd?$AAa?$AAy?$AA?$AA@ 1000e020     libucrt:nlsdata.obj
 0002:00001034       ??_C@_17DKNBKCHM@?$AAJ?$AAa?$AAn?$AA?$AA@ 1000e034     libucrt:nlsdata.obj
 0002:0000103c       ??_C@_17LMDJEKJN@?$AAF?$AAe?$AAb?$AA?$AA@ 1000e03c     libucrt:nlsdata.obj
 0002:00001044       ??_C@_17CKNLEDEC@?$AAM?$AAa?$AAr?$AA?$AA@ 1000e044     libucrt:nlsdata.obj
 0002:0000104c       ??_C@_17LFPOIHDD@?$AAA?$AAp?$AAr?$AA?$AA@ 1000e04c     libucrt:nlsdata.obj
 0002:00001054       ??_C@_17PNNKMEED@?$AAM?$AAa?$AAy?$AA?$AA@ 1000e054     libucrt:nlsdata.obj
 0002:0000105c       ??_C@_17KCJGOCPB@?$AAJ?$AAu?$AAn?$AA?$AA@ 1000e05c     libucrt:nlsdata.obj
 0002:00001064       ??_C@_17IJPCKHK@?$AAJ?$AAu?$AAl?$AA?$AA@ 1000e064     libucrt:nlsdata.obj
 0002:0000106c       ??_C@_17ICPELBCN@?$AAA?$AAu?$AAg?$AA?$AA@ 1000e06c     libucrt:nlsdata.obj
 0002:00001074       ??_C@_17HCHCOKMG@?$AAS?$AAe?$AAp?$AA?$AA@ 1000e074     libucrt:nlsdata.obj
 0002:0000107c       ??_C@_17FNLKOI@?$AAO?$AAc?$AAt?$AA?$AA@ 1000e07c     libucrt:nlsdata.obj
 0002:00001084       ??_C@_17BBDMLCIG@?$AAN?$AAo?$AAv?$AA?$AA@ 1000e084     libucrt:nlsdata.obj
 0002:0000108c       ??_C@_17EGKACKIF@?$AAD?$AAe?$AAc?$AA?$AA@ 1000e08c     libucrt:nlsdata.obj
 0002:00001094       ??_C@_1BA@EFMEIEBA@?$AAJ?$AAa?$AAn?$AAu?$AAa?$AAr?$AAy?$AA?$AA@ 1000e094     libucrt:nlsdata.obj
 0002:000010a4       ??_C@_1BC@JGDDFFAM@?$AAF?$AAe?$AAb?$AAr?$AAu?$AAa?$AAr?$AAy?$AA?$AA@ 1000e0a4     libucrt:nlsdata.obj
 0002:000010b8       ??_C@_1M@IKEENEDF@?$AAM?$AAa?$AAr?$AAc?$AAh?$AA?$AA@ 1000e0b8     libucrt:nlsdata.obj
 0002:000010c4       ??_C@_1M@GJNLMHFD@?$AAA?$AAp?$AAr?$AAi?$AAl?$AA?$AA@ 1000e0c4     libucrt:nlsdata.obj
 0002:000010d0       ??_C@_19EPFLPGAP@?$AAJ?$AAu?$AAn?$AAe?$AA?$AA@ 1000e0d0     libucrt:nlsdata.obj
 0002:000010dc       ??_C@_19BIFMLPCD@?$AAJ?$AAu?$AAl?$AAy?$AA?$AA@ 1000e0dc     libucrt:nlsdata.obj
 0002:000010e8       ??_C@_1O@PAHLKOAC@?$AAA?$AAu?$AAg?$AAu?$AAs?$AAt?$AA?$AA@ 1000e0e8     libucrt:nlsdata.obj
 0002:000010f8       ??_C@_1BE@DKAAMBJL@?$AAS?$AAe?$AAp?$AAt?$AAe?$AAm?$AAb?$AAe?$AAr?$AA?$AA@ 1000e0f8     libucrt:nlsdata.obj
 0002:0000110c       ??_C@_1BA@EPANDLNG@?$AAO?$AAc?$AAt?$AAo?$AAb?$AAe?$AAr?$AA?$AA@ 1000e10c     libucrt:nlsdata.obj
 0002:0000111c       ??_C@_1BC@BGLIFPF@?$AAN?$AAo?$AAv?$AAe?$AAm?$AAb?$AAe?$AAr?$AA?$AA@ 1000e11c     libucrt:nlsdata.obj
 0002:00001130       ??_C@_1BC@FEMKIFH@?$AAD?$AAe?$AAc?$AAe?$AAm?$AAb?$AAe?$AAr?$AA?$AA@ 1000e130     libucrt:nlsdata.obj
 0002:00001144       ??_C@_15ODEHAHHF@?$AAA?$AAM?$AA?$AA@ 1000e144     libucrt:nlsdata.obj
 0002:0000114c       ??_C@_15CLMNNGEL@?$AAP?$AAM?$AA?$AA@ 1000e14c     libucrt:nlsdata.obj
 0002:00001154       ??_C@_1BC@IEBCMHCM@?$AAM?$AAM?$AA?1?$AAd?$AAd?$AA?1?$AAy?$AAy?$AA?$AA@ 1000e154     libucrt:nlsdata.obj
 0002:00001168       ??_C@_1CI@KNAKOEBC@?$AAd?$AAd?$AAd?$AAd?$AA?0?$AA?5?$AAM?$AAM?$AAM?$AAM?$AA?5?$AAd?$AAd?$AA?0?$AA?5?$AAy?$AAy?$AAy?$AAy?$AA?$AA@ 1000e168     libucrt:nlsdata.obj
 0002:00001190       ??_C@_1BC@GDGBMEMK@?$AAH?$AAH?$AA?3?$AAm?$AAm?$AA?3?$AAs?$AAs?$AA?$AA@ 1000e190     libucrt:nlsdata.obj
 0002:000011a4       ??_C@_1M@BMHNFIME@?$AAe?$AAn?$AA?9?$AAU?$AAS?$AA?$AA@ 1000e1a4     libucrt:nlsdata.obj
 0002:000011c0       ??_C@_1M@HPNHIDJI@?$AAj?$AAa?$AA?9?$AAJ?$AAP?$AA?$AA@ 1000e1c0     libucrt:mbctype.obj
 0002:000011cc       ??_C@_1M@BIBDDEMK@?$AAz?$AAh?$AA?9?$AAC?$AAN?$AA?$AA@ 1000e1cc     libucrt:mbctype.obj
 0002:000011d8       ??_C@_1M@JLOOOEGK@?$AAk?$AAo?$AA?9?$AAK?$AAR?$AA?$AA@ 1000e1d8     libucrt:mbctype.obj
 0002:000011e4       ??_C@_1M@CLNBBOPM@?$AAz?$AAh?$AA?9?$AAT?$AAW?$AA?$AA@ 1000e1e4     libucrt:mbctype.obj
 0002:00001240       ??_C@_1EA@JGEFHKEI@?$AAa?$AAp?$AAi?$AA?9?$AAm?$AAs?$AA?9?$AAw?$AAi?$AAn?$AA?9?$AAc?$AAo?$AAr?$AAe?$AA?9?$AAd?$AAa?$AAt?$AAe?$AAt?$AAi?$AAm?$AAe?$AA?9?$AAl?$AA1?$AA?9?$AA1?$AA?9?$AA1?$AA?$AA@ 1000e240     libucrt:winapi_thunks.obj
 0002:00001280       ??_C@_1DM@KHCHBNEB@?$AAa?$AAp?$AAi?$AA?9?$AAm?$AAs?$AA?9?$AAw?$AAi?$AAn?$AA?9?$AAc?$AAo?$AAr?$AAe?$AA?9?$AAf?$AAi?$AAb?$AAe?$AAr?$AAs?$AA?9?$AAl?$AA1?$AA?9?$AA1?$AA?9?$AA1?$AA?$AA@ 1000e280     libucrt:winapi_thunks.obj
 0002:000012bc       ??_C@_1DI@IJCEHOCB@?$AAa?$AAp?$AAi?$AA?9?$AAm?$AAs?$AA?9?$AAw?$AAi?$AAn?$AA?9?$AAc?$AAo?$AAr?$AAe?$AA?9?$AAf?$AAi?$AAl?$AAe?$AA?9?$AAl?$AA1?$AA?9?$AA2?$AA?9?$AA2?$AA?$AA@ 1000e2bc     libucrt:winapi_thunks.obj
 0002:000012f8       ??_C@_1EI@MPIAOHOC@?$AAa?$AAp?$AAi?$AA?9?$AAm?$AAs?$AA?9?$AAw?$AAi?$AAn?$AA?9?$AAc?$AAo?$AAr?$AAe?$AA?9?$AAl?$AAo?$AAc?$AAa?$AAl?$AAi?$AAz?$AAa?$AAt?$AAi?$AAo?$AAn?$AA?9?$AAl?$AA1?$AA?9@ 1000e2f8     libucrt:winapi_thunks.obj
 0002:00001340       ??_C@_1FK@FPHCKFIE@?$AAa?$AAp?$AAi?$AA?9?$AAm?$AAs?$AA?9?$AAw?$AAi?$AAn?$AA?9?$AAc?$AAo?$AAr?$AAe?$AA?9?$AAl?$AAo?$AAc?$AAa?$AAl?$AAi?$AAz?$AAa?$AAt?$AAi?$AAo?$AAn?$AA?9?$AAo?$AAb?$AAs@ 1000e340     libucrt:winapi_thunks.obj
 0002:000013a0       ??_C@_1EM@DILCGIIO@?$AAa?$AAp?$AAi?$AA?9?$AAm?$AAs?$AA?9?$AAw?$AAi?$AAn?$AA?9?$AAc?$AAo?$AAr?$AAe?$AA?9?$AAp?$AAr?$AAo?$AAc?$AAe?$AAs?$AAs?$AAt?$AAh?$AAr?$AAe?$AAa?$AAd?$AAs?$AA?9?$AAl@ 1000e3a0     libucrt:winapi_thunks.obj
 0002:000013ec       ??_C@_1DM@LNCGDDPN@?$AAa?$AAp?$AAi?$AA?9?$AAm?$AAs?$AA?9?$AAw?$AAi?$AAn?$AA?9?$AAc?$AAo?$AAr?$AAe?$AA?9?$AAs?$AAt?$AAr?$AAi?$AAn?$AAg?$AA?9?$AAl?$AA1?$AA?9?$AA1?$AA?9?$AA0?$AA?$AA@ 1000e3ec     libucrt:winapi_thunks.obj
 0002:00001428       ??_C@_1DK@LPPGFMPP@?$AAa?$AAp?$AAi?$AA?9?$AAm?$AAs?$AA?9?$AAw?$AAi?$AAn?$AA?9?$AAc?$AAo?$AAr?$AAe?$AA?9?$AAs?$AAy?$AAn?$AAc?$AAh?$AA?9?$AAl?$AA1?$AA?9?$AA2?$AA?9?$AA0?$AA?$AA@ 1000e428     libucrt:winapi_thunks.obj
 0002:00001464       ??_C@_1DO@FPAPJEMD@?$AAa?$AAp?$AAi?$AA?9?$AAm?$AAs?$AA?9?$AAw?$AAi?$AAn?$AA?9?$AAc?$AAo?$AAr?$AAe?$AA?9?$AAs?$AAy?$AAs?$AAi?$AAn?$AAf?$AAo?$AA?9?$AAl?$AA1?$AA?9?$AA2?$AA?9?$AA1?$AA?$AA@ 1000e464     libucrt:winapi_thunks.obj
 0002:000014a4       ??_C@_1DK@NDHNAHIO@?$AAa?$AAp?$AAi?$AA?9?$AAm?$AAs?$AA?9?$AAw?$AAi?$AAn?$AA?9?$AAc?$AAo?$AAr?$AAe?$AA?9?$AAw?$AAi?$AAn?$AAr?$AAt?$AA?9?$AAl?$AA1?$AA?9?$AA1?$AA?9?$AA0?$AA?$AA@ 1000e4a4     libucrt:winapi_thunks.obj
 0002:000014e0       ??_C@_1DM@KGHDGBCM@?$AAa?$AAp?$AAi?$AA?9?$AAm?$AAs?$AA?9?$AAw?$AAi?$AAn?$AA?9?$AAc?$AAo?$AAr?$AAe?$AA?9?$AAx?$AAs?$AAt?$AAa?$AAt?$AAe?$AA?9?$AAl?$AA2?$AA?9?$AA1?$AA?9?$AA0?$AA?$AA@ 1000e4e0     libucrt:winapi_thunks.obj
 0002:00001520       ??_C@_1EO@IJIOEFOH@?$AAa?$AAp?$AAi?$AA?9?$AAm?$AAs?$AA?9?$AAw?$AAi?$AAn?$AA?9?$AAr?$AAt?$AAc?$AAo?$AAr?$AAe?$AA?9?$AAn?$AAt?$AAu?$AAs?$AAe?$AAr?$AA?9?$AAw?$AAi?$AAn?$AAd?$AAo?$AAw?$AA?9@ 1000e520     libucrt:winapi_thunks.obj
 0002:00001570       ??_C@_1FG@HHGEKANL@?$AAa?$AAp?$AAi?$AA?9?$AAm?$AAs?$AA?9?$AAw?$AAi?$AAn?$AA?9?$AAs?$AAe?$AAc?$AAu?$AAr?$AAi?$AAt?$AAy?$AA?9?$AAs?$AAy?$AAs?$AAt?$AAe?$AAm?$AAf?$AAu?$AAn?$AAc?$AAt?$AAi@ 1000e570     libucrt:winapi_thunks.obj
 0002:000015c8       ??_C@_1EG@DBIOJECG@?$AAe?$AAx?$AAt?$AA?9?$AAm?$AAs?$AA?9?$AAw?$AAi?$AAn?$AA?9?$AAn?$AAt?$AAu?$AAs?$AAe?$AAr?$AA?9?$AAd?$AAi?$AAa?$AAl?$AAo?$AAg?$AAb?$AAo?$AAx?$AA?9?$AAl?$AA1?$AA?9?$AA1@ 1000e5c8     libucrt:winapi_thunks.obj
 0002:00001610       ??_C@_1EO@FIHMJCLF@?$AAe?$AAx?$AAt?$AA?9?$AAm?$AAs?$AA?9?$AAw?$AAi?$AAn?$AA?9?$AAn?$AAt?$AAu?$AAs?$AAe?$AAr?$AA?9?$AAw?$AAi?$AAn?$AAd?$AAo?$AAw?$AAs?$AAt?$AAa?$AAt?$AAi?$AAo?$AAn?$AA?9@ 1000e610     libucrt:winapi_thunks.obj
 0002:00001660       ??_C@_1BC@DNHGCMLG@?$AAa?$AAd?$AAv?$AAa?$AAp?$AAi?$AA3?$AA2?$AA?$AA@ 1000e660     libucrt:winapi_thunks.obj
 0002:00001674       ??_C@_1BC@GDMECMAK@?$AAk?$AAe?$AAr?$AAn?$AAe?$AAl?$AA3?$AA2?$AA?$AA@ 1000e674     libucrt:winapi_thunks.obj
 0002:00001688       ??_C@_1M@OAIMIKLP@?$AAn?$AAt?$AAd?$AAl?$AAl?$AA?$AA@ 1000e688     libucrt:winapi_thunks.obj
 0002:00001698       ??_C@_1EG@DPGNFKGC@?$AAa?$AAp?$AAi?$AA?9?$AAm?$AAs?$AA?9?$AAw?$AAi?$AAn?$AA?9?$AAa?$AAp?$AAp?$AAm?$AAo?$AAd?$AAe?$AAl?$AA?9?$AAr?$AAu?$AAn?$AAt?$AAi?$AAm?$AAe?$AA?9?$AAl?$AA1?$AA?9?$AA1@ 1000e698     libucrt:winapi_thunks.obj
 0002:000016e0       ??_C@_1O@BCCLBEOE@?$AAu?$AAs?$AAe?$AAr?$AA3?$AA2?$AA?$AA@ 1000e6e0     libucrt:winapi_thunks.obj
 0002:000016f0       ??_C@_1BA@PFFKHIOG@?$AAa?$AAp?$AAi?$AA?9?$AAm?$AAs?$AA?9?$AA?$AA@ 1000e6f0     libucrt:winapi_thunks.obj
 0002:00001700       ??_C@_1BA@IAIFMGEF@?$AAe?$AAx?$AAt?$AA?9?$AAm?$AAs?$AA?9?$AA?$AA@ 1000e700     libucrt:winapi_thunks.obj
 0002:00001714       ??_C@_0BA@FHFNEAED@AreFileApisANSI?$AA@ 1000e714     libucrt:winapi_thunks.obj
 0002:0000172c       ??_C@_08KNHFBNJ@FlsAlloc?$AA@ 1000e72c     libucrt:winapi_thunks.obj
 0002:00001740       ??_C@_07PEJMOBNF@FlsFree?$AA@ 1000e740     libucrt:winapi_thunks.obj
 0002:00001750       ??_C@_0M@GDNOONDI@FlsGetValue?$AA@ 1000e750     libucrt:winapi_thunks.obj
 0002:00001764       ??_C@_0M@JCPCPOEF@FlsSetValue?$AA@ 1000e764     libucrt:winapi_thunks.obj
 0002:00001778       ??_C@_0BM@HCFOFFN@InitializeCriticalSectionEx?$AA@ 1000e778     libucrt:winapi_thunks.obj
 0002:0000179c       ??_C@_0O@KKBNKAPF@LCMapStringEx?$AA@ 1000e79c     libucrt:winapi_thunks.obj
 0002:000017b4       ??_C@_0BB@HBDEELFH@LocaleNameToLCID?$AA@ 1000e7b4     libucrt:winapi_thunks.obj
 0002:000017cc       ??_C@_0CF@OJOFEIGO@AppPolicyGetProcessTerminationMe@ 1000e7cc     libucrt:winapi_thunks.obj
 0002:000017f8       ___newctype                1000e7f8     libucrt:ctype.obj
 0002:00001af8       ___newclmap                1000eaf8     libucrt:ctype.obj
 0002:00001c78       ___newcumap                1000ec78     libucrt:ctype.obj
 0002:00001df8       ??_C@_15PJPFLCCM@?$AAu?$AAk?$AA?$AA@ 1000edf8     libucrt:get_qualified_locale.obj
 0002:00002520       ??_C@_15EMKDOKLE@?$AAa?$AAr?$AA?$AA@ 1000f520     libucrt:lcidtoname_downlevel.obj
 0002:00002528       ??_C@_15KNPADPLH@?$AAb?$AAg?$AA?$AA@ 1000f528     libucrt:lcidtoname_downlevel.obj
 0002:00002530       ??_C@_15EDMHLDMO@?$AAc?$AAa?$AA?$AA@ 1000f530     libucrt:lcidtoname_downlevel.obj
 0002:00002538       ??_C@_1O@BPEAJADD@?$AAz?$AAh?$AA?9?$AAC?$AAH?$AAS?$AA?$AA@ 1000f538     libucrt:lcidtoname_downlevel.obj
 0002:00002548       ??_C@_15LJNHCMNK@?$AAc?$AAs?$AA?$AA@ 1000f548     libucrt:lcidtoname_downlevel.obj
 0002:00002550       ??_C@_15FOMCIDHG@?$AAd?$AAa?$AA?$AA@ 1000f550     libucrt:lcidtoname_downlevel.obj
 0002:00002558       ??_C@_15NBKABECB@?$AAd?$AAe?$AA?$AA@ 1000f558     libucrt:lcidtoname_downlevel.obj
 0002:00002560       ??_C@_15GHPEIIAO@?$AAe?$AAl?$AA?$AA@ 1000f560     libucrt:lcidtoname_downlevel.obj
 0002:00002568       ??_C@_15MNPNEAIF@?$AAe?$AAn?$AA?$AA@ 1000f568     libucrt:lcidtoname_downlevel.obj
 0002:00002570       ??_C@_15GPIOMPMH@?$AAe?$AAs?$AA?$AA@ 1000f570     libucrt:lcidtoname_downlevel.obj
 0002:00002578       ??_C@_15NGLOAKJC@?$AAf?$AAi?$AA?$AA@ 1000f578     libucrt:lcidtoname_downlevel.obj
 0002:00002580       ??_C@_15FBKGNKAM@?$AAf?$AAr?$AA?$AA@ 1000f580     libucrt:lcidtoname_downlevel.obj
 0002:00002588       ??_C@_15KGGCNEFK@?$AAh?$AAe?$AA?$AA@ 1000f588     libucrt:lcidtoname_downlevel.obj
 0002:00002590       ??_C@_15PGHLIDMF@?$AAh?$AAu?$AA?$AA@ 1000f590     libucrt:lcidtoname_downlevel.obj
 0002:00002598       ??_C@_15BIEMAPLM@?$AAi?$AAs?$AA?$AA@ 1000f598     libucrt:lcidtoname_downlevel.obj
 0002:000025a0       ??_C@_15IFJLDHAF@?$AAi?$AAt?$AA?$AA@ 1000f5a0     libucrt:lcidtoname_downlevel.obj
 0002:000025a8       ??_C@_15GEMIOCAG@?$AAj?$AAa?$AA?$AA@ 1000f5a8     libucrt:lcidtoname_downlevel.obj
 0002:000025b0       ??_C@_15EPELEGJA@?$AAk?$AAo?$AA?$AA@ 1000f5b0     libucrt:lcidtoname_downlevel.obj
 0002:000025b8       ??_C@_15NDDHIMN@?$AAn?$AAl?$AA?$AA@ 1000f5b8     libucrt:lcidtoname_downlevel.obj
 0002:000025c0       ??_C@_15BPIGNHCD@?$AAn?$AAo?$AA?$AA@ 1000f5c0     libucrt:lcidtoname_downlevel.obj
 0002:000025c8       ??_C@_15DEOPBLCG@?$AAp?$AAl?$AA?$AA@ 1000f5c8     libucrt:lcidtoname_downlevel.obj
 0002:000025d0       ??_C@_15KBECGEFG@?$AAp?$AAt?$AA?$AA@ 1000f5d0     libucrt:lcidtoname_downlevel.obj
 0002:000025d8       ??_C@_15GLJCBFMD@?$AAr?$AAo?$AA?$AA@ 1000f5d8     libucrt:lcidtoname_downlevel.obj
 0002:000025e0       ??_C@_15FEDGKCDI@?$AAr?$AAu?$AA?$AA@ 1000f5e0     libucrt:lcidtoname_downlevel.obj
 0002:000025e8       ??_C@_15GLKMLLHM@?$AAh?$AAr?$AA?$AA@ 1000f5e8     libucrt:lcidtoname_downlevel.obj
 0002:000025f0       ??_C@_15CPKMFBDB@?$AAs?$AAk?$AA?$AA@ 1000f5f0     libucrt:lcidtoname_downlevel.obj
 0002:000025f8       ??_C@_15BAAIOGMK@?$AAs?$AAq?$AA?$AA@ 1000f5f8     libucrt:lcidtoname_downlevel.obj
 0002:00002600       ??_C@_15INNPNOHD@?$AAs?$AAv?$AA?$AA@ 1000f600     libucrt:lcidtoname_downlevel.obj
 0002:00002608       ??_C@_15CABMMOGH@?$AAt?$AAh?$AA?$AA@ 1000f608     libucrt:lcidtoname_downlevel.obj
 0002:00002610       ??_C@_15BPLIHJJM@?$AAt?$AAr?$AA?$AA@ 1000f610     libucrt:lcidtoname_downlevel.obj
 0002:00002618       ??_C@_15NEOEKKDJ@?$AAu?$AAr?$AA?$AA@ 1000f618     libucrt:lcidtoname_downlevel.obj
 0002:00002620       ??_C@_15NFICGAJK@?$AAi?$AAd?$AA?$AA@ 1000f620     libucrt:lcidtoname_downlevel.obj
 0002:00002628       ??_C@_15HPJPHDM@?$AAb?$AAe?$AA?$AA@ 1000f628     libucrt:lcidtoname_downlevel.obj
 0002:00002630       ??_C@_15LCHLGJII@?$AAs?$AAl?$AA?$AA@ 1000f630     libucrt:lcidtoname_downlevel.obj
 0002:00002638       ??_C@_15PCFJPHHO@?$AAe?$AAt?$AA?$AA@ 1000f638     libucrt:lcidtoname_downlevel.obj
 0002:00002640       ??_C@_15HPFPGODN@?$AAl?$AAv?$AA?$AA@ 1000f640     libucrt:lcidtoname_downlevel.obj
 0002:00002648       ??_C@_15NFFGKGLG@?$AAl?$AAt?$AA?$AA@ 1000f648     libucrt:lcidtoname_downlevel.obj
 0002:00002650       ??_C@_15BDAKCCHN@?$AAf?$AAa?$AA?$AA@ 1000f650     libucrt:lcidtoname_downlevel.obj
 0002:00002658       ??_C@_15NFGIAIAJ@?$AAv?$AAi?$AA?$AA@ 1000f658     libucrt:lcidtoname_downlevel.obj
 0002:00002660       ??_C@_15LMKNDMHN@?$AAh?$AAy?$AA?$AA@ 1000f660     libucrt:lcidtoname_downlevel.obj
 0002:00002668       ??_C@_15IJBHMCFL@?$AAa?$AAz?$AA?$AA@ 1000f668     libucrt:lcidtoname_downlevel.obj
 0002:00002670       ??_C@_15EKOFJABL@?$AAe?$AAu?$AA?$AA@ 1000f670     libucrt:lcidtoname_downlevel.obj
 0002:00002678       ??_C@_15BGHADCNK@?$AAm?$AAk?$AA?$AA@ 1000f678     libucrt:lcidtoname_downlevel.obj
 0002:00002680       ??_C@_15JDNICKHM@?$AAa?$AAf?$AA?$AA@ 1000f680     libucrt:lcidtoname_downlevel.obj
 0002:00002688       ??_C@_15KPJEDBKD@?$AAk?$AAa?$AA?$AA@ 1000f688     libucrt:lcidtoname_downlevel.obj
 0002:00002690       ??_C@_15PDNFFFEO@?$AAf?$AAo?$AA?$AA@ 1000f690     libucrt:lcidtoname_downlevel.obj
 0002:00002698       ??_C@_15OMLEGLOC@?$AAh?$AAi?$AA?$AA@ 1000f698     libucrt:lcidtoname_downlevel.obj
 0002:000026a0       ??_C@_15IDNNENKK@?$AAm?$AAs?$AA?$AA@ 1000f6a0     libucrt:lcidtoname_downlevel.obj
 0002:000026a8       ??_C@_15MACJNBMH@?$AAk?$AAk?$AA?$AA@ 1000f6a8     libucrt:lcidtoname_downlevel.obj
 0002:000026b0       ??_C@_15DKDJEOND@?$AAk?$AAy?$AA?$AA@ 1000f6b0     libucrt:lcidtoname_downlevel.obj
 0002:000026b8       ??_C@_15DFGDLJBG@?$AAs?$AAw?$AA?$AA@ 1000f6b8     libucrt:lcidtoname_downlevel.obj
 0002:000026c0       ??_C@_15BBFAICNG@?$AAu?$AAz?$AA?$AA@ 1000f6c0     libucrt:lcidtoname_downlevel.obj
 0002:000026c8       ??_C@_15DKNDCGEA@?$AAt?$AAt?$AA?$AA@ 1000f6c8     libucrt:lcidtoname_downlevel.obj
 0002:000026d0       ??_C@_15MGIFMDPL@?$AAp?$AAa?$AA?$AA@ 1000f6d0     libucrt:lcidtoname_downlevel.obj
 0002:000026d8       ??_C@_15HCNDBBA@?$AAg?$AAu?$AA?$AA@ 1000f6d8     libucrt:lcidtoname_downlevel.obj
 0002:000026e0       ??_C@_15FNBEIBON@?$AAt?$AAa?$AA?$AA@ 1000f6e0     libucrt:lcidtoname_downlevel.obj
 0002:000026e8       ??_C@_15NCHGBGLK@?$AAt?$AAe?$AA?$AA@ 1000f6e8     libucrt:lcidtoname_downlevel.obj
 0002:000026f0       ??_C@_15PHPHCBPF@?$AAk?$AAn?$AA?$AA@ 1000f6f0     libucrt:lcidtoname_downlevel.obj
 0002:000026f8       ??_C@_15DLGBCKMP@?$AAm?$AAr?$AA?$AA@ 1000f6f8     libucrt:lcidtoname_downlevel.obj
 0002:00002700       ??_C@_15EABBLBFF@?$AAs?$AAa?$AA?$AA@ 1000f700     libucrt:lcidtoname_downlevel.obj
 0002:00002708       ??_C@_15CBKOMCOI@?$AAm?$AAn?$AA?$AA@ 1000f708     libucrt:lcidtoname_downlevel.obj
 0002:00002710       ??_C@_15CKDMCJAF@?$AAg?$AAl?$AA?$AA@ 1000f710     libucrt:lcidtoname_downlevel.obj
 0002:00002718       ??_C@_17CNJFBPG@?$AAk?$AAo?$AAk?$AA?$AA@ 1000f718     libucrt:lcidtoname_downlevel.obj
 0002:00002720       ??_C@_17FFBJICPL@?$AAs?$AAy?$AAr?$AA?$AA@ 1000f720     libucrt:lcidtoname_downlevel.obj
 0002:00002728       ??_C@_17KPNDCPAF@?$AAd?$AAi?$AAv?$AA?$AA@ 1000f728     libucrt:lcidtoname_downlevel.obj
 0002:00002730       ??_C@_11LOCGONAA@?$AA?$AA@ 1000f730     libucrt:lcidtoname_downlevel.obj
 0002:00002734       ??_C@_1M@OKAHONE@?$AAa?$AAr?$AA?9?$AAS?$AAA?$AA?$AA@ 1000f734     libucrt:lcidtoname_downlevel.obj
 0002:00002740       ??_C@_1M@FFFIGIGK@?$AAb?$AAg?$AA?9?$AAB?$AAG?$AA?$AA@ 1000f740     libucrt:lcidtoname_downlevel.obj
 0002:0000274c       ??_C@_1M@BJNKEDC@?$AAc?$AAa?$AA?9?$AAE?$AAS?$AA?$AA@ 1000f74c     libucrt:lcidtoname_downlevel.obj
 0002:00002758       ??_C@_1M@IJJHFJHA@?$AAc?$AAs?$AA?9?$AAC?$AAZ?$AA?$AA@ 1000f758     libucrt:lcidtoname_downlevel.obj
 0002:00002764       ??_C@_1M@CLPEOBGI@?$AAd?$AAa?$AA?9?$AAD?$AAK?$AA?$AA@ 1000f764     libucrt:lcidtoname_downlevel.obj
 0002:00002770       ??_C@_1M@MCMADGCB@?$AAd?$AAe?$AA?9?$AAD?$AAE?$AA?$AA@ 1000f770     libucrt:lcidtoname_downlevel.obj
 0002:0000277c       ??_C@_1M@OOCKEMAM@?$AAe?$AAl?$AA?9?$AAG?$AAR?$AA?$AA@ 1000f77c     libucrt:lcidtoname_downlevel.obj
 0002:00002788       ??_C@_1M@DDNJFGID@?$AAf?$AAi?$AA?9?$AAF?$AAI?$AA?$AA@ 1000f788     libucrt:lcidtoname_downlevel.obj
 0002:00002794       ??_C@_1M@GLIPPMAC@?$AAf?$AAr?$AA?9?$AAF?$AAR?$AA?$AA@ 1000f794     libucrt:lcidtoname_downlevel.obj
 0002:000027a0       ??_C@_1M@GFMCHPE@?$AAh?$AAe?$AA?9?$AAI?$AAL?$AA?$AA@ 1000f7a0     libucrt:lcidtoname_downlevel.obj
 0002:000027ac       ??_C@_1M@MHLPGNKM@?$AAh?$AAu?$AA?9?$AAH?$AAU?$AA?$AA@ 1000f7ac     libucrt:lcidtoname_downlevel.obj
 0002:000027b8       ??_C@_1M@LPDDNNPN@?$AAi?$AAs?$AA?9?$AAI?$AAS?$AA?$AA@ 1000f7b8     libucrt:lcidtoname_downlevel.obj
 0002:000027c4       ??_C@_1M@MADIPODN@?$AAi?$AAt?$AA?9?$AAI?$AAT?$AA?$AA@ 1000f7c4     libucrt:lcidtoname_downlevel.obj
 0002:000027d0       ??_C@_1M@IHBJJGG@?$AAn?$AAl?$AA?9?$AAN?$AAL?$AA?$AA@ 1000f7d0     libucrt:lcidtoname_downlevel.obj
 0002:000027dc       ??_C@_1M@EANAGDL@?$AAn?$AAb?$AA?9?$AAN?$AAO?$AA?$AA@ 1000f7dc     libucrt:lcidtoname_downlevel.obj
 0002:000027e8       ??_C@_1M@NEIEMEGP@?$AAp?$AAl?$AA?9?$AAP?$AAL?$AA?$AA@ 1000f7e8     libucrt:lcidtoname_downlevel.obj
 0002:000027f4       ??_C@_1M@BOCFIGEP@?$AAp?$AAt?$AA?9?$AAB?$AAR?$AA?$AA@ 1000f7f4     libucrt:lcidtoname_downlevel.obj
 0002:00002800       ??_C@_1M@IMPFOPBG@?$AAr?$AAo?$AA?9?$AAR?$AAO?$AA?$AA@ 1000f800     libucrt:lcidtoname_downlevel.obj
 0002:0000280c       ??_C@_1M@IDNNEJMM@?$AAr?$AAu?$AA?9?$AAR?$AAU?$AA?$AA@ 1000f80c     libucrt:lcidtoname_downlevel.obj
 0002:00002818       ??_C@_1M@LILEEOGM@?$AAh?$AAr?$AA?9?$AAH?$AAR?$AA?$AA@ 1000f818     libucrt:lcidtoname_downlevel.obj
 0002:00002824       ??_C@_1M@FKIFEHPB@?$AAs?$AAk?$AA?9?$AAS?$AAK?$AA?$AA@ 1000f824     libucrt:lcidtoname_downlevel.obj
 0002:00002830       ??_C@_1M@LJMAMNPJ@?$AAs?$AAq?$AA?9?$AAA?$AAL?$AA?$AA@ 1000f830     libucrt:lcidtoname_downlevel.obj
 0002:0000283c       ??_C@_1M@GIAKDKJK@?$AAs?$AAv?$AA?9?$AAS?$AAE?$AA?$AA@ 1000f83c     libucrt:lcidtoname_downlevel.obj
 0002:00002848       ??_C@_1M@MKJKIKCL@?$AAt?$AAh?$AA?9?$AAT?$AAH?$AA?$AA@ 1000f848     libucrt:lcidtoname_downlevel.obj
 0002:00002854       ??_C@_1M@MFLCCMPB@?$AAt?$AAr?$AA?9?$AAT?$AAR?$AA?$AA@ 1000f854     libucrt:lcidtoname_downlevel.obj
 0002:00002860       ??_C@_1M@OIJHDKJN@?$AAu?$AAr?$AA?9?$AAP?$AAK?$AA?$AA@ 1000f860     libucrt:lcidtoname_downlevel.obj
 0002:0000286c       ??_C@_1M@LHIPCIEK@?$AAi?$AAd?$AA?9?$AAI?$AAD?$AA?$AA@ 1000f86c     libucrt:lcidtoname_downlevel.obj
 0002:00002878       ??_C@_1M@MFMOBGI@?$AAu?$AAk?$AA?9?$AAU?$AAA?$AA?$AA@ 1000f878     libucrt:lcidtoname_downlevel.obj
 0002:00002884       ??_C@_1M@OBGLJIPL@?$AAb?$AAe?$AA?9?$AAB?$AAY?$AA?$AA@ 1000f884     libucrt:lcidtoname_downlevel.obj
 0002:00002890       ??_C@_1M@BCFAJEAD@?$AAs?$AAl?$AA?9?$AAS?$AAI?$AA?$AA@ 1000f890     libucrt:lcidtoname_downlevel.obj
 0002:0000289c       ??_C@_1M@FKFFEDDN@?$AAe?$AAt?$AA?9?$AAE?$AAE?$AA?$AA@ 1000f89c     libucrt:lcidtoname_downlevel.obj
 0002:000028a8       ??_C@_1M@KGKKAACI@?$AAl?$AAv?$AA?9?$AAL?$AAV?$AA?$AA@ 1000f8a8     libucrt:lcidtoname_downlevel.obj
 0002:000028b4       ??_C@_1M@IFGBIJO@?$AAl?$AAt?$AA?9?$AAL?$AAT?$AA?$AA@ 1000f8b4     libucrt:lcidtoname_downlevel.obj
 0002:000028c0       ??_C@_1M@FGEAHEDM@?$AAf?$AAa?$AA?9?$AAI?$AAR?$AA?$AA@ 1000f8c0     libucrt:lcidtoname_downlevel.obj
 0002:000028cc       ??_C@_1M@KBMAIBFN@?$AAv?$AAi?$AA?9?$AAV?$AAN?$AA?$AA@ 1000f8cc     libucrt:lcidtoname_downlevel.obj
 0002:000028d8       ??_C@_1M@GPCBKDJK@?$AAh?$AAy?$AA?9?$AAA?$AAM?$AA?$AA@ 1000f8d8     libucrt:lcidtoname_downlevel.obj
 0002:000028e4       ??_C@_1BG@BECMDDJB@?$AAa?$AAz?$AA?9?$AAA?$AAZ?$AA?9?$AAL?$AAa?$AAt?$AAn?$AA?$AA@ 1000f8e4     libucrt:lcidtoname_downlevel.obj
 0002:000028fc       ??_C@_1M@MAOFCAEA@?$AAe?$AAu?$AA?9?$AAE?$AAS?$AA?$AA@ 1000f8fc     libucrt:lcidtoname_downlevel.obj
 0002:00002908       ??_C@_1M@IGHABKPI@?$AAm?$AAk?$AA?9?$AAM?$AAK?$AA?$AA@ 1000f908     libucrt:lcidtoname_downlevel.obj
 0002:00002914       ??_C@_1M@IAIGNEJG@?$AAt?$AAn?$AA?9?$AAZ?$AAA?$AA?$AA@ 1000f914     libucrt:lcidtoname_downlevel.obj
 0002:00002920       ??_C@_1M@IIJCOJFA@?$AAx?$AAh?$AA?9?$AAZ?$AAA?$AA?$AA@ 1000f920     libucrt:lcidtoname_downlevel.obj
 0002:0000292c       ??_C@_1M@LGPJHNJH@?$AAz?$AAu?$AA?9?$AAZ?$AAA?$AA?$AA@ 1000f92c     libucrt:lcidtoname_downlevel.obj
 0002:00002938       ??_C@_1M@HOKAOIO@?$AAa?$AAf?$AA?9?$AAZ?$AAA?$AA?$AA@ 1000f938     libucrt:lcidtoname_downlevel.obj
 0002:00002944       ??_C@_1M@DPCLHLIE@?$AAk?$AAa?$AA?9?$AAG?$AAE?$AA?$AA@ 1000f944     libucrt:lcidtoname_downlevel.obj
 0002:00002950       ??_C@_1M@BLKMHJBI@?$AAf?$AAo?$AA?9?$AAF?$AAO?$AA?$AA@ 1000f950     libucrt:lcidtoname_downlevel.obj
 0002:0000295c       ??_C@_1M@LGGJAPPB@?$AAh?$AAi?$AA?9?$AAI?$AAN?$AA?$AA@ 1000f95c     libucrt:lcidtoname_downlevel.obj
 0002:00002968       ??_C@_1M@FIKPIHFE@?$AAm?$AAt?$AA?9?$AAM?$AAT?$AA?$AA@ 1000f968     libucrt:lcidtoname_downlevel.obj
 0002:00002974       ??_C@_1M@HEGGPBFA@?$AAs?$AAe?$AA?9?$AAN?$AAO?$AA?$AA@ 1000f974     libucrt:lcidtoname_downlevel.obj
 0002:00002980       ??_C@_1M@EIBJEEPA@?$AAm?$AAs?$AA?9?$AAM?$AAY?$AA?$AA@ 1000f980     libucrt:lcidtoname_downlevel.obj
 0002:0000298c       ??_C@_1M@FHLBGMPP@?$AAk?$AAk?$AA?9?$AAK?$AAZ?$AA?$AA@ 1000f98c     libucrt:lcidtoname_downlevel.obj
 0002:00002998       ??_C@_1M@NGJJLCGI@?$AAk?$AAy?$AA?9?$AAK?$AAG?$AA?$AA@ 1000f998     libucrt:lcidtoname_downlevel.obj
 0002:000029a4       ??_C@_1M@GIENNBFC@?$AAs?$AAw?$AA?9?$AAK?$AAE?$AA?$AA@ 1000f9a4     libucrt:lcidtoname_downlevel.obj
 0002:000029b0       ??_C@_1BG@NDGMJIMJ@?$AAu?$AAz?$AA?9?$AAU?$AAZ?$AA?9?$AAL?$AAa?$AAt?$AAn?$AA?$AA@ 1000f9b0     libucrt:lcidtoname_downlevel.obj
 0002:000029c8       ??_C@_1M@IDCCIHBC@?$AAt?$AAt?$AA?9?$AAR?$AAU?$AA?$AA@ 1000f9c8     libucrt:lcidtoname_downlevel.obj
 0002:000029d4       ??_C@_1M@LOICPMOJ@?$AAb?$AAn?$AA?9?$AAI?$AAN?$AA?$AA@ 1000f9d4     libucrt:lcidtoname_downlevel.obj
 0002:000029e0       ??_C@_1M@KPKKNEAH@?$AAp?$AAa?$AA?9?$AAI?$AAN?$AA?$AA@ 1000f9e0     libucrt:lcidtoname_downlevel.obj
 0002:000029ec       ??_C@_1M@PJGPPBOG@?$AAg?$AAu?$AA?9?$AAI?$AAN?$AA?$AA@ 1000f9ec     libucrt:lcidtoname_downlevel.obj
 0002:000029f8       ??_C@_1M@KMKMOPHI@?$AAt?$AAa?$AA?9?$AAI?$AAN?$AA?$AA@ 1000f9f8     libucrt:lcidtoname_downlevel.obj
 0002:00002a04       ??_C@_1M@KFEHEPAC@?$AAt?$AAe?$AA?9?$AAI?$AAN?$AA?$AA@ 1000fa04     libucrt:lcidtoname_downlevel.obj
 0002:00002a10       ??_C@_1M@CDCLMGHI@?$AAk?$AAn?$AA?9?$AAI?$AAN?$AA?$AA@ 1000fa10     libucrt:lcidtoname_downlevel.obj
 0002:00002a1c       ??_C@_1M@MIODLDKF@?$AAm?$AAl?$AA?9?$AAI?$AAN?$AA?$AA@ 1000fa1c     libucrt:lcidtoname_downlevel.obj
 0002:00002a28       ??_C@_1M@PBIEACPO@?$AAm?$AAr?$AA?9?$AAI?$AAN?$AA?$AA@ 1000fa28     libucrt:lcidtoname_downlevel.obj
 0002:00002a34       ??_C@_1M@NIDEAGPH@?$AAs?$AAa?$AA?9?$AAI?$AAN?$AA?$AA@ 1000fa34     libucrt:lcidtoname_downlevel.obj
 0002:00002a40       ??_C@_1M@FHIHCBIO@?$AAm?$AAn?$AA?9?$AAM?$AAN?$AA?$AA@ 1000fa40     libucrt:lcidtoname_downlevel.obj
 0002:00002a4c       ??_C@_1M@JAIJPENP@?$AAc?$AAy?$AA?9?$AAG?$AAB?$AA?$AA@ 1000fa4c     libucrt:lcidtoname_downlevel.obj
 0002:00002a58       ??_C@_1M@PHGFBEPN@?$AAg?$AAl?$AA?9?$AAE?$AAS?$AA?$AA@ 1000fa58     libucrt:lcidtoname_downlevel.obj
 0002:00002a64       ??_C@_1O@KPIPDNCP@?$AAk?$AAo?$AAk?$AA?9?$AAI?$AAN?$AA?$AA@ 1000fa64     libucrt:lcidtoname_downlevel.obj
 0002:00002a74       ??_C@_1O@KNHJLDJA@?$AAs?$AAy?$AAr?$AA?9?$AAS?$AAY?$AA?$AA@ 1000fa74     libucrt:lcidtoname_downlevel.obj
 0002:00002a84       ??_C@_1O@MKEKBLAH@?$AAd?$AAi?$AAv?$AA?9?$AAM?$AAV?$AA?$AA@ 1000fa84     libucrt:lcidtoname_downlevel.obj
 0002:00002a94       ??_C@_1O@OHDCKDDF@?$AAq?$AAu?$AAz?$AA?9?$AAB?$AAO?$AA?$AA@ 1000fa94     libucrt:lcidtoname_downlevel.obj
 0002:00002aa4       ??_C@_1M@LEPJNLFD@?$AAn?$AAs?$AA?9?$AAZ?$AAA?$AA?$AA@ 1000faa4     libucrt:lcidtoname_downlevel.obj
 0002:00002ab0       ??_C@_1M@OMLEIIJB@?$AAm?$AAi?$AA?9?$AAN?$AAZ?$AA?$AA@ 1000fab0     libucrt:lcidtoname_downlevel.obj
 0002:00002abc       ??_C@_1M@PMPEAILG@?$AAa?$AAr?$AA?9?$AAI?$AAQ?$AA?$AA@ 1000fabc     libucrt:lcidtoname_downlevel.obj
 0002:00002ac8       ??_C@_1M@CNKPNOEE@?$AAd?$AAe?$AA?9?$AAC?$AAH?$AA?$AA@ 1000fac8     libucrt:lcidtoname_downlevel.obj
 0002:00002ad4       ??_C@_1M@LKMGMLKO@?$AAe?$AAn?$AA?9?$AAG?$AAB?$AA?$AA@ 1000fad4     libucrt:lcidtoname_downlevel.obj
 0002:00002ae0       ??_C@_1M@PGKJFFGL@?$AAe?$AAs?$AA?9?$AAM?$AAX?$AA?$AA@ 1000fae0     libucrt:lcidtoname_downlevel.obj
 0002:00002aec       ??_C@_1M@DNNANBDC@?$AAf?$AAr?$AA?9?$AAB?$AAE?$AA?$AA@ 1000faec     libucrt:lcidtoname_downlevel.obj
 0002:00002af8       ??_C@_1M@HLGMDFHM@?$AAi?$AAt?$AA?9?$AAC?$AAH?$AA?$AA@ 1000faf8     libucrt:lcidtoname_downlevel.obj
 0002:00002b04       ??_C@_1M@CLLBGJH@?$AAn?$AAl?$AA?9?$AAB?$AAE?$AA?$AA@ 1000fb04     libucrt:lcidtoname_downlevel.obj
 0002:00002b10       ??_C@_1M@BODBOGLF@?$AAn?$AAn?$AA?9?$AAN?$AAO?$AA?$AA@ 1000fb10     libucrt:lcidtoname_downlevel.obj
 0002:00002b1c       ??_C@_1M@HFFAHKAD@?$AAp?$AAt?$AA?9?$AAP?$AAT?$AA?$AA@ 1000fb1c     libucrt:lcidtoname_downlevel.obj
 0002:00002b28       ??_C@_1BG@LNOAKHIE@?$AAs?$AAr?$AA?9?$AAS?$AAP?$AA?9?$AAL?$AAa?$AAt?$AAn?$AA?$AA@ 1000fb28     libucrt:lcidtoname_downlevel.obj
 0002:00002b40       ??_C@_1M@HBMHBGAK@?$AAs?$AAv?$AA?9?$AAF?$AAI?$AA?$AA@ 1000fb40     libucrt:lcidtoname_downlevel.obj
 0002:00002b4c       ??_C@_1BG@DGCJGJBE@?$AAa?$AAz?$AA?9?$AAA?$AAZ?$AA?9?$AAC?$AAy?$AAr?$AAl?$AA?$AA@ 1000fb4c     libucrt:lcidtoname_downlevel.obj
 0002:00002b64       ??_C@_1M@KEJDAAHB@?$AAs?$AAe?$AA?9?$AAS?$AAE?$AA?$AA@ 1000fb64     libucrt:lcidtoname_downlevel.obj
 0002:00002b70       ??_C@_1M@HEIBJJAD@?$AAm?$AAs?$AA?9?$AAB?$AAN?$AA?$AA@ 1000fb70     libucrt:lcidtoname_downlevel.obj
 0002:00002b7c       ??_C@_1BG@PBGJMCEM@?$AAu?$AAz?$AA?9?$AAU?$AAZ?$AA?9?$AAC?$AAy?$AAr?$AAl?$AA?$AA@ 1000fb7c     libucrt:lcidtoname_downlevel.obj
 0002:00002b94       ??_C@_1O@LAOBCMDF@?$AAq?$AAu?$AAz?$AA?9?$AAE?$AAC?$AA?$AA@ 1000fb94     libucrt:lcidtoname_downlevel.obj
 0002:00002ba4       ??_C@_1M@POEEMAIO@?$AAa?$AAr?$AA?9?$AAE?$AAG?$AA?$AA@ 1000fba4     libucrt:lcidtoname_downlevel.obj
 0002:00002bb0       ??_C@_1M@EFAKDEDL@?$AAz?$AAh?$AA?9?$AAH?$AAK?$AA?$AA@ 1000fbb0     libucrt:lcidtoname_downlevel.obj
 0002:00002bbc       ??_C@_1M@HKKIJHGI@?$AAd?$AAe?$AA?9?$AAA?$AAT?$AA?$AA@ 1000fbbc     libucrt:lcidtoname_downlevel.obj
 0002:00002bc8       ??_C@_1M@KBFBEHJF@?$AAe?$AAn?$AA?9?$AAA?$AAU?$AA?$AA@ 1000fbc8     libucrt:lcidtoname_downlevel.obj
 0002:00002bd4       ??_C@_1M@MNPLFAAH@?$AAe?$AAs?$AA?9?$AAE?$AAS?$AA?$AA@ 1000fbd4     libucrt:lcidtoname_downlevel.obj
 0002:00002be0       ??_C@_1M@HJOOJFMA@?$AAf?$AAr?$AA?9?$AAC?$AAA?$AA?$AA@ 1000fbe0     libucrt:lcidtoname_downlevel.obj
 0002:00002bec       ??_C@_1BG@JPOFPNAB@?$AAs?$AAr?$AA?9?$AAS?$AAP?$AA?9?$AAC?$AAy?$AAr?$AAl?$AA?$AA@ 1000fbec     libucrt:lcidtoname_downlevel.obj
 0002:00002c04       ??_C@_1M@LNFOCMOB@?$AAs?$AAe?$AA?9?$AAF?$AAI?$AA?$AA@ 1000fc04     libucrt:lcidtoname_downlevel.obj
 0002:00002c10       ??_C@_1O@MGJBOAMB@?$AAq?$AAu?$AAz?$AA?9?$AAP?$AAE?$AA?$AA@ 1000fc10     libucrt:lcidtoname_downlevel.obj
 0002:00002c20       ??_C@_1M@GJINLBOK@?$AAa?$AAr?$AA?9?$AAL?$AAY?$AA?$AA@ 1000fc20     libucrt:lcidtoname_downlevel.obj
 0002:00002c2c       ??_C@_1M@GGMNHJNL@?$AAz?$AAh?$AA?9?$AAS?$AAG?$AA?$AA@ 1000fc2c     libucrt:lcidtoname_downlevel.obj
 0002:00002c38       ??_C@_1M@HOIKODND@?$AAd?$AAe?$AA?9?$AAL?$AAU?$AA?$AA@ 1000fc38     libucrt:lcidtoname_downlevel.obj
 0002:00002c44       ??_C@_1M@DDOCCGFG@?$AAe?$AAn?$AA?9?$AAC?$AAA?$AA?$AA@ 1000fc44     libucrt:lcidtoname_downlevel.obj
 0002:00002c50       ??_C@_1M@BNOEMJLF@?$AAe?$AAs?$AA?9?$AAG?$AAT?$AA?$AA@ 1000fc50     libucrt:lcidtoname_downlevel.obj
 0002:00002c5c       ??_C@_1M@EOGNKEK@?$AAf?$AAr?$AA?9?$AAC?$AAH?$AA?$AA@ 1000fc5c     libucrt:lcidtoname_downlevel.obj
 0002:00002c68       ??_C@_1M@FLIDJFHL@?$AAh?$AAr?$AA?9?$AAB?$AAA?$AA?$AA@ 1000fc68     libucrt:lcidtoname_downlevel.obj
 0002:00002c74       ??_C@_1O@FMCELNAJ@?$AAs?$AAm?$AAj?$AA?9?$AAN?$AAO?$AA?$AA@ 1000fc74     libucrt:lcidtoname_downlevel.obj
 0002:00002c84       ??_C@_1M@JHGLJMGJ@?$AAa?$AAr?$AA?9?$AAD?$AAZ?$AA?$AA@ 1000fc84     libucrt:lcidtoname_downlevel.obj
 0002:00002c90       ??_C@_1M@JKKFDCNP@?$AAz?$AAh?$AA?9?$AAM?$AAO?$AA?$AA@ 1000fc90     libucrt:lcidtoname_downlevel.obj
 0002:00002c9c       ??_C@_1M@GEEFALPE@?$AAd?$AAe?$AA?9?$AAL?$AAI?$AA?$AA@ 1000fc9c     libucrt:lcidtoname_downlevel.obj
 0002:00002ca8       ??_C@_1M@IGEOFBG@?$AAe?$AAn?$AA?9?$AAN?$AAZ?$AA?$AA@ 1000fca8     libucrt:lcidtoname_downlevel.obj
 0002:00002cb4       ??_C@_1M@KDBONEHP@?$AAe?$AAs?$AA?9?$AAC?$AAR?$AA?$AA@ 1000fcb4     libucrt:lcidtoname_downlevel.obj
 0002:00002cc0       ??_C@_1M@FHMDOHNN@?$AAf?$AAr?$AA?9?$AAL?$AAU?$AA?$AA@ 1000fcc0     libucrt:lcidtoname_downlevel.obj
 0002:00002ccc       ??_C@_1BG@NFKKMAFG@?$AAb?$AAs?$AA?9?$AAB?$AAA?$AA?9?$AAL?$AAa?$AAt?$AAn?$AA?$AA@ 1000fccc     libucrt:lcidtoname_downlevel.obj
 0002:00002ce4       ??_C@_1O@IMNBEMCI@?$AAs?$AAm?$AAj?$AA?9?$AAS?$AAE?$AA?$AA@ 1000fce4     libucrt:lcidtoname_downlevel.obj
 0002:00002cf4       ??_C@_1M@DHHMBNDP@?$AAa?$AAr?$AA?9?$AAM?$AAA?$AA?$AA@ 1000fcf4     libucrt:lcidtoname_downlevel.obj
 0002:00002d00       ??_C@_1M@BNBLJCGH@?$AAe?$AAn?$AA?9?$AAI?$AAE?$AA?$AA@ 1000fd00     libucrt:lcidtoname_downlevel.obj
 0002:00002d0c       ??_C@_1M@GEPAFMDL@?$AAe?$AAs?$AA?9?$AAP?$AAA?$AA?$AA@ 1000fd0c     libucrt:lcidtoname_downlevel.obj
 0002:00002d18       ??_C@_1M@OJONDMDL@?$AAf?$AAr?$AA?9?$AAM?$AAC?$AA?$AA@ 1000fd18     libucrt:lcidtoname_downlevel.obj
 0002:00002d24       ??_C@_1BG@OBCNFJB@?$AAs?$AAr?$AA?9?$AAB?$AAA?$AA?9?$AAL?$AAa?$AAt?$AAn?$AA?$AA@ 1000fd24     libucrt:lcidtoname_downlevel.obj
 0002:00002d3c       ??_C@_1O@KEMEEGPO@?$AAs?$AAm?$AAa?$AA?9?$AAN?$AAO?$AA?$AA@ 1000fd3c     libucrt:lcidtoname_downlevel.obj
 0002:00002d4c       ??_C@_1M@ELMGFODK@?$AAa?$AAr?$AA?9?$AAT?$AAN?$AA?$AA@ 1000fd4c     libucrt:lcidtoname_downlevel.obj
 0002:00002d58       ??_C@_1M@BHDLHFAF@?$AAe?$AAn?$AA?9?$AAZ?$AAA?$AA?$AA@ 1000fd58     libucrt:lcidtoname_downlevel.obj
 0002:00002d64       ??_C@_1M@BMGIGLIF@?$AAe?$AAs?$AA?9?$AAD?$AAO?$AA?$AA@ 1000fd64     libucrt:lcidtoname_downlevel.obj
 0002:00002d70       ??_C@_1BG@CMBHIPBE@?$AAs?$AAr?$AA?9?$AAB?$AAA?$AA?9?$AAC?$AAy?$AAr?$AAl?$AA?$AA@ 1000fd70     libucrt:lcidtoname_downlevel.obj
 0002:00002d88       ??_C@_1O@HEDBLHNP@?$AAs?$AAm?$AAa?$AA?9?$AAS?$AAE?$AA?$AA@ 1000fd88     libucrt:lcidtoname_downlevel.obj
 0002:00002d98       ??_C@_1M@DAGCADIM@?$AAa?$AAr?$AA?9?$AAO?$AAM?$AA?$AA@ 1000fd98     libucrt:lcidtoname_downlevel.obj
 0002:00002da4       ??_C@_1M@FODLMICG@?$AAe?$AAn?$AA?9?$AAJ?$AAM?$AA?$AA@ 1000fda4     libucrt:lcidtoname_downlevel.obj
 0002:00002db0       ??_C@_1M@DNMLCIHB@?$AAe?$AAs?$AA?9?$AAV?$AAE?$AA?$AA@ 1000fdb0     libucrt:lcidtoname_downlevel.obj
 0002:00002dbc       ??_C@_1O@EOKHMKJK@?$AAs?$AAm?$AAs?$AA?9?$AAF?$AAI?$AA?$AA@ 1000fdbc     libucrt:lcidtoname_downlevel.obj
 0002:00002dcc       ??_C@_1M@CAFJMKOF@?$AAa?$AAr?$AA?9?$AAY?$AAE?$AA?$AA@ 1000fdcc     libucrt:lcidtoname_downlevel.obj
 0002:00002dd8       ??_C@_1M@CBFHIJLI@?$AAe?$AAn?$AA?9?$AAC?$AAB?$AA?$AA@ 1000fdd8     libucrt:lcidtoname_downlevel.obj
 0002:00002de4       ??_C@_1M@BGNFLDN@?$AAe?$AAs?$AA?9?$AAC?$AAO?$AA?$AA@ 1000fde4     libucrt:lcidtoname_downlevel.obj
 0002:00002df0       ??_C@_1O@JMPHMAMC@?$AAs?$AAm?$AAn?$AA?9?$AAF?$AAI?$AA?$AA@ 1000fdf0     libucrt:lcidtoname_downlevel.obj
 0002:00002e00       ??_C@_1M@JLANABKE@?$AAa?$AAr?$AA?9?$AAS?$AAY?$AA?$AA@ 1000fe00     libucrt:lcidtoname_downlevel.obj
 0002:00002e0c       ??_C@_1M@HPKGCFGN@?$AAe?$AAn?$AA?9?$AAB?$AAZ?$AA?$AA@ 1000fe0c     libucrt:lcidtoname_downlevel.obj
 0002:00002e18       ??_C@_1M@OLJCMLGM@?$AAe?$AAs?$AA?9?$AAP?$AAE?$AA?$AA@ 1000fe18     libucrt:lcidtoname_downlevel.obj
 0002:00002e24       ??_C@_1M@MKKGFKLE@?$AAa?$AAr?$AA?9?$AAJ?$AAO?$AA?$AA@ 1000fe24     libucrt:lcidtoname_downlevel.obj
 0002:00002e30       ??_C@_1M@EKPGLDNI@?$AAe?$AAn?$AA?9?$AAT?$AAT?$AA?$AA@ 1000fe30     libucrt:lcidtoname_downlevel.obj
 0002:00002e3c       ??_C@_1M@OONGHFHE@?$AAe?$AAs?$AA?9?$AAA?$AAR?$AA?$AA@ 1000fe3c     libucrt:lcidtoname_downlevel.obj
 0002:00002e48       ??_C@_1M@OOJFGBHE@?$AAa?$AAr?$AA?9?$AAL?$AAB?$AA?$AA@ 1000fe48     libucrt:lcidtoname_downlevel.obj
 0002:00002e54       ??_C@_1M@GCEJHNEG@?$AAe?$AAn?$AA?9?$AAZ?$AAW?$AA?$AA@ 1000fe54     libucrt:lcidtoname_downlevel.obj
 0002:00002e60       ??_C@_1M@JNOCAHJI@?$AAe?$AAs?$AA?9?$AAE?$AAC?$AA?$AA@ 1000fe60     libucrt:lcidtoname_downlevel.obj
 0002:00002e6c       ??_C@_1M@JEFHPGGB@?$AAa?$AAr?$AA?9?$AAK?$AAW?$AA?$AA@ 1000fe6c     libucrt:lcidtoname_downlevel.obj
 0002:00002e78       ??_C@_1M@MLKIBJOJ@?$AAe?$AAn?$AA?9?$AAP?$AAH?$AA?$AA@ 1000fe78     libucrt:lcidtoname_downlevel.obj
 0002:00002e84       ??_C@_1M@BDNIPEND@?$AAe?$AAs?$AA?9?$AAC?$AAL?$AA?$AA@ 1000fe84     libucrt:lcidtoname_downlevel.obj
 0002:00002e90       ??_C@_1M@MPNMEKBD@?$AAa?$AAr?$AA?9?$AAA?$AAE?$AA?$AA@ 1000fe90     libucrt:lcidtoname_downlevel.obj
 0002:00002e9c       ??_C@_1M@KBJALCPI@?$AAe?$AAs?$AA?9?$AAU?$AAY?$AA?$AA@ 1000fe9c     libucrt:lcidtoname_downlevel.obj
 0002:00002ea8       ??_C@_1M@LLCCOAGA@?$AAa?$AAr?$AA?9?$AAB?$AAH?$AA?$AA@ 1000fea8     libucrt:lcidtoname_downlevel.obj
 0002:00002eb4       ??_C@_1M@PBFNCDEL@?$AAe?$AAs?$AA?9?$AAP?$AAY?$AA?$AA@ 1000feb4     libucrt:lcidtoname_downlevel.obj
 0002:00002ec0       ??_C@_1M@EDGINPNP@?$AAa?$AAr?$AA?9?$AAQ?$AAA?$AA?$AA@ 1000fec0     libucrt:lcidtoname_downlevel.obj
 0002:00002ecc       ??_C@_1M@MKDBIIJI@?$AAe?$AAs?$AA?9?$AAB?$AAO?$AA?$AA@ 1000fecc     libucrt:lcidtoname_downlevel.obj
 0002:00002ed8       ??_C@_1M@CPKKEBLD@?$AAe?$AAs?$AA?9?$AAS?$AAV?$AA?$AA@ 1000fed8     libucrt:lcidtoname_downlevel.obj
 0002:00002ee4       ??_C@_1M@NDBGMMJL@?$AAe?$AAs?$AA?9?$AAH?$AAN?$AA?$AA@ 1000fee4     libucrt:lcidtoname_downlevel.obj
 0002:00002ef0       ??_C@_1M@JIJIBHDP@?$AAe?$AAs?$AA?9?$AAN?$AAI?$AA?$AA@ 1000fef0     libucrt:lcidtoname_downlevel.obj
 0002:00002efc       ??_C@_1M@CGFMKEEK@?$AAe?$AAs?$AA?9?$AAP?$AAR?$AA?$AA@ 1000fefc     libucrt:lcidtoname_downlevel.obj
 0002:00002f08       ??_C@_1O@ICJHKIIK@?$AAz?$AAh?$AA?9?$AAC?$AAH?$AAT?$AA?$AA@ 1000ff08     libucrt:lcidtoname_downlevel.obj
 0002:00002f18       ??_C@_15CLNEJCE@?$AAs?$AAr?$AA?$AA@ 1000ff18     libucrt:lcidtoname_downlevel.obj
 0002:00003640       ??_C@_1M@KAHEKEIG@?$AAa?$AAf?$AA?9?$AAz?$AAa?$AA?$AA@ 10010640     libucrt:lcidtoname_downlevel.obj
 0002:0000364c       ??_C@_1M@GIECOABL@?$AAa?$AAr?$AA?9?$AAa?$AAe?$AA?$AA@ 1001064c     libucrt:lcidtoname_downlevel.obj
 0002:00003658       ??_C@_1M@BMLMEKGI@?$AAa?$AAr?$AA?9?$AAb?$AAh?$AA?$AA@ 10010658     libucrt:lcidtoname_downlevel.obj
 0002:00003664       ??_C@_1M@DAPFDGGB@?$AAa?$AAr?$AA?9?$AAd?$AAz?$AA?$AA@ 10010664     libucrt:lcidtoname_downlevel.obj
 0002:00003670       ??_C@_1M@FJNKGKIG@?$AAa?$AAr?$AA?9?$AAe?$AAg?$AA?$AA@ 10010670     libucrt:lcidtoname_downlevel.obj
 0002:0000367c       ??_C@_1M@FLGKKCLO@?$AAa?$AAr?$AA?9?$AAi?$AAq?$AA?$AA@ 1001067c     libucrt:lcidtoname_downlevel.obj
 0002:00003688       ??_C@_1M@GNDIPALM@?$AAa?$AAr?$AA?9?$AAj?$AAo?$AA?$AA@ 10010688     libucrt:lcidtoname_downlevel.obj
 0002:00003694       ??_C@_1M@DDMJFMGJ@?$AAa?$AAr?$AA?9?$AAk?$AAw?$AA?$AA@ 10010694     libucrt:lcidtoname_downlevel.obj
 0002:000036a0       ??_C@_1M@EJALMLHM@?$AAa?$AAr?$AA?9?$AAl?$AAb?$AA?$AA@ 100106a0     libucrt:lcidtoname_downlevel.obj
 0002:000036ac       ??_C@_1M@MOBDBLOC@?$AAa?$AAr?$AA?9?$AAl?$AAy?$AA?$AA@ 100106ac     libucrt:lcidtoname_downlevel.obj
 0002:000036b8       ??_C@_1M@JAOCLHDH@?$AAa?$AAr?$AA?9?$AAm?$AAa?$AA?$AA@ 100106b8     libucrt:lcidtoname_downlevel.obj
 0002:000036c4       ??_C@_1M@JHPMKJIE@?$AAa?$AAr?$AA?9?$AAo?$AAm?$AA?$AA@ 100106c4     libucrt:lcidtoname_downlevel.obj
 0002:000036d0       ??_C@_1M@OEPGHFNH@?$AAa?$AAr?$AA?9?$AAq?$AAa?$AA?$AA@ 100106d0     libucrt:lcidtoname_downlevel.obj
 0002:000036dc       ??_C@_1M@KJDONENM@?$AAa?$AAr?$AA?9?$AAs?$AAa?$AA?$AA@ 100106dc     libucrt:lcidtoname_downlevel.obj
 0002:000036e8       ??_C@_1M@DMJDKLKM@?$AAa?$AAr?$AA?9?$AAs?$AAy?$AA?$AA@ 100106e8     libucrt:lcidtoname_downlevel.obj
 0002:000036f4       ??_C@_1M@OMFIPEDC@?$AAa?$AAr?$AA?9?$AAt?$AAn?$AA?$AA@ 100106f4     libucrt:lcidtoname_downlevel.obj
 0002:00003700       ??_C@_1M@IHMHGAON@?$AAa?$AAr?$AA?9?$AAy?$AAe?$AA?$AA@ 10010700     libucrt:lcidtoname_downlevel.obj
 0002:0000370c       ??_C@_1BG@KDCPGJGB@?$AAa?$AAz?$AA?9?$AAa?$AAz?$AA?9?$AAc?$AAy?$AAr?$AAl?$AA?$AA@ 1001070c     libucrt:lcidtoname_downlevel.obj
 0002:00003724       ??_C@_1BG@IBCKDDOE@?$AAa?$AAz?$AA?9?$AAa?$AAz?$AA?9?$AAl?$AAa?$AAt?$AAn?$AA?$AA@ 10010724     libucrt:lcidtoname_downlevel.obj
 0002:0000373c       ??_C@_1M@EGPFDCPD@?$AAb?$AAe?$AA?9?$AAb?$AAy?$AA?$AA@ 1001073c     libucrt:lcidtoname_downlevel.obj
 0002:00003748       ??_C@_1M@PCMGMCGC@?$AAb?$AAg?$AA?9?$AAb?$AAg?$AA?$AA@ 10010748     libucrt:lcidtoname_downlevel.obj
 0002:00003754       ??_C@_1M@BJBMFGOB@?$AAb?$AAn?$AA?9?$AAi?$AAn?$AA?$AA@ 10010754     libucrt:lcidtoname_downlevel.obj
 0002:00003760       ??_C@_1BG@EAKMMACD@?$AAb?$AAs?$AA?9?$AAb?$AAa?$AA?9?$AAl?$AAa?$AAt?$AAn?$AA?$AA@ 10010760     libucrt:lcidtoname_downlevel.obj
 0002:00003778       ??_C@_1M@KGADAODK@?$AAc?$AAa?$AA?9?$AAe?$AAs?$AA?$AA@ 10010778     libucrt:lcidtoname_downlevel.obj
 0002:00003784       ??_C@_1M@COAJPDHI@?$AAc?$AAs?$AA?9?$AAc?$AAz?$AA?$AA@ 10010784     libucrt:lcidtoname_downlevel.obj
 0002:00003790       ??_C@_1M@DHBHFONH@?$AAc?$AAy?$AA?9?$AAg?$AAb?$AA?$AA@ 10010790     libucrt:lcidtoname_downlevel.obj
 0002:0000379c       ??_C@_1M@IMGKELGA@?$AAd?$AAa?$AA?9?$AAd?$AAk?$AA?$AA@ 1001079c     libucrt:lcidtoname_downlevel.obj
 0002:000037a8       ??_C@_1M@NNDGDNGA@?$AAd?$AAe?$AA?9?$AAa?$AAt?$AA?$AA@ 100107a8     libucrt:lcidtoname_downlevel.obj
 0002:000037b4       ??_C@_1M@IKDBHEEM@?$AAd?$AAe?$AA?9?$AAc?$AAh?$AA?$AA@ 100107b4     libucrt:lcidtoname_downlevel.obj
 0002:000037c0       ??_C@_1M@GFFOJMCJ@?$AAd?$AAe?$AA?9?$AAd?$AAe?$AA?$AA@ 100107c0     libucrt:lcidtoname_downlevel.obj
 0002:000037cc       ??_C@_1M@MDNLKBPM@?$AAd?$AAe?$AA?9?$AAl?$AAi?$AA?$AA@ 100107cc     libucrt:lcidtoname_downlevel.obj
 0002:000037d8       ??_C@_1M@NJBEEJNL@?$AAd?$AAe?$AA?9?$AAl?$AAu?$AA?$AA@ 100107d8     libucrt:lcidtoname_downlevel.obj
 0002:000037e4       ??_C@_1O@GNNELBAP@?$AAd?$AAi?$AAv?$AA?9?$AAm?$AAv?$AA?$AA@ 100107e4     libucrt:lcidtoname_downlevel.obj
 0002:000037f4       ??_C@_1M@EJLEOGAE@?$AAe?$AAl?$AA?9?$AAg?$AAr?$AA?$AA@ 100107f4     libucrt:lcidtoname_downlevel.obj
 0002:00003800       ??_C@_1M@GMPONJN@?$AAe?$AAn?$AA?9?$AAa?$AAu?$AA?$AA@ 10010800     libucrt:lcidtoname_downlevel.obj
 0002:0000380c       ??_C@_1M@NIDIIPGF@?$AAe?$AAn?$AA?9?$AAb?$AAz?$AA?$AA@ 1001080c     libucrt:lcidtoname_downlevel.obj
 0002:00003818       ??_C@_1M@JEHMIMFO@?$AAe?$AAn?$AA?9?$AAc?$AAa?$AA?$AA@ 10010818     libucrt:lcidtoname_downlevel.obj
 0002:00003824       ??_C@_1M@IGMJCDLA@?$AAe?$AAn?$AA?9?$AAc?$AAb?$AA?$AA@ 10010824     libucrt:lcidtoname_downlevel.obj
 0002:00003830       ??_C@_1M@BNFIGBKG@?$AAe?$AAn?$AA?9?$AAg?$AAb?$AA?$AA@ 10010830     libucrt:lcidtoname_downlevel.obj
 0002:0000383c       ??_C@_1M@LKIFDIGP@?$AAe?$AAn?$AA?9?$AAi?$AAe?$AA?$AA@ 1001083c     libucrt:lcidtoname_downlevel.obj
 0002:00003848       ??_C@_1M@PJKFGCCO@?$AAe?$AAn?$AA?9?$AAj?$AAm?$AA?$AA@ 10010848     libucrt:lcidtoname_downlevel.obj
 0002:00003854       ??_C@_1M@KPPKEPBO@?$AAe?$AAn?$AA?9?$AAn?$AAz?$AA?$AA@ 10010854     libucrt:lcidtoname_downlevel.obj
 0002:00003860       ??_C@_1M@GMDGLDOB@?$AAe?$AAn?$AA?9?$AAp?$AAh?$AA?$AA@ 10010860     libucrt:lcidtoname_downlevel.obj
 0002:0000386c       ??_C@_1M@ONGIBJNA@?$AAe?$AAn?$AA?9?$AAt?$AAt?$AA?$AA@ 1001086c     libucrt:lcidtoname_downlevel.obj
 0002:00003878       ??_C@_1M@LLODPCMM@?$AAe?$AAn?$AA?9?$AAu?$AAs?$AA?$AA@ 10010878     libucrt:lcidtoname_downlevel.obj
 0002:00003884       ??_C@_1M@LAKFNPAN@?$AAe?$AAn?$AA?9?$AAz?$AAa?$AA?$AA@ 10010884     libucrt:lcidtoname_downlevel.obj
 0002:00003890       ??_C@_1M@MFNHNHEO@?$AAe?$AAn?$AA?9?$AAz?$AAw?$AA?$AA@ 10010890     libucrt:lcidtoname_downlevel.obj
 0002:0000389c       ??_C@_1M@EJEINPHM@?$AAe?$AAs?$AA?9?$AAa?$AAr?$AA?$AA@ 1001089c     libucrt:lcidtoname_downlevel.obj
 0002:000038a8       ??_C@_1M@GNKPCCJA@?$AAe?$AAs?$AA?9?$AAb?$AAo?$AA?$AA@ 100108a8     libucrt:lcidtoname_downlevel.obj
 0002:000038b4       ??_C@_1M@LEEGFONL@?$AAe?$AAs?$AA?9?$AAc?$AAl?$AA?$AA@ 100108b4     libucrt:lcidtoname_downlevel.obj
 0002:000038c0       ??_C@_1M@KGPDPBDF@?$AAe?$AAs?$AA?9?$AAc?$AAo?$AA?$AA@ 100108c0     libucrt:lcidtoname_downlevel.obj
 0002:000038cc       ??_C@_1M@EIAHOHH@?$AAe?$AAs?$AA?9?$AAc?$AAr?$AA?$AA@ 100108cc     libucrt:lcidtoname_downlevel.obj
 0002:000038d8       ??_C@_1M@LLPGMBIN@?$AAe?$AAs?$AA?9?$AAd?$AAo?$AA?$AA@ 100108d8     libucrt:lcidtoname_downlevel.obj
 0002:000038e4       ??_C@_1M@DKHMKNJA@?$AAe?$AAs?$AA?9?$AAe?$AAc?$AA?$AA@ 100108e4     libucrt:lcidtoname_downlevel.obj
 0002:000038f0       ??_C@_1M@GKGFPKAP@?$AAe?$AAs?$AA?9?$AAe?$AAs?$AA?$AA@ 100108f0     libucrt:lcidtoname_downlevel.obj
 0002:000038fc       ??_C@_1M@LKHKGDLN@?$AAe?$AAs?$AA?9?$AAg?$AAt?$AA?$AA@ 100108fc     libucrt:lcidtoname_downlevel.obj
 0002:00003908       ??_C@_1M@HEIIGGJD@?$AAe?$AAs?$AA?9?$AAh?$AAn?$AA?$AA@ 10010908     libucrt:lcidtoname_downlevel.obj
 0002:00003914       ??_C@_1M@FBDHPPGD@?$AAe?$AAs?$AA?9?$AAm?$AAx?$AA?$AA@ 10010914     libucrt:lcidtoname_downlevel.obj
 0002:00003920       ??_C@_1M@DPAGLNDH@?$AAe?$AAs?$AA?9?$AAn?$AAi?$AA?$AA@ 10010920     libucrt:lcidtoname_downlevel.obj
 0002:0000392c       ??_C@_1M@MDGOPGDD@?$AAe?$AAs?$AA?9?$AAp?$AAa?$AA?$AA@ 1001092c     libucrt:lcidtoname_downlevel.obj
 0002:00003938       ??_C@_1M@EMAMGBGE@?$AAe?$AAs?$AA?9?$AAp?$AAe?$AA?$AA@ 10010938     libucrt:lcidtoname_downlevel.obj
 0002:00003944       ??_C@_1M@IBMCAOEC@?$AAe?$AAs?$AA?9?$AAp?$AAr?$AA?$AA@ 10010944     libucrt:lcidtoname_downlevel.obj
 0002:00003950       ??_C@_1M@FGMDIJED@?$AAe?$AAs?$AA?9?$AAp?$AAy?$AA?$AA@ 10010950     libucrt:lcidtoname_downlevel.obj
 0002:0000395c       ??_C@_1M@IIDEOLLL@?$AAe?$AAs?$AA?9?$AAs?$AAv?$AA?$AA@ 1001095c     libucrt:lcidtoname_downlevel.obj
 0002:00003968       ??_C@_1M@GAOBIPA@?$AAe?$AAs?$AA?9?$AAu?$AAy?$AA?$AA@ 10010968     libucrt:lcidtoname_downlevel.obj
 0002:00003974       ??_C@_1M@JKFFICHJ@?$AAe?$AAs?$AA?9?$AAv?$AAe?$AA?$AA@ 10010974     libucrt:lcidtoname_downlevel.obj
 0002:00003980       ??_C@_1M@PNMLOJDF@?$AAe?$AAt?$AA?9?$AAe?$AAe?$AA?$AA@ 10010980     libucrt:lcidtoname_downlevel.obj
 0002:0000398c       ??_C@_1M@GHHLIKEI@?$AAe?$AAu?$AA?9?$AAe?$AAs?$AA?$AA@ 1001098c     libucrt:lcidtoname_downlevel.obj
 0002:00003998       ??_C@_1M@PBNONODE@?$AAf?$AAa?$AA?9?$AAi?$AAr?$AA?$AA@ 10010998     libucrt:lcidtoname_downlevel.obj
 0002:000039a4       ??_C@_1M@JEEHPMIL@?$AAf?$AAi?$AA?9?$AAf?$AAi?$AA?$AA@ 100109a4     libucrt:lcidtoname_downlevel.obj
 0002:000039b0       ??_C@_1M@LMDCNDBA@?$AAf?$AAo?$AA?9?$AAf?$AAo?$AA?$AA@ 100109b0     libucrt:lcidtoname_downlevel.obj
 0002:000039bc       ??_C@_1M@JKEOHLDK@?$AAf?$AAr?$AA?9?$AAb?$AAe?$AA?$AA@ 100109bc     libucrt:lcidtoname_downlevel.obj
 0002:000039c8       ??_C@_1M@NOHADPMI@?$AAf?$AAr?$AA?9?$AAc?$AAa?$AA?$AA@ 100109c8     libucrt:lcidtoname_downlevel.obj
 0002:000039d4       ??_C@_1M@KDHIHAEC@?$AAf?$AAr?$AA?9?$AAc?$AAh?$AA?$AA@ 100109d4     libucrt:lcidtoname_downlevel.obj
 0002:000039e0       ??_C@_1M@MMBBFGAK@?$AAf?$AAr?$AA?9?$AAf?$AAr?$AA?$AA@ 100109e0     libucrt:lcidtoname_downlevel.obj
 0002:000039ec       ??_C@_1M@PAFNENNF@?$AAf?$AAr?$AA?9?$AAl?$AAu?$AA?$AA@ 100109ec     libucrt:lcidtoname_downlevel.obj
 0002:000039f8       ??_C@_1M@EOHDJGDD@?$AAf?$AAr?$AA?9?$AAm?$AAc?$AA?$AA@ 100109f8     libucrt:lcidtoname_downlevel.obj
 0002:00003a04       ??_C@_1M@FAPLLOPF@?$AAg?$AAl?$AA?9?$AAe?$AAs?$AA?$AA@ 10010a04     libucrt:lcidtoname_downlevel.obj
 0002:00003a10       ??_C@_1M@FOPBFLOO@?$AAg?$AAu?$AA?9?$AAi?$AAn?$AA?$AA@ 10010a10     libucrt:lcidtoname_downlevel.obj
 0002:00003a1c       ??_C@_1M@KBMCINPM@?$AAh?$AAe?$AA?9?$AAi?$AAl?$AA?$AA@ 10010a1c     libucrt:lcidtoname_downlevel.obj
 0002:00003a28       ??_C@_1M@BBPHKFPJ@?$AAh?$AAi?$AA?9?$AAi?$AAn?$AA?$AA@ 10010a28     libucrt:lcidtoname_downlevel.obj
 0002:00003a34       ??_C@_1M@PMBNDPHD@?$AAh?$AAr?$AA?9?$AAb?$AAa?$AA?$AA@ 10010a34     libucrt:lcidtoname_downlevel.obj
 0002:00003a40       ??_C@_1M@BPCKOEGE@?$AAh?$AAr?$AA?9?$AAh?$AAr?$AA?$AA@ 10010a40     libucrt:lcidtoname_downlevel.obj
 0002:00003a4c       ??_C@_1M@GACBMHKE@?$AAh?$AAu?$AA?9?$AAh?$AAu?$AA?$AA@ 10010a4c     libucrt:lcidtoname_downlevel.obj
 0002:00003a58       ??_C@_1M@MILPAJJC@?$AAh?$AAy?$AA?9?$AAa?$AAm?$AA?$AA@ 10010a58     libucrt:lcidtoname_downlevel.obj
 0002:00003a64       ??_C@_1M@BABBICEC@?$AAi?$AAd?$AA?9?$AAi?$AAd?$AA?$AA@ 10010a64     libucrt:lcidtoname_downlevel.obj
 0002:00003a70       ??_C@_1M@BIKNHHPF@?$AAi?$AAs?$AA?9?$AAi?$AAs?$AA?$AA@ 10010a70     libucrt:lcidtoname_downlevel.obj
 0002:00003a7c       ??_C@_1M@NMPCJPHE@?$AAi?$AAt?$AA?9?$AAc?$AAh?$AA?$AA@ 10010a7c     libucrt:lcidtoname_downlevel.obj
 0002:00003a88       ??_C@_1M@GHKGFEDF@?$AAi?$AAt?$AA?9?$AAi?$AAt?$AA?$AA@ 10010a88     libucrt:lcidtoname_downlevel.obj
 0002:00003a94       ??_C@_1M@NIEJCJJA@?$AAj?$AAa?$AA?9?$AAj?$AAp?$AA?$AA@ 10010a94     libucrt:lcidtoname_downlevel.obj
 0002:00003aa0       ??_C@_1M@JILFNBIM@?$AAk?$AAa?$AA?9?$AAg?$AAe?$AA?$AA@ 10010aa0     libucrt:lcidtoname_downlevel.obj
 0002:00003aac       ??_C@_1M@PACPMGPH@?$AAk?$AAk?$AA?9?$AAk?$AAz?$AA?$AA@ 10010aac     libucrt:lcidtoname_downlevel.obj
 0002:00003ab8       ??_C@_1M@IELFGMHA@?$AAk?$AAn?$AA?9?$AAi?$AAn?$AA?$AA@ 10010ab8     libucrt:lcidtoname_downlevel.obj
 0002:00003ac4       ??_C@_1O@IBBJHCH@?$AAk?$AAo?$AAk?$AA?9?$AAi?$AAn?$AA?$AA@ 10010ac4     libucrt:lcidtoname_downlevel.obj
 0002:00003ad4       ??_C@_1M@DMHAEOGC@?$AAk?$AAo?$AA?9?$AAk?$AAr?$AA?$AA@ 10010ad4     libucrt:lcidtoname_downlevel.obj
 0002:00003ae0       ??_C@_1M@HBAHBIGA@?$AAk?$AAy?$AA?9?$AAk?$AAg?$AA?$AA@ 10010ae0     libucrt:lcidtoname_downlevel.obj
 0002:00003aec       ??_C@_1M@KPMILCJG@?$AAl?$AAt?$AA?9?$AAl?$AAt?$AA?$AA@ 10010aec     libucrt:lcidtoname_downlevel.obj
 0002:00003af8       ??_C@_1M@BDEKKCA@?$AAl?$AAv?$AA?9?$AAl?$AAv?$AA?$AA@ 10010af8     libucrt:lcidtoname_downlevel.obj
 0002:00003b04       ??_C@_1M@ELCKCCJJ@?$AAm?$AAi?$AA?9?$AAn?$AAz?$AA?$AA@ 10010b04     libucrt:lcidtoname_downlevel.obj
 0002:00003b10       ??_C@_1M@CBOOLAPA@?$AAm?$AAk?$AA?9?$AAm?$AAk?$AA?$AA@ 10010b10     libucrt:lcidtoname_downlevel.obj
 0002:00003b1c       ??_C@_1M@GPHNBJKN@?$AAm?$AAl?$AA?9?$AAi?$AAn?$AA?$AA@ 10010b1c     libucrt:lcidtoname_downlevel.obj
 0002:00003b28       ??_C@_1M@PABJILIG@?$AAm?$AAn?$AA?9?$AAm?$AAn?$AA?$AA@ 10010b28     libucrt:lcidtoname_downlevel.obj
 0002:00003b34       ??_C@_1M@FGBKKIPG@?$AAm?$AAr?$AA?9?$AAi?$AAn?$AA?$AA@ 10010b34     libucrt:lcidtoname_downlevel.obj
 0002:00003b40       ??_C@_1M@NDBPDDAL@?$AAm?$AAs?$AA?9?$AAb?$AAn?$AA?$AA@ 10010b40     libucrt:lcidtoname_downlevel.obj
 0002:00003b4c       ??_C@_1M@OPIHOOPI@?$AAm?$AAs?$AA?9?$AAm?$AAy?$AA?$AA@ 10010b4c     libucrt:lcidtoname_downlevel.obj
 0002:00003b58       ??_C@_1M@PPDBCNFM@?$AAm?$AAt?$AA?9?$AAm?$AAt?$AA?$AA@ 10010b58     libucrt:lcidtoname_downlevel.obj
 0002:00003b64       ??_C@_1M@KDJDKMDD@?$AAn?$AAb?$AA?9?$AAn?$AAo?$AA?$AA@ 10010b64     libucrt:lcidtoname_downlevel.obj
 0002:00003b70       ??_C@_1M@KFCFLMJP@?$AAn?$AAl?$AA?9?$AAb?$AAe?$AA?$AA@ 10010b70     libucrt:lcidtoname_downlevel.obj
 0002:00003b7c       ??_C@_1M@KPOPDDGO@?$AAn?$AAl?$AA?9?$AAn?$AAl?$AA?$AA@ 10010b7c     libucrt:lcidtoname_downlevel.obj
 0002:00003b88       ??_C@_1M@LJKPEMLN@?$AAn?$AAn?$AA?9?$AAn?$AAo?$AA?$AA@ 10010b88     libucrt:lcidtoname_downlevel.obj
 0002:00003b94       ??_C@_1M@BDGHHBFL@?$AAn?$AAs?$AA?9?$AAz?$AAa?$AA?$AA@ 10010b94     libucrt:lcidtoname_downlevel.obj
 0002:00003ba0       ??_C@_1M@IDEHOAP@?$AAp?$AAa?$AA?9?$AAi?$AAn?$AA?$AA@ 10010ba0     libucrt:lcidtoname_downlevel.obj
 0002:00003bac       ??_C@_1M@HDBKGOGH@?$AAp?$AAl?$AA?9?$AAp?$AAl?$AA?$AA@ 10010bac     libucrt:lcidtoname_downlevel.obj
 0002:00003bb8       ??_C@_1M@LJLLCMEH@?$AAp?$AAt?$AA?9?$AAb?$AAr?$AA?$AA@ 10010bb8     libucrt:lcidtoname_downlevel.obj
 0002:00003bc4       ??_C@_1M@NCMONAAL@?$AAp?$AAt?$AA?9?$AAp?$AAt?$AA?$AA@ 10010bc4     libucrt:lcidtoname_downlevel.obj
 0002:00003bd0       ??_C@_1O@EAKMAJDN@?$AAq?$AAu?$AAz?$AA?9?$AAb?$AAo?$AA?$AA@ 10010bd0     libucrt:lcidtoname_downlevel.obj
 0002:00003be0       ??_C@_1O@BHHPIGDN@?$AAq?$AAu?$AAz?$AA?9?$AAe?$AAc?$AA?$AA@ 10010be0     libucrt:lcidtoname_downlevel.obj
 0002:00003bf0       ??_C@_1O@GBAPEKMJ@?$AAq?$AAu?$AAz?$AA?9?$AAp?$AAe?$AA?$AA@ 10010bf0     libucrt:lcidtoname_downlevel.obj
 0002:00003c00       ??_C@_1M@CLGLEFBO@?$AAr?$AAo?$AA?9?$AAr?$AAo?$AA?$AA@ 10010c00     libucrt:lcidtoname_downlevel.obj
 0002:00003c0c       ??_C@_1M@CEEDODME@?$AAr?$AAu?$AA?9?$AAr?$AAu?$AA?$AA@ 10010c0c     libucrt:lcidtoname_downlevel.obj
 0002:00003c18       ??_C@_1M@HPKKKMPP@?$AAs?$AAa?$AA?9?$AAi?$AAn?$AA?$AA@ 10010c18     libucrt:lcidtoname_downlevel.obj
 0002:00003c24       ??_C@_1M@BKMAIGOJ@?$AAs?$AAe?$AA?9?$AAf?$AAi?$AA?$AA@ 10010c24     libucrt:lcidtoname_downlevel.obj
 0002:00003c30       ??_C@_1M@NDPIFLFI@?$AAs?$AAe?$AA?9?$AAn?$AAo?$AA?$AA@ 10010c30     libucrt:lcidtoname_downlevel.obj
 0002:00003c3c       ??_C@_1M@DANKKHJ@?$AAs?$AAe?$AA?9?$AAs?$AAe?$AA?$AA@ 10010c3c     libucrt:lcidtoname_downlevel.obj
 0002:00003c48       ??_C@_1M@PNBLONPJ@?$AAs?$AAk?$AA?9?$AAs?$AAk?$AA?$AA@ 10010c48     libucrt:lcidtoname_downlevel.obj
 0002:00003c54       ??_C@_1M@LFMODOAL@?$AAs?$AAl?$AA?9?$AAs?$AAi?$AA?$AA@ 10010c54     libucrt:lcidtoname_downlevel.obj
 0002:00003c60       ??_C@_1O@DFKOMPG@?$AAs?$AAm?$AAa?$AA?9?$AAn?$AAo?$AA?$AA@ 10010c60     libucrt:lcidtoname_downlevel.obj
 0002:00003c70       ??_C@_1O@NDKPBNNH@?$AAs?$AAm?$AAa?$AA?9?$AAs?$AAe?$AA?$AA@ 10010c70     libucrt:lcidtoname_downlevel.obj
 0002:00003c80       ??_C@_1O@PLLKBHAB@?$AAs?$AAm?$AAj?$AA?9?$AAn?$AAo?$AA?$AA@ 10010c80     libucrt:lcidtoname_downlevel.obj
 0002:00003c90       ??_C@_1O@CLEPOGCA@?$AAs?$AAm?$AAj?$AA?9?$AAs?$AAe?$AA?$AA@ 10010c90     libucrt:lcidtoname_downlevel.obj
 0002:00003ca0       ??_C@_1O@DLGJGKMK@?$AAs?$AAm?$AAn?$AA?9?$AAf?$AAi?$AA?$AA@ 10010ca0     libucrt:lcidtoname_downlevel.obj
 0002:00003cb0       ??_C@_1O@OJDJGAJC@?$AAs?$AAm?$AAs?$AA?9?$AAf?$AAi?$AA?$AA@ 10010cb0     libucrt:lcidtoname_downlevel.obj
 0002:00003cc0       ??_C@_1M@BOFOGHPB@?$AAs?$AAq?$AA?9?$AAa?$AAl?$AA?$AA@ 10010cc0     libucrt:lcidtoname_downlevel.obj
 0002:00003ccc       ??_C@_1BG@LJBBIPGB@?$AAs?$AAr?$AA?9?$AAb?$AAa?$AA?9?$AAc?$AAy?$AAr?$AAl?$AA?$AA@ 10010ccc     libucrt:lcidtoname_downlevel.obj
 0002:00003ce4       ??_C@_1BG@JLBENFOE@?$AAs?$AAr?$AA?9?$AAb?$AAa?$AA?9?$AAl?$AAa?$AAt?$AAn?$AA?$AA@ 10010ce4     libucrt:lcidtoname_downlevel.obj
 0002:00003cfc       ??_C@_1BG@KODPNHE@?$AAs?$AAr?$AA?9?$AAs?$AAp?$AA?9?$AAc?$AAy?$AAr?$AAl?$AA?$AA@ 10010cfc     libucrt:lcidtoname_downlevel.obj
 0002:00003d14       ??_C@_1BG@CIOGKHPB@?$AAs?$AAr?$AA?9?$AAs?$AAp?$AA?9?$AAl?$AAa?$AAt?$AAn?$AA?$AA@ 10010d14     libucrt:lcidtoname_downlevel.obj
 0002:00003d2c       ??_C@_1M@NGFJLMAC@?$AAs?$AAv?$AA?9?$AAf?$AAi?$AA?$AA@ 10010d2c     libucrt:lcidtoname_downlevel.obj
 0002:00003d38       ??_C@_1M@MPJEJAJC@?$AAs?$AAv?$AA?9?$AAs?$AAe?$AA?$AA@ 10010d38     libucrt:lcidtoname_downlevel.obj
 0002:00003d44       ??_C@_1M@MPNDHLFK@?$AAs?$AAw?$AA?9?$AAk?$AAe?$AA?$AA@ 10010d44     libucrt:lcidtoname_downlevel.obj
 0002:00003d50       ??_C@_1O@KOHBJJI@?$AAs?$AAy?$AAr?$AA?9?$AAs?$AAy?$AA?$AA@ 10010d50     libucrt:lcidtoname_downlevel.obj
 0002:00003d60       ??_C@_1M@LDCEFHA@?$AAt?$AAa?$AA?9?$AAi?$AAn?$AA?$AA@ 10010d60     libucrt:lcidtoname_downlevel.obj
 0002:00003d6c       ??_C@_1M@CNJOFAK@?$AAt?$AAe?$AA?9?$AAi?$AAn?$AA?$AA@ 10010d6c     libucrt:lcidtoname_downlevel.obj
 0002:00003d78       ??_C@_1M@GNAECACD@?$AAt?$AAh?$AA?9?$AAt?$AAh?$AA?$AA@ 10010d78     libucrt:lcidtoname_downlevel.obj
 0002:00003d84       ??_C@_1M@CHBIHOJO@?$AAt?$AAn?$AA?9?$AAz?$AAa?$AA?$AA@ 10010d84     libucrt:lcidtoname_downlevel.obj
 0002:00003d90       ??_C@_1M@GCCMIGPJ@?$AAt?$AAr?$AA?9?$AAt?$AAr?$AA?$AA@ 10010d90     libucrt:lcidtoname_downlevel.obj
 0002:00003d9c       ??_C@_1M@CELMCNBK@?$AAt?$AAt?$AA?9?$AAr?$AAu?$AA?$AA@ 10010d9c     libucrt:lcidtoname_downlevel.obj
 0002:00003da8       ??_C@_1M@KLMCELGA@?$AAu?$AAk?$AA?9?$AAu?$AAa?$AA?$AA@ 10010da8     libucrt:lcidtoname_downlevel.obj
 0002:00003db4       ??_C@_1M@EPAJJAJF@?$AAu?$AAr?$AA?9?$AAp?$AAk?$AA?$AA@ 10010db4     libucrt:lcidtoname_downlevel.obj
 0002:00003dc0       ??_C@_1BG@GEGPMCDJ@?$AAu?$AAz?$AA?9?$AAu?$AAz?$AA?9?$AAc?$AAy?$AAr?$AAl?$AA?$AA@ 10010dc0     libucrt:lcidtoname_downlevel.obj
 0002:00003dd8       ??_C@_1BG@EGGKJILM@?$AAu?$AAz?$AA?9?$AAu?$AAz?$AA?9?$AAl?$AAa?$AAt?$AAn?$AA?$AA@ 10010dd8     libucrt:lcidtoname_downlevel.obj
 0002:00003df0       ??_C@_1M@GFOCLFF@?$AAv?$AAi?$AA?9?$AAv?$AAn?$AA?$AA@ 10010df0     libucrt:lcidtoname_downlevel.obj
 0002:00003dfc       ??_C@_1M@CPAMEDFI@?$AAx?$AAh?$AA?9?$AAz?$AAa?$AA?$AA@ 10010dfc     libucrt:lcidtoname_downlevel.obj
 0002:00003e08       ??_C@_1O@EBKIFIGN@?$AAz?$AAh?$AA?9?$AAc?$AAh?$AAs?$AA?$AA@ 10010e08     libucrt:lcidtoname_downlevel.obj
 0002:00003e18       ??_C@_1O@NMHPGANE@?$AAz?$AAh?$AA?9?$AAc?$AAh?$AAt?$AA?$AA@ 10010e18     libucrt:lcidtoname_downlevel.obj
 0002:00003e28       ??_C@_1M@LPINJOMC@?$AAz?$AAh?$AA?9?$AAc?$AAn?$AA?$AA@ 10010e28     libucrt:lcidtoname_downlevel.obj
 0002:00003e34       ??_C@_1M@OCJEJODD@?$AAz?$AAh?$AA?9?$AAh?$AAk?$AA?$AA@ 10010e34     libucrt:lcidtoname_downlevel.obj
 0002:00003e40       ??_C@_1M@DNDLJINH@?$AAz?$AAh?$AA?9?$AAm?$AAo?$AA?$AA@ 10010e40     libucrt:lcidtoname_downlevel.obj
 0002:00003e4c       ??_C@_1M@MBFDNDND@?$AAz?$AAh?$AA?9?$AAs?$AAg?$AA?$AA@ 10010e4c     libucrt:lcidtoname_downlevel.obj
 0002:00003e58       ??_C@_1M@IMEPLEPE@?$AAz?$AAh?$AA?9?$AAt?$AAw?$AA?$AA@ 10010e58     libucrt:lcidtoname_downlevel.obj
 0002:00003e64       ??_C@_1M@BBGHNHJP@?$AAz?$AAu?$AA?9?$AAz?$AAa?$AA?$AA@ 10010e64     libucrt:lcidtoname_downlevel.obj
 0002:00003e70       ??_C@_00CNPNBAHC@?$AA@     10010e70     libucrt:mbrtowc.obj
 0002:00003ed8       ??_C@_1BA@BALFACEM@?$AAC?$AAO?$AAN?$AAO?$AAU?$AAT?$AA$?$AA?$AA@ 10010ed8     libucrt:initcon.obj
 0002:00003ff0       __infinity                 10010ff0     libucrt:87tran.obj
 0002:00003ffa       __minfinity                10010ffa     libucrt:87tran.obj
 0002:00004004       __logemax                  10011004     libucrt:87tran.obj
 0002:0000402a       __OP_EXPjmptab             1001102a     libucrt:87tran.obj
 0002:00004050       __indefinite               10011050     libucrt:87disp.obj
 0002:0000405a       __piby2                    1001105a     libucrt:87disp.obj
 0002:00004064       __piby4                    10011064     libucrt:87disp.obj
 0002:00004098       __DEFAULT_CW_in_mem        10011098     libucrt:common.obj
 0002:0000409a       __pi_by_2_to_61            1001109a     libucrt:common.obj
 0002:000040d4       ??_C@_03MGHMBJCF@log?$AA@  100110d4     libucrt:libm_error.obj
 0002:000040d8       ??_C@_05HGHHAHAP@log10?$AA@ 100110d8     libucrt:libm_error.obj
 0002:000040e0       ??_C@_03KHJOGHMM@exp?$AA@  100110e0     libucrt:libm_error.obj
 0002:000040e4       ??_C@_03JGHBODFD@pow?$AA@  100110e4     libucrt:libm_error.obj
 0002:000040e8       ??_C@_04FIHNOPOL@asin?$AA@ 100110e8     libucrt:libm_error.obj
 0002:000040f0       ??_C@_04PDIFKINK@acos?$AA@ 100110f0     libucrt:libm_error.obj
 0002:000040f8       ??_C@_04EIAKFFMI@sqrt?$AA@ 100110f8     libucrt:libm_error.obj
 0002:00004100       __real@3ff0000000000000    10011100     libucrt:libm_error.obj
 0002:00004120       ___acrt_log10_table_t      10011120     libucrt:log10_tables.obj
 0002:00004530       ___acrt_log10_table_cb     10011530     libucrt:log10_tables.obj
 0002:00004940       __real@3fe0000000000000    10011940     libucrt:powhlp.obj
 0002:00004a30       ??_C@_04COOMCNPB@sinh?$AA@ 10011a30     libucrt:fpexcept.obj
 0002:00004a38       ??_C@_04HPJJNFIM@cosh?$AA@ 10011a38     libucrt:fpexcept.obj
 0002:00004a40       ??_C@_04FJHINJAO@tanh?$AA@ 10011a40     libucrt:fpexcept.obj
 0002:00004a48       ??_C@_04MLLJIGOK@atan?$AA@ 10011a48     libucrt:fpexcept.obj
 0002:00004a50       ??_C@_05KNGEOGJB@atan2?$AA@ 10011a50     libucrt:fpexcept.obj
 0002:00004a58       ??_C@_03BLEJJJBH@sin?$AA@  10011a58     libucrt:fpexcept.obj
 0002:00004a5c       ??_C@_03LALBNOCG@cos?$AA@  10011a5c     libucrt:fpexcept.obj
 0002:00004a60       ??_C@_03IIINPABG@tan?$AA@  10011a60     libucrt:fpexcept.obj
 0002:00004a64       ??_C@_04GFPJNGEK@ceil?$AA@ 10011a64     libucrt:fpexcept.obj
 0002:00004a6c       ??_C@_05PBJFFIGL@floor?$AA@ 10011a6c     libucrt:fpexcept.obj
 0002:00004a74       ??_C@_04ODHECPBC@fabs?$AA@ 10011a74     libucrt:fpexcept.obj
 0002:00004a7c       ??_C@_04EHEDPDJG@modf?$AA@ 10011a7c     libucrt:fpexcept.obj
 0002:00004a84       ??_C@_05CEJMAHNP@ldexp?$AA@ 10011a84     libucrt:fpexcept.obj
 0002:00004a8c       ??_C@_05KBKMEMPO@_cabs?$AA@ 10011a8c     libucrt:fpexcept.obj
 0002:00004a94       ??_C@_06MEIMCGCF@_hypot?$AA@ 10011a94     libucrt:fpexcept.obj
 0002:00004a9c       ??_C@_04KEPJIHGP@fmod?$AA@ 10011a9c     libucrt:fpexcept.obj
 0002:00004aa4       ??_C@_05GKKHEGJL@frexp?$AA@ 10011aa4     libucrt:fpexcept.obj
 0002:00004aac       ??_C@_03MJLDFKDL@_y0?$AA@  10011aac     libucrt:fpexcept.obj
 0002:00004ab0       ??_C@_03NAKIGLHK@_y1?$AA@  10011ab0     libucrt:fpexcept.obj
 0002:00004ab4       ??_C@_03ONILCKOB@_yn?$AA@  10011ab4     libucrt:fpexcept.obj
 0002:00004ab8       ??_C@_05JGDBENOH@_logb?$AA@ 10011ab8     libucrt:fpexcept.obj
 0002:00004ac0       ??_C@_0L@KDOEJCKC@_nextafter?$AA@ 10011ac0     libucrt:fpexcept.obj
 0002:00004ad0       __d_inf                    10011ad0     libucrt:util.obj
 0002:00004ad8       __d_max                    10011ad8     libucrt:util.obj
 0002:00004ae0       __d_mzero                  10011ae0     libucrt:util.obj
 0002:00004ae8       ??_C@_1BK@DBDEIDLH@?$AAK?$AAE?$AAR?$AAN?$AAE?$AAL?$AA3?$AA2?$AA?4?$AAD?$AAL?$AAL@ 10011ae8     DelayImp:delayhlp.obj
 0002:00004b04       ??_C@_0BI@OMNLIJDB@AcquireSRWLockExclusive@ 10011b04     DelayImp:delayhlp.obj
 0002:00004b1c       ??_C@_0BI@HMIEPCNJ@ReleaseSRWLockExclusive@ 10011b1c     DelayImp:delayhlp.obj
 0002:00004b34       ___pfnDliFailureHook2      10011b34     DelayImp:delayhk1.obj
 0002:00004b38       __load_config_used         10011b38     LIBCMT:loadcfg.obj
 0002:00004bdc       ??_C@_0BB@DNKCABP@getAsyncKeyState@ 10011bdc     asynckeystate.obj
 0002:00004bf0       ??_C@_0GG@ODLOPNBF@C?3?2Users?2Niklas?5L?$PMbcke?2Desktop?2@ 10011bf0     asynckeystate.obj
 0002:00004c58       ??_C@_05ONJGPJEO@addon@    10011c58     asynckeystate.obj
 0002:00004c60       ??_C@_08JDDNMFDB@node?4exe@ 10011c60     win_delay_load_hook.obj
 0002:00004c6c       ___pfnDliNotifyHook2       10011c6c     win_delay_load_hook.obj
 0002:00004ce0       ___safe_se_handler_table   10011ce0     <linker-defined>
 0002:00005080       ___rtc_iaa                 10012080     LIBCMT:initsect.obj
 0002:00005084       ___rtc_izz                 10012084     LIBCMT:initsect.obj
 0002:00005088       ___rtc_taa                 10012088     LIBCMT:initsect.obj
 0002:0000508c       ___rtc_tzz                 1001208c     LIBCMT:initsect.obj
 0002:0000544c       __DELAY_IMPORT_DESCRIPTOR_node_exe 1001244c     node:node.exe
 0002:0000546c       __NULL_DELAY_IMPORT_DESCRIPTOR 1001246c     node:node.exe
 0002:000054c0       \177node_NULL_THUNK_DATA_DLN 100124c0     node:node.exe
 0002:00005828       \177node_NULL_THUNK_DATA_DLB 10012828     node:node.exe
 0002:000058b8       __IMPORT_DESCRIPTOR_KERNEL32 100128b8     kernel32:KERNEL32.dll
 0002:000058cc       __IMPORT_DESCRIPTOR_USER32 100128cc     user32:USER32.dll
 0002:000058e0       __NULL_IMPORT_DESCRIPTOR   100128e0     kernel32:KERNEL32.dll
 0003:00000000       ___security_cookie_complement 10013000     LIBCMT:gs_cookie.obj
 0003:00000004       ___security_cookie         10013004     LIBCMT:gs_cookie.obj
 0003:00000008       ___scrt_native_dllmain_reason 10013008     LIBCMT:utility.obj
 0003:00000010       ___isa_enabled             10013010     LIBCMT:cpu_disp.obj
 0003:00000030       __NLG_Destination          10013030     libvcruntime:exsup.obj
 0003:00000040       ___abort_behavior          10013040     libucrt:abort.obj
 0003:00000050       ___acrt_initial_locale_data 10013050     libucrt:nlsdata.obj
 0003:00000108       ___acrt_initial_locale_pointers 10013108     libucrt:nlsdata.obj
 0003:00000110       ___acrt_wide_c_locale_string 10013110     libucrt:nlsdata.obj
 0003:00000118       ___acrt_initial_multibyte_data 10013118     libucrt:mbctype.obj
 0003:00000638       __iob                      10013638     libucrt:_file.obj
 0003:000006e0       ___globallocalestatus      100136e0     libucrt:glstatus.obj
 0003:000006e8       ___acrt_lconv_c            100136e8     libucrt:localeconv.obj
 0003:00000738       ___acrt_lconv_static_decimal 10013738     libucrt:localeconv.obj
 0003:0000073c       ___acrt_lconv_static_W_decimal 1001373c     libucrt:localeconv.obj
 0003:00000740       __lookuptrailbytes         10013740     libucrt:read.obj
 0003:00000850       __fltused                  10013850     LIBCMT:fltused.obj
 0003:00000884       __imp_?GetCurrentContext@Isolate@v8@@QAE?AV?$Local@VContext@v8@@@2@XZ 10013884     node:node.exe
 0003:00000888       __imp__node_module_register 10013888     node:node.exe
 0003:0000088c       __imp_?GetCurrent@Isolate@v8@@SAPAV12@XZ 1001388c     node:node.exe
 0003:00000890       __imp_??1HandleScope@v8@@QAE@XZ 10013890     node:node.exe
 0003:00000894       __imp_??0HandleScope@v8@@QAE@PAVIsolate@1@@Z 10013894     node:node.exe
 0003:00000898       __imp_?GetFunction@FunctionTemplate@v8@@QAE?AV?$MaybeLocal@VFunction@v8@@@2@V?$Local@VContext@v8@@@2@@Z 10013898     node:node.exe
 0003:0000089c       __imp_?New@FunctionTemplate@v8@@SA?AV?$Local@VFunctionTemplate@v8@@@2@PAVIsolate@2@P6AXABV?$FunctionCallbackInfo@VValue@v8@@@2@@ZV?$Local@VValue@v8@@@2@V?$Local@VSignature@v8@@@2@HW4ConstructorBehavior@2@W4SideEffectType@2@@Z 1001389c     node:node.exe
 0003:000008a0       __imp_?ToLocalEmpty@V8@v8@@CAXXZ 100138a0     node:node.exe
 0003:000008a4       __imp_?FromJustIsNothing@V8@v8@@CAXXZ 100138a4     node:node.exe
 0003:000008a8       __imp_?IntegerValue@Value@v8@@QBE_JXZ 100138a8     node:node.exe
 0003:000008ac       __imp_?NewFromUtf8@String@v8@@SA?AV?$MaybeLocal@VString@v8@@@2@PAVIsolate@2@PBDW4NewStringType@2@H@Z 100138ac     node:node.exe
 0003:000008b0       __imp_?Set@Object@v8@@QAE?AV?$Maybe@_N@2@V?$Local@VContext@v8@@@2@V?$Local@VValue@v8@@@2@1@Z 100138b0     node:node.exe
 0003:000008b4       __imp_?SetName@Function@v8@@QAEXV?$Local@VString@v8@@@2@@Z 100138b4     node:node.exe
 0003:000008b8       \177node_NULL_THUNK_DATA_DLA 100138b8     node:node.exe
 0003:000008c0       __hmod__node_exe           100138c0     node:node.exe
 0003:00000be8       ?__type_info_root_node@@3U__type_info_node@@A 10013be8     LIBCMT:tncleanup.obj
 0003:00000bf0       ?_OptionsStorage@?1??__local_stdio_printf_options@@9@4_KA 10013bf0     LIBCMT:default_local_stdio_options.obj
 0003:00000bf8       ?_OptionsStorage@?1??__local_stdio_scanf_options@@9@4_KA 10013bf8     LIBCMT:default_local_stdio_options.obj
 0003:00000c00       ___scrt_current_native_startup_state 10013c00     LIBCMT:utility.obj
 0003:00000c04       ___scrt_native_startup_lock 10013c04     LIBCMT:utility.obj
 0003:00000c24       ___scrt_debugger_hook_flag 10013c24     LIBCMT:utility_desktop.obj
 0003:00000c28       ___isa_available           10013c28     LIBCMT:cpu_disp.obj
 0003:00000c2c       ___favor                   10013c2c     LIBCMT:cpu_disp.obj
 0003:00000c30       ?pArgList@UnDecorator@@0PAVReplicator@@A 10013c30     libvcruntime:undname.obj
 0003:00000c34       ?pZNameList@UnDecorator@@0PAVReplicator@@A 10013c34     libvcruntime:undname.obj
 0003:00000c38       ?pTemplateArgList@UnDecorator@@0PAVReplicator@@A 10013c38     libvcruntime:undname.obj
 0003:00000c3c       ?gName@UnDecorator@@0PBDB  10013c3c     libvcruntime:undname.obj
 0003:00000c40       ?name@UnDecorator@@0PBDB   10013c40     libvcruntime:undname.obj
 0003:00000c44       ?disableFlags@UnDecorator@@0KA 10013c44     libvcruntime:undname.obj
 0003:00000c48       ?fExplicitTemplateParams@UnDecorator@@0_NA 10013c48     libvcruntime:undname.obj
 0003:00000c49       ?fGetTemplateArgumentList@UnDecorator@@0_NA 10013c49     libvcruntime:undname.obj
 0003:00000c4c       ?m_pGetParameter@UnDecorator@@0P6APADJ@ZA 10013c4c     libvcruntime:undname.obj
 0003:00000c50       ?m_CHPENameOffset@UnDecorator@@0KA 10013c50     libvcruntime:undname.obj
 0003:00000c54       ?m_recursionLevel@UnDecorator@@0KA 10013c54     libvcruntime:undname.obj
 0003:00000cd0       ___pPurecall               10013cd0     libvcruntime:purevirt_data.obj
 0003:00000cd4       ?__WinRTOutOfMemoryExceptionCallback@@3P6GPAXXZA 10013cd4     libvcruntime:ehhelpers.obj
 0003:00000ce0       ?c_exit_complete@?1???R<lambda_6e4b09c48022b2350581041d5f6b0c4c>@@QBE@XZ@4_NA 10013ce0     libucrt:exit.obj
 0003:00000df0       __environ_table            10013df0     libucrt:environment_initialization.obj
 0003:00000df4       __wenviron_table           10013df4     libucrt:environment_initialization.obj
 0003:00000df8       ___dcrt_initial_wide_environment 10013df8     libucrt:environment_initialization.obj
 0003:00000dfc       ___dcrt_initial_narrow_environment 10013dfc     libucrt:environment_initialization.obj
 0003:00000e00       ___acrt_atexit_table       10013e00     libucrt:onexit.obj
 0003:00000e0c       ___acrt_at_quick_exit_table 10013e0c     libucrt:onexit.obj
 0003:00000e1c       ___acrt_locale_changed_data 10013e1c     libucrt:wsetlocale.obj
 0003:00000e20       ___acrt_current_locale_data 10013e20     libucrt:nlsdata.obj
 0003:00000f7c       ___acrt_current_multibyte_data 10013f7c     libucrt:mbctype.obj
 0003:00000f80       __mbctype                  10013f80     libucrt:mbctype.obj
 0003:00000f84       __mbcasemap                10013f84     libucrt:mbctype.obj
 0003:00000f90       __pgmptr                   10013f90     libucrt:argv_data.obj
 0003:00000f94       ___argc                    10013f94     libucrt:argv_data.obj
 0003:00000f98       ___argv                    10013f98     libucrt:argv_data.obj
 0003:00000f9c       ___wargv                   10013f9c     libucrt:argv_data.obj
 0003:00000fa0       __acmdln                   10013fa0     libucrt:argv_data.obj
 0003:00000fa4       __wcmdln                   10013fa4     libucrt:argv_data.obj
 0003:00000fa8       ___pioinfo                 10013fa8     libucrt:ioinit.obj
 0003:000011a8       __nhandle                  100141a8     libucrt:ioinit.obj
 0003:00001288       ___acrt_heap               10014288     libucrt:heap_handle.obj
 0003:000012a4       __nstream                  100142a4     libucrt:_file.obj
 0003:000012a8       ___piob                    100142a8     libucrt:_file.obj
 0003:000012ac       ___acrt_stdout_buffer      100142ac     libucrt:_sftbuf.obj
 0003:000012b0       ___acrt_stderr_buffer      100142b0     libucrt:_sftbuf.obj
 0003:000012bc       ___acrt_lconv_static_null  100142bc     libucrt:localeconv.obj
 0003:000012c0       ___acrt_lconv_static_W_null 100142c0     libucrt:localeconv.obj
 0003:000012d4       ___fastflag                100142d4     libucrt:fp_flags.obj
 0003:000012dc       ?DloadKernel32@@3PAUHINSTANCE__@@A 100142dc     DelayImp:delayhlp.obj
 0003:000012e0       ?DloadAcquireSRWLockExclusive@@3P6GXPAK@ZA 100142e0     DelayImp:delayhlp.obj
 0003:000012e4       ?DloadReleaseSRWLockExclusive@@3P6GXPAK@ZA 100142e4     DelayImp:delayhlp.obj
 0003:000012e8       ?DloadSrwLock@@3KA         100142e8     DelayImp:delayhlp.obj
 0003:000012ec       ?DloadSectionLockCount@@3KA 100142ec     DelayImp:delayhlp.obj
 0003:000012f0       ?DloadSectionOldProtection@@3KA 100142f0     DelayImp:delayhlp.obj
 0003:000012f4       ?DloadSectionCommitPermanent@@3KA 100142f4     DelayImp:delayhlp.obj
 0003:000012f8       ___scrt_ucrt_dll_is_in_use 100142f8     <common>
 0003:000012fc       ___dyn_tls_init_callback   100142fc     <common>
 0003:00001300       __pmatherr                 10014300     <common>
 0003:00001304       ___use_sse2_mathfcns       10014304     <common>

 entry point at        0001:0000052d

 Static symbols

 0000:fffe9000       .debug$S                   10000000     kernel32:KERNEL32.dll
 0000:fffe9000       .debug$S                   10000000     kernel32:KERNEL32.dll
 0000:fffe9000       .debug$S                   10000000     node:node.exe
 0000:fffe9000       .debug$S                   10000000     kernel32:KERNEL32.dll
 0000:fffe9000       .debug$S                   10000000     node:node.exe
 0000:fffe9000       .debug$S                   10000000     node:node.exe
 0000:fffe9000       .debug$S                   10000000     node:node.exe
 0000:fffe9000       .debug$S                   10000000     kernel32:KERNEL32.dll
 0000:fffe9000       .debug$S                   10000000     kernel32:KERNEL32.dll
 0000:fffe9000       .debug$S                   10000000     asynckeystate.exp
 0000:fffe9000       .debug$S                   10000000     node:node.exe
 0000:fffe9000       .debug$S                   10000000     kernel32:KERNEL32.dll
 0000:fffe9000       .debug$S                   10000000     kernel32:KERNEL32.dll
 0000:fffe9000       .debug$S                   10000000     kernel32:KERNEL32.dll
 0000:fffe9000       .debug$S                   10000000     kernel32:KERNEL32.dll
 0000:fffe9000       .debug$S                   10000000     kernel32:KERNEL32.dll
 0000:fffe9000       .debug$S                   10000000     user32:USER32.dll
 0000:fffe9000       .debug$S                   10000000     node:node.exe
 0000:fffe9000       .debug$S                   10000000     kernel32:KERNEL32.dll
 0000:fffe9000       .debug$S                   10000000     node:node.exe
 0000:fffe9000       .debug$S                   10000000     node:node.exe
 0000:fffe9000       .debug$S                   10000000     node:node.exe
 0000:fffe9000       .debug$S                   10000000     node:node.exe
 0000:fffe9000       .debug$S                   10000000     node:node.exe
 0000:fffe9000       .debug$S                   10000000     node:node.exe
 0000:fffe9000       .debug$S                   10000000     node:node.exe
 0000:fffe9000       .debug$S                   10000000     kernel32:KERNEL32.dll
 0000:fffe9000       .debug$S                   10000000     kernel32:KERNEL32.dll
 0000:fffe9000       .debug$S                   10000000     kernel32:KERNEL32.dll
 0000:fffe9000       .debug$S                   10000000     kernel32:KERNEL32.dll
 0000:fffe9000       .debug$S                   10000000     kernel32:KERNEL32.dll
 0000:fffe9000       .debug$S                   10000000     kernel32:KERNEL32.dll
 0000:fffe9000       .debug$S                   10000000     kernel32:KERNEL32.dll
 0000:fffe9000       .debug$S                   10000000     kernel32:KERNEL32.dll
 0000:fffe9000       .debug$S                   10000000     kernel32:KERNEL32.dll
 0000:fffe9000       .debug$S                   10000000     kernel32:KERNEL32.dll
 0000:fffe9000       .debug$S                   10000000     node:node.exe
 0000:fffe9000       .debug$S                   10000000     kernel32:KERNEL32.dll
 0000:fffe9000       .debug$S                   10000000     kernel32:KERNEL32.dll
 0000:fffe9000       .debug$S                   10000000     kernel32:KERNEL32.dll
 0000:fffe9000       .debug$S                   10000000     kernel32:KERNEL32.dll
 0000:fffe9000       .debug$S                   10000000     kernel32:KERNEL32.dll
 0000:fffe9000       .debug$S                   10000000     kernel32:KERNEL32.dll
 0000:fffe9000       .debug$S                   10000000     kernel32:KERNEL32.dll
 0000:fffe9000       .debug$S                   10000000     kernel32:KERNEL32.dll
 0000:fffe9000       .debug$S                   10000000     kernel32:KERNEL32.dll
 0000:fffe9000       .debug$S                   10000000     kernel32:KERNEL32.dll
 0000:fffe9000       .debug$S                   10000000     kernel32:KERNEL32.dll
 0000:fffe9000       .debug$S                   10000000     kernel32:KERNEL32.dll
 0000:fffe9000       .debug$S                   10000000     kernel32:KERNEL32.dll
 0000:fffe9000       .debug$S                   10000000     kernel32:KERNEL32.dll
 0000:fffe9000       .debug$S                   10000000     kernel32:KERNEL32.dll
 0000:fffe9000       .debug$S                   10000000     kernel32:KERNEL32.dll
 0000:fffe9000       .debug$S                   10000000     kernel32:KERNEL32.dll
 0000:fffe9000       .debug$S                   10000000     kernel32:KERNEL32.dll
 0000:fffe9000       .debug$S                   10000000     kernel32:KERNEL32.dll
 0000:fffe9000       .debug$S                   10000000     kernel32:KERNEL32.dll
 0000:fffe9000       .debug$S                   10000000     kernel32:KERNEL32.dll
 0000:fffe9000       .debug$S                   10000000     kernel32:KERNEL32.dll
 0000:fffe9000       .debug$S                   10000000     kernel32:KERNEL32.dll
 0000:fffe9000       .debug$S                   10000000     kernel32:KERNEL32.dll
 0000:fffe9000       .debug$S                   10000000     kernel32:KERNEL32.dll
 0000:fffe9000       .debug$S                   10000000     kernel32:KERNEL32.dll
 0000:fffe9000       .debug$S                   10000000     kernel32:KERNEL32.dll
 0000:fffe9000       .debug$S                   10000000     kernel32:KERNEL32.dll
 0000:fffe9000       .debug$S                   10000000     kernel32:KERNEL32.dll
 0000:fffe9000       .debug$S                   10000000     kernel32:KERNEL32.dll
 0000:fffe9000       .debug$S                   10000000     kernel32:KERNEL32.dll
 0000:fffe9000       .debug$S                   10000000     kernel32:KERNEL32.dll
 0000:fffe9000       .debug$S                   10000000     kernel32:KERNEL32.dll
 0000:fffe9000       .debug$S                   10000000     kernel32:KERNEL32.dll
 0000:fffe9000       .debug$S                   10000000     kernel32:KERNEL32.dll
 0000:fffe9000       .debug$S                   10000000     kernel32:KERNEL32.dll
 0000:fffe9000       .debug$S                   10000000     kernel32:KERNEL32.dll
 0000:fffe9000       .debug$S                   10000000     kernel32:KERNEL32.dll
 0000:fffe9000       .debug$S                   10000000     kernel32:KERNEL32.dll
 0000:fffe9000       .debug$S                   10000000     kernel32:KERNEL32.dll
 0000:fffe9000       .debug$S                   10000000     kernel32:KERNEL32.dll
 0000:fffe9000       .debug$S                   10000000     kernel32:KERNEL32.dll
 0000:fffe9000       .debug$S                   10000000     kernel32:KERNEL32.dll
 0000:fffe9000       .debug$S                   10000000     kernel32:KERNEL32.dll
 0000:fffe9000       .debug$S                   10000000     kernel32:KERNEL32.dll
 0000:fffe9000       .debug$S                   10000000     kernel32:KERNEL32.dll
 0000:fffe9000       .debug$S                   10000000     kernel32:KERNEL32.dll
 0000:fffe9000       .debug$S                   10000000     kernel32:KERNEL32.dll
 0000:fffe9000       .debug$S                   10000000     kernel32:KERNEL32.dll
 0000:fffe9000       .debug$S                   10000000     kernel32:KERNEL32.dll
 0000:fffe9000       .debug$S                   10000000     kernel32:KERNEL32.dll
 0000:fffe9000       .debug$S                   10000000     kernel32:KERNEL32.dll
 0000:fffe9000       .debug$S                   10000000     kernel32:KERNEL32.dll
 0000:fffe9000       .debug$S                   10000000     kernel32:KERNEL32.dll
 0000:fffe9000       .debug$S                   10000000     kernel32:KERNEL32.dll
 0000:fffe9000       .debug$S                   10000000     kernel32:KERNEL32.dll
 0000:fffe9000       .debug$S                   10000000     kernel32:KERNEL32.dll
 0000:fffe9000       .debug$S                   10000000     kernel32:KERNEL32.dll
 0000:fffe9000       .debug$S                   10000000     kernel32:KERNEL32.dll
 0000:fffe9000       .debug$S                   10000000     kernel32:KERNEL32.dll
 0000:fffe9000       .debug$S                   10000000     kernel32:KERNEL32.dll
 0000:fffe9000       .debug$S                   10000000     kernel32:KERNEL32.dll
 0000:fffe9000       .debug$S                   10000000     kernel32:KERNEL32.dll
 0000:fffe9000       .debug$S                   10000000     kernel32:KERNEL32.dll
 0001:00000130       __register_addon           10001130 f   asynckeystate.obj
 0001:00000140       ?load_exe_hook@@YGP6GHXZIPAUDelayLoadInfo@@@Z 10001140 f   win_delay_load_hook.obj
 0001:00000212       ?dllmain_crt_dispatch@@YGHQAUHINSTANCE__@@KQAX@Z 10001212 f   LIBCMT:dll_dllmain.obj
 0001:00000265       ?dllmain_crt_process_attach@@YAHQAUHINSTANCE__@@QAX@Z 10001265 f   LIBCMT:dll_dllmain.obj
 0001:0000036c       ?dllmain_crt_process_detach@@YAH_N@Z 1000136c f   LIBCMT:dll_dllmain.obj
 0001:000003fc       ?dllmain_dispatch@@YAHQAUHINSTANCE__@@KQAX@Z 100013fc f   LIBCMT:dll_dllmain.obj
 0001:00000502       ?dllmain_raw@@YGHQAUHINSTANCE__@@KQAX@Z 10001502 f   LIBCMT:dll_dllmain.obj
 0001:00000671       ___get_entropy             10001671 f   LIBCMT:gs_support.obj
 0001:00000750       ?find_pe_section@@YAPAU_IMAGE_SECTION_HEADER@@QAEI@Z 10001750 f   LIBCMT:utility.obj
 0001:00000bb0       $$000000                   10001bb0     LIBCMT:sehprolg4.obj
 0001:00000dc0       _ValidateLocalCookies      10001dc0 f   libvcruntime:chandler4.obj
 0001:00000fe0       $$000000                   10001fe0     libvcruntime:memset.obj
 0001:00001140       $$000000                   10002140     libvcruntime:exsup4.obj
 0001:000011d0       __unwind_handler4          100021d0 f   libvcruntime:exsup4.obj
 0001:000014b0       $$000000                   100024b0     libvcruntime:exsup.obj
 0001:000014d1       __unwind_handler           100024d1 f   libvcruntime:exsup.obj
 0001:000015f0       $$000000                   100025f0     libvcruntime:memcpy.obj
 0001:00001854       TrailingUpVec              10002854     libvcruntime:memcpy.obj
 0001:00001900       TrailingDownVec            10002900     libvcruntime:memcpy.obj
 0001:00001b64       ?try_get_first_available_module@@YAPAUHINSTANCE__@@QBW4module_id@?A0xf001bd2f@@0@Z 10002b64 f   libvcruntime:winapi_downlevel.obj
 0001:00001c10       ?try_get_function@@YAPAXW4function_id@?A0xf001bd2f@@QBDQBW4module_id@2@2@Z 10002c10 f   libvcruntime:winapi_downlevel.obj
 0001:00001d90       $$000000                   10002d90     libvcruntime:lowhelpr.obj
 0001:00001e90       $$000000                   10002e90     libvcruntime:memmove.obj
 0001:000020f4       TrailingUpVec              100030f4     libvcruntime:memmove.obj
 0001:000021a0       TrailingDownVec            100031a0     libvcruntime:memmove.obj
 0001:00002794       ??$?RV<lambda_03b1d95aef87969028cfba75ccab2455>@@AAV<lambda_6e4b09c48022b2350581041d5f6b0c4c>@@V<lambda_22bdf7517842c4b3e53723af5aa32b9e>@@@?$__crt_seh_guarded_call@X@@QAEX$$QAV<lambda_03b1d95aef87969028cfba75ccab2455>@@AAV<lambda_6e4b09c48022b2350581041d5f6b0c4c>@@$$QAV<lambda_22bdf7517842c4b3e53723af5aa32b9e>@@@Z 10003794 f   libucrt:exit.obj
 0001:000027d7       ??R<lambda_6e4b09c48022b2350581041d5f6b0c4c>@@QBE@XZ 100037d7 f   libucrt:exit.obj
 0001:000028a7       ?atexit_exception_filter@@YAHK@Z 100038a7 f   libucrt:exit.obj
 0001:000028ba       ?common_exit@@YAXHW4_crt_exit_cleanup_mode@@W4_crt_exit_return_mode@@@Z 100038ba f   libucrt:exit.obj
 0001:00002920       ?exit_or_terminate_process@@YAXI@Z 10003920 f   libucrt:exit.obj
 0001:00002962       ?is_managed_app@@YA_NXZ    10003962 f   libucrt:exit.obj
 0001:000029a5       ?try_cor_exit_process@@YAXI@Z 100039a5 f   libucrt:exit.obj
 0001:00002a35       ??$common_configure_argv@D@@YAHW4_crt_argv_mode@@@Z 10003a35 f   libucrt:argv_parsing.obj
 0001:00002b6d       ??$parse_command_line@D@@YAXPADPAPAD0PAI2@Z 10003b6d f   libucrt:argv_parsing.obj
 0001:00002d40       ??$common_initialize_environment_nolock@D@@YAHXZ 10003d40 f   libucrt:environment_initialization.obj
 0001:00002d93       ??$create_environment@D@@YAQAPADQAD@Z 10003d93 f   libucrt:environment_initialization.obj
 0001:00002e65       ??$free_environment@D@@YAXQAPAD@Z 10003e65 f   libucrt:environment_initialization.obj
 0001:00002e65       ??$free_environment@_W@@YAXQAPA_W@Z 10003e65 f   libucrt:environment_initialization.obj
 0001:00002ebd       ??$uninitialize_environment_internal@D@@YAXAAPAPAD@Z 10003ebd f   libucrt:environment_initialization.obj
 0001:00002ed8       ??$uninitialize_environment_internal@_W@@YAXAAPAPA_W@Z 10003ed8 f   libucrt:environment_initialization.obj
 0001:00002f2f       ??$?RV<lambda_69a2805e680e0e292e8ba93315fe43a8>@@AAV<lambda_f03950bc5685219e0bcd2087efbe011e>@@V<lambda_03fcd07e894ec930e3f35da366ca99d6>@@@?$__crt_seh_guarded_call@H@@QAEH$$QAV<lambda_69a2805e680e0e292e8ba93315fe43a8>@@AAV<lambda_f03950bc5685219e0bcd2087efbe011e>@@$$QAV<lambda_03fcd07e894ec930e3f35da366ca99d6>@@@Z 10003f2f f   libucrt:onexit.obj
 0001:00002f80       ??R<lambda_f03950bc5685219e0bcd2087efbe011e>@@QBEHXZ 10003f80 f   libucrt:onexit.obj
 0001:000030b4       _initialize_global_variables 100040b4 f   libucrt:initialization.obj
 0001:000030c1       _initialize_c              100040c1 f   libucrt:initialization.obj
 0001:000030db       _initialize_environment    100040db f   libucrt:initialization.obj
 0001:000030db       _uninitialize_c            100040db f   libucrt:initialization.obj
 0001:000030db       _initialize_global_state_isolation 100040db f   libucrt:initialization.obj
 0001:000030db       _report_memory_leaks       100040db f   libucrt:initialization.obj
 0001:000030db       _uninitialize_global_state_isolation 100040db f   libucrt:initialization.obj
 0001:000030de       _uninitialize_environment  100040de f   libucrt:initialization.obj
 0001:000030e6       _initialize_pointers       100040e6 f   libucrt:initialization.obj
 0001:00003114       _uninitialize_vcruntime    10004114 f   libucrt:initialization.obj
 0001:0000311d       _uninitialize_allocated_memory 1000411d f   libucrt:initialization.obj
 0001:00003136       _uninitialize_allocated_io_buffers 10004136 f   libucrt:initialization.obj
 0001:000031a5       ??R<lambda_af42a3ee9806e9a7305d451646e05244>@@QBEXAAPAU__crt_multibyte_data@@@Z 100041a5 f   libucrt:initialization.obj
 0001:00003370       $$000000                   10004370     libucrt:strncmp.obj
 0001:00003663       ??$common_tox_l@$1?internal_isupper_l@@YA_NHQAU__crt_locale_pointers@@@Z$1?internal_map_lower@@YAHH0@Z@@YAHHKQAU__crt_locale_pointers@@@Z 10004663 f   libucrt:tolower_toupper.obj
 0001:000037aa       ?internal_isupper_l@@YA_NHQAU__crt_locale_pointers@@@Z 100047aa f   libucrt:tolower_toupper.obj
 0001:0000386c       ??$?RV<lambda_15ade71b0218206bbe3333a0c9b79046>@@AAV<lambda_da44e0f8b0f19ba52fefafb335991732>@@V<lambda_207f2d024fc103971653565357d6cd41>@@@?$__crt_seh_guarded_call@X@@QAEX$$QAV<lambda_15ade71b0218206bbe3333a0c9b79046>@@AAV<lambda_da44e0f8b0f19ba52fefafb335991732>@@$$QAV<lambda_207f2d024fc103971653565357d6cd41>@@@Z 1000486c f   libucrt:per_thread_data.obj
 0001:000038b4       ??$?RV<lambda_38edbb1296d33220d7e4dd0ed76b244a>@@AAV<lambda_5ce1d447e08cb34b2473517608e21441>@@V<lambda_fb385d3da700c9147fc39e65dd577a8c>@@@?$__crt_seh_guarded_call@X@@QAEX$$QAV<lambda_38edbb1296d33220d7e4dd0ed76b244a>@@AAV<lambda_5ce1d447e08cb34b2473517608e21441>@@$$QAV<lambda_fb385d3da700c9147fc39e65dd577a8c>@@@Z 100048b4 f   libucrt:per_thread_data.obj
 0001:00003915       ??$?RV<lambda_6affb1475c98b40b75cdec977db92e3c>@@AAV<lambda_b8d4b9c228a6ecc3f80208dbb4b4a104>@@V<lambda_608742c3c92a14382c1684fc64f96c88>@@@?$__crt_seh_guarded_call@X@@QAEX$$QAV<lambda_6affb1475c98b40b75cdec977db92e3c>@@AAV<lambda_b8d4b9c228a6ecc3f80208dbb4b4a104>@@$$QAV<lambda_608742c3c92a14382c1684fc64f96c88>@@@Z 10004915 f   libucrt:per_thread_data.obj
 0001:00003960       ??$?RV<lambda_a7e850c220f1c8d1e6efeecdedd162c6>@@AAV<lambda_46720907175c18b6c9d2717bc0d2d362>@@V<lambda_9048902d66e8d99359bc9897bbb930a8>@@@?$__crt_seh_guarded_call@X@@QAEX$$QAV<lambda_a7e850c220f1c8d1e6efeecdedd162c6>@@AAV<lambda_46720907175c18b6c9d2717bc0d2d362>@@$$QAV<lambda_9048902d66e8d99359bc9897bbb930a8>@@@Z 10004960 f   libucrt:per_thread_data.obj
 0001:000039b0       ?construct_ptd@@YAXQAU__acrt_ptd@@QAPAU__crt_locale_data@@@Z 100049b0 f   libucrt:per_thread_data.obj
 0001:00003a4b       ?destroy_fls@@YGXPAX@Z     10004a4b f   libucrt:per_thread_data.obj
 0001:00003a6c       ?destroy_ptd@@YAXQAU__acrt_ptd@@@Z 10004a6c f   libucrt:per_thread_data.obj
 0001:00003b3b       ?replace_current_thread_locale_nolock@@YAXQAU__acrt_ptd@@QAU__crt_locale_data@@@Z 10004b3b f   libucrt:per_thread_data.obj
 0001:00003e5e       ??$?RV<lambda_e5124f882df8998aaf41531e079ba474>@@AAV<lambda_3e16ef9562a7dcce91392c22ab16ea36>@@V<lambda_e25ca0880e6ef98be67edffd8c599615>@@@?$__crt_seh_guarded_call@X@@QAEX$$QAV<lambda_e5124f882df8998aaf41531e079ba474>@@AAV<lambda_3e16ef9562a7dcce91392c22ab16ea36>@@$$QAV<lambda_e25ca0880e6ef98be67edffd8c599615>@@@Z 10004e5e f   libucrt:wsetlocale.obj
 0001:00004060       ?<lambda_invoker_cdecl>@<lambda_86056e3c024bff449830248dc1621ed2>@@CAHPBX0@Z 10005060 f   libucrt:argv_wildcards.obj
 0001:00004078       ??$__acrt_convert_wcs_mbs_cp@D_WV<lambda_62f6974d9771e494a5ea317cc32e971c>@@U__crt_win32_buffer_internal_dynamic_resizing@@@@YAHQBDAAV?$__crt_win32_buffer@_WU__crt_win32_buffer_internal_dynamic_resizing@@@@ABV<lambda_62f6974d9771e494a5ea317cc32e971c>@@I@Z 10005078 f   libucrt:argv_wildcards.obj
 0001:0000412a       ??$__acrt_convert_wcs_mbs_cp@_WDV<lambda_28bda7af82a03b66c1cb3803a755f95d>@@U__crt_win32_buffer_internal_dynamic_resizing@@@@YAHQB_WAAV?$__crt_win32_buffer@DU__crt_win32_buffer_internal_dynamic_resizing@@@@ABV<lambda_28bda7af82a03b66c1cb3803a755f95d>@@I@Z 1000512a f   libucrt:argv_wildcards.obj
 0001:00004218       ??$common_expand_argv_wildcards@D@@YAHQAPADQAPAPAD@Z 10005218 f   libucrt:argv_wildcards.obj
 0001:00004409       ??$copy_and_add_argument_to_buffer@D@@YAHQBD0IAAV?$argument_list@D@?A0x5f5c8891@@@Z 10005409 f   libucrt:argv_wildcards.obj
 0001:000044bc       ??$expand_argument_wildcards@D@@YAHQAD0AAV?$argument_list@D@?A0x5f5c8891@@@Z 100054bc f   libucrt:argv_wildcards.obj
 0001:0000480a       ?expand_if_necessary@?$argument_list@D@?A0x5f5c8891@@AAEHXZ 1000580a f   libucrt:argv_wildcards.obj
 0001:0000489c       ??$__acrt_convert_wcs_mbs_cp@_WDV<lambda_0fec1a7b3f42a53036604e18c2d5e07e>@@U__crt_win32_buffer_no_resizing@@@@YAHQB_WAAV?$__crt_win32_buffer@DU__crt_win32_buffer_no_resizing@@@@ABV<lambda_0fec1a7b3f42a53036604e18c2d5e07e>@@I@Z 1000589c f   libucrt:getmodulefilenamea.obj
 0001:00004a41       ??$?RV<lambda_ceb1ee4838e85a9d631eb091e2fbe199>@@AAV<lambda_ae742caa10f662c28703da3d2ea5e57e>@@V<lambda_cd08b5d6af4937fe54fc07d0c9bf6b37>@@@?$__crt_seh_guarded_call@X@@QAEX$$QAV<lambda_ceb1ee4838e85a9d631eb091e2fbe199>@@AAV<lambda_ae742caa10f662c28703da3d2ea5e57e>@@$$QAV<lambda_cd08b5d6af4937fe54fc07d0c9bf6b37>@@@Z 10005a41 f   libucrt:mbctype.obj
 0001:00004a84       ??R<lambda_ae742caa10f662c28703da3d2ea5e57e>@@QBEXXZ 10005a84 f   libucrt:mbctype.obj
 0001:00004b07       ?CPtoLocaleName@@YAPB_WH@Z 10005b07 f   libucrt:mbctype.obj
 0001:00004b45       ?getSystemCP@@YAHH@Z       10005b45 f   libucrt:mbctype.obj
 0001:00004bb8       ?setSBCS@@YAXPAU__crt_multibyte_data@@@Z 10005bb8 f   libucrt:mbctype.obj
 0001:00004c1d       ?setSBUpLow@@YAXPAU__crt_multibyte_data@@@Z 10005c1d f   libucrt:mbctype.obj
 0001:00004da0       ?setmbcp_internal@@YAHH_NQAU__acrt_ptd@@QAPAU__crt_multibyte_data@@@Z 10005da0 f   libucrt:mbctype.obj
 0001:00004ebb       ?update_thread_multibyte_data_internal@@YAPAU__crt_multibyte_data@@QAU__acrt_ptd@@QAPAU1@@Z 10005ebb f   libucrt:mbctype.obj
 0001:000051a1       _memcpy_s                  100061a1 f   libucrt:mbctype.obj
 0001:00005222       ?x_ismbbtype_l@@YAHPAU__crt_locale_pointers@@IHH@Z 10006222 f   libucrt:ismbbyte.obj
 0001:000053d5       ?find_end_of_double_null_terminated_sequence@@YAPB_WQB_W@Z 100063d5 f   libucrt:get_environment_from_os.obj
 0001:000054ff       ?initialize_inherited_file_handles_nolock@@YAXXZ 100064ff f   libucrt:ioinit.obj
 0001:000055b7       ?initialize_stdio_handles_nolock@@YAXXZ 100065b7 f   libucrt:ioinit.obj
 0001:000056ed       ?try_get_AreFileApisANSI@@YAP6GHXZXZ 100066ed f   libucrt:winapi_thunks.obj
 0001:00005707       ?try_get_LCMapStringEx@@YAP6GHPB_WK0HPA_WHPAU_nlsversioninfo@@PAXJ@ZXZ 10006707 f   libucrt:winapi_thunks.obj
 0001:00005721       ?try_get_LocaleNameToLCID@@YAP6GKPB_WK@ZXZ 10006721 f   libucrt:winapi_thunks.obj
 0001:0000573b       ?try_get_first_available_module@@YAPAUHINSTANCE__@@QBW4module_id@?A0x391cf84c@@0@Z 1000673b f   libucrt:winapi_thunks.obj
 0001:00005804       ?try_get_function@@YAPAXW4function_id@?A0x391cf84c@@QBDQBW4module_id@2@2@Z 10006804 f   libucrt:winapi_thunks.obj
 0001:00005c61       ??$?RV<lambda_cbab9ec6f41b0180b23cc171c22676b0>@@AAV<lambda_44731a7d0e6d81c3e6aa82d741081786>@@V<lambda_4b292cb8dd18144e164572427af410ab>@@@?$__crt_seh_guarded_call@P6AXH@Z@@QAEP6AXH@Z$$QAV<lambda_cbab9ec6f41b0180b23cc171c22676b0>@@AAV<lambda_44731a7d0e6d81c3e6aa82d741081786>@@$$QAV<lambda_4b292cb8dd18144e164572427af410ab>@@@Z 10006c61 f   libucrt:signal.obj
 0001:00005cbb       ?get_global_action_nolock@@YAPAP6AXH@ZH@Z 10006cbb f   libucrt:signal.obj
 0001:00005cfd       ?siglookup@@YAPAU__crt_signal_action_t@@HQAU1@@Z 10006cfd f   libucrt:signal.obj
 0001:00005fb5       ??$?RV<lambda_2866be3712abc81a800a822484c830d8>@@AAV<lambda_39ca0ed439415581b5b15c265174cece>@@V<lambda_2b24c74d71094a6cd0cb82e44167d71b>@@@?$__crt_seh_guarded_call@X@@QAEX$$QAV<lambda_2866be3712abc81a800a822484c830d8>@@AAV<lambda_39ca0ed439415581b5b15c265174cece>@@$$QAV<lambda_2b24c74d71094a6cd0cb82e44167d71b>@@@Z 10006fb5 f   libucrt:fflush.obj
 0001:00006037       ??$?RV<lambda_2cc53f568c5a2bb6f192f930a45d44ea>@@AAV<lambda_ab61a845afdef5b7c387490eaf3616ee>@@V<lambda_c2ffc0b7726aa6be21d5f0026187e748>@@@?$__crt_seh_guarded_call@X@@QAEX$$QAV<lambda_2cc53f568c5a2bb6f192f930a45d44ea>@@AAV<lambda_ab61a845afdef5b7c387490eaf3616ee>@@$$QAV<lambda_c2ffc0b7726aa6be21d5f0026187e748>@@@Z 10007037 f   libucrt:fflush.obj
 0001:000060d9       ?common_flush_all@@YAH_N@Z 100070d9 f   libucrt:fflush.obj
 0001:00006128       ?common_flush_all_should_try_to_flush_stream@@YA_NV__crt_stdio_stream@@QAH@Z 10007128 f   libucrt:fflush.obj
 0001:0000615b       ?is_stream_flushable_or_commitable@@YA_NJ@Z 1000715b f   libucrt:fflush.obj
 0001:0000667c       ?__acrt_LCMapStringA_stat@@YAHPAU__crt_locale_pointers@@PB_WKPBDHPADHHH@Z 1000767c f   libucrt:lcmapstringa.obj
 0001:00006dcc       ?free_crt_array_internal@@YAXQAPBXI@Z 10007dcc f   libucrt:inittime.obj
 0001:00007000       ?swap@@YAXPAD0I@Z          10008000 f   libucrt:qsort.obj
 0001:00007484       ??$common_tcsncpy_s@D@@YAHQADIQBDI@Z 10008484 f   libucrt:strncpy_s.obj
 0001:00007550       $$000000                   10008550     libucrt:strpbrk.obj
 0001:00007636       ?initialize_multibyte@@YAHXZ 10008636 f   libucrt:multibyte_initializer.obj
 0001:00007968       ?GetTableIndexFromLocaleName@@YAHPB_W@Z 10008968 f   libucrt:lcidtoname_downlevel.obj
 0001:00007a48       ??$?RV<lambda_9e9de3de5fa147e2223d7db92bc10aa6>@@AAV<lambda_38ce7e780aa69e748d6df282ebc68efe>@@V<lambda_8ca6da459f0f6780f1cff60fdc3d00e5>@@@?$__crt_seh_guarded_call@H@@QAEH$$QAV<lambda_9e9de3de5fa147e2223d7db92bc10aa6>@@AAV<lambda_38ce7e780aa69e748d6df282ebc68efe>@@$$QAV<lambda_8ca6da459f0f6780f1cff60fdc3d00e5>@@@Z 10008a48 f   libucrt:commit.obj
 0001:00007b5f       ?write_double_translated_ansi_nolock@@YA?AUwrite_result@?A0x17268360@@HQBDI@Z 10008b5f f   libucrt:write.obj
 0001:00007f0b       ?write_double_translated_unicode_nolock@@YA?AUwrite_result@?A0x17268360@@QBDI@Z 10008f0b f   libucrt:write.obj
 0001:00007f75       ?write_requires_double_translation_nolock@@YA_NH@Z 10008f75 f   libucrt:write.obj
 0001:00007fe8       ?write_text_ansi_nolock@@YA?AUwrite_result@?A0x17268360@@HQBDI@Z 10008fe8 f   libucrt:write.obj
 0001:000080c5       ?write_text_utf16le_nolock@@YA?AUwrite_result@?A0x17268360@@HQBDI@Z 100090c5 f   libucrt:write.obj
 0001:000081b0       ?write_text_utf8_nolock@@YA?AUwrite_result@?A0x17268360@@HQBDI@Z 100091b0 f   libucrt:write.obj
 0001:000086e7       ??R<lambda_0f007d4f94c691a9a85cf1869a09f0c3>@@QBEIPBD@Z 100096e7 f   libucrt:mbrtowc.obj
 0001:00008893       ??$common_lseek_nolock@_J@@YA_JH_JH@Z 10009893 f   libucrt:lseek.obj
 0001:00008c10       $$000000                   10009c10     libucrt:log10_impl.obj
 0001:00008d20       $$000000                   10009d20     libucrt:ceil_pentium4.obj
 0001:00008e40       $$000000                   10009e40     libucrt:_strnicm.obj
 0001:00008ea1       ?__dcrt_lowio_initialize_console_output@@YAXXZ 10009ea1 f   libucrt:initcon.obj
 0001:00008f4b       ??$?RV<lambda_218ce3db14220d0be481dae8ef3383b6>@@AAV<lambda_628dfdc04ba53c8bfc02c9951375f3f5>@@V<lambda_57dc472bd5c9d5f3b2cbca59b8a843ae>@@@?$__crt_seh_guarded_call@H@@QAEH$$QAV<lambda_218ce3db14220d0be481dae8ef3383b6>@@AAV<lambda_628dfdc04ba53c8bfc02c9951375f3f5>@@$$QAV<lambda_57dc472bd5c9d5f3b2cbca59b8a843ae>@@@Z 10009f4b f   libucrt:close.obj
 0001:00009150       $$000000                   1000a150     libucrt:log10_pentium4.obj
 0001:000093e0       $$000000                   1000a3e0     libucrt:87tran.obj
 0001:000095f0       $$000000                   1000a5f0     libucrt:87disp.obj
 0001:00009850       $$000000                   1000a850     libucrt:common.obj
 0001:000099e0       $$000000                   1000a9e0     libucrt:genexcep.obj
 0001:0000af90       $$000000                   1000bf90     LIBCMT:ulldvrm.obj
 0001:0000b030       $$000000                   1000c030     LIBCMT:llmul.obj
 0001:0000b070       $$000000                   1000c070     LIBCMT:lldvrm.obj
 0001:0000b150       $$000000                   1000c150     LIBCMT:ullshr.obj
 0001:0000b170       $$000000                   1000c170     LIBCMT:alloca16.obj
 0001:0000b1a0       $$000000                   1000c1a0     LIBCMT:chkstk.obj
 0001:0000b1d0       $$000000                   1000c1d0     LIBCMT:llshl.obj
 0001:0000b1f0       $$000000                   1000c1f0     LIBCMT:ftol2.obj
 0001:0000b2b0       $$000000                   1000c2b0     libvcruntime:strchr.obj
 0001:0000b3e0       $$000000                   1000c3e0     libvcruntime:strrchr.obj
 0002:00000170       _GS_ExceptionPointers      1000d170     LIBCMT:gs_report.obj
 0002:00000178       ?tokenTable@@3QBQBDB       1000d178     libvcruntime:undname.obj
 0002:000001b8       ?nameTable@@3QBQBDB        1000d1b8     libvcruntime:undname.obj
 0002:00000304       ?rttiTable@@3QBQBDB        1000d304     libvcruntime:undname.obj
 0002:00000920       ?module_names@?A0xf001bd2f@@3QBQB_WB 1000d920     libvcruntime:winapi_downlevel.obj
 0002:000009c8       ?candidate_modules@?1??try_get_FlsAlloc@@YAP6GKP6GXPAX@Z@ZXZ@4QBW4module_id@?A0xf001bd2f@@B 1000d9c8     libvcruntime:winapi_downlevel.obj
 0002:000009dc       ?candidate_modules@?1??try_get_FlsFree@@YAP6GHK@ZXZ@4QBW4module_id@?A0xf001bd2f@@B 1000d9dc     libvcruntime:winapi_downlevel.obj
 0002:000009ec       ?candidate_modules@?1??try_get_FlsGetValue@@YAP6GPAXK@ZXZ@4QBW4module_id@?A0xf001bd2f@@B 1000d9ec     libvcruntime:winapi_downlevel.obj
 0002:00000a00       ?candidate_modules@?1??try_get_FlsSetValue@@YAP6GHKPAX@ZXZ@4QBW4module_id@?A0xf001bd2f@@B 1000da00     libvcruntime:winapi_downlevel.obj
 0002:00000a14       ?candidate_modules@?1??try_get_InitializeCriticalSectionEx@@YAP6GHPAU_RTL_CRITICAL_SECTION@@KK@ZXZ@4QBW4module_id@?A0xf001bd2f@@B 1000da14     libvcruntime:winapi_downlevel.obj
 0002:00000b08       ___acrt_initializers       1000db08     libucrt:initialization.obj
 0002:00000b88       ?errtable@@3QBUerrentry@?A0x31fdb9ec@@B 1000db88     libucrt:errno.obj
 0002:000011b0       ?_mb_locale_names@@3QBQB_WB 1000e1b0     libucrt:mbctype.obj
 0002:000011f0       ?module_names@?A0x391cf84c@@3QBQB_WB 1000e1f0     libucrt:winapi_thunks.obj
 0002:00001710       ?candidate_modules@?1??try_get_AreFileApisANSI@@YAP6GHXZXZ@4QBW4module_id@?A0x391cf84c@@B 1000e710     libucrt:winapi_thunks.obj
 0002:00001724       ?candidate_modules@?1??try_get_FlsAlloc@@YAP6GKP6GXPAX@Z@ZXZ@4QBW4module_id@?A0x391cf84c@@B 1000e724     libucrt:winapi_thunks.obj
 0002:00001738       ?candidate_modules@?1??try_get_FlsFree@@YAP6GHK@ZXZ@4QBW4module_id@?A0x391cf84c@@B 1000e738     libucrt:winapi_thunks.obj
 0002:00001748       ?candidate_modules@?1??try_get_FlsGetValue@@YAP6GPAXK@ZXZ@4QBW4module_id@?A0x391cf84c@@B 1000e748     libucrt:winapi_thunks.obj
 0002:0000175c       ?candidate_modules@?1??try_get_FlsSetValue@@YAP6GHKPAX@ZXZ@4QBW4module_id@?A0x391cf84c@@B 1000e75c     libucrt:winapi_thunks.obj
 0002:00001770       ?candidate_modules@?1??try_get_InitializeCriticalSectionEx@@YAP6GHPAU_RTL_CRITICAL_SECTION@@KK@ZXZ@4QBW4module_id@?A0x391cf84c@@B 1000e770     libucrt:winapi_thunks.obj
 0002:00001794       ?candidate_modules@?1??try_get_LCMapStringEx@@YAP6GHPB_WK0HPA_WHPAU_nlsversioninfo@@PAXJ@ZXZ@4QBW4module_id@?A0x391cf84c@@B 1000e794     libucrt:winapi_thunks.obj
 0002:000017ac       ?candidate_modules@?1??try_get_LocaleNameToLCID@@YAP6GKPB_WK@ZXZ@4QBW4module_id@?A0x391cf84c@@B 1000e7ac     libucrt:winapi_thunks.obj
 0002:000017c8       ?candidate_modules@?1??try_get_AppPolicyGetProcessTerminationMethod@@YAP6GJPAXPAW4AppPolicyProcessTerminationMethod@@@ZXZ@4QBW4module_id@?A0x391cf84c@@B 1000e7c8     libucrt:winapi_thunks.obj
 0002:00001e00       ?LcidToLocaleNameTable@?A0x881e4c05@@3QBULcidToLocaleName@1@B 1000ee00     libucrt:lcidtoname_downlevel.obj
 0002:00002f20       ?LocaleNameToIndexTable@?A0x881e4c05@@3QBULocaleNameIndex@1@B 1000ff20     libucrt:lcidtoname_downlevel.obj
 0002:00003e80       LOG_name                   10010e80     libucrt:log10_impl.obj
 0002:00003e90       _One                       10010e90     libucrt:ceil_pentium4.obj
 0002:00003ea0       _Bns                       10010ea0     libucrt:ceil_pentium4.obj
 0002:00003eb0       _Zero                      10010eb0     libucrt:ceil_pentium4.obj
 0002:00003ec0       _S                         10010ec0     libucrt:ceil_pentium4.obj
 0002:00003ed0       _NegZero                   10010ed0     libucrt:ceil_pentium4.obj
 0002:00003ef0       emask                      10010ef0     libucrt:log10_pentium4.obj
 0002:00003f00       CC                         10010f00     libucrt:log10_pentium4.obj
 0002:00003f10       Magic                      10010f10     libucrt:log10_pentium4.obj
 0002:00003f20       hi_mask                    10010f20     libucrt:log10_pentium4.obj
 0002:00003f30       LOG10_2                    10010f30     libucrt:log10_pentium4.obj
 0002:00003f40       place_L                    10010f40     libucrt:log10_pentium4.obj
 0002:00003f60       One                        10010f60     libucrt:log10_pentium4.obj
 0002:00003f70       Zero                       10010f70     libucrt:log10_pentium4.obj
 0002:00003f80       Two52                      10010f80     libucrt:log10_pentium4.obj
 0002:00003f90       Infs                       10010f90     libucrt:log10_pentium4.obj
 0002:00003fa0       NaN                        10010fa0     libucrt:log10_pentium4.obj
 0002:00003fb0       coeff                      10010fb0     libucrt:log10_pentium4.obj
 0002:0000400e       _log2max                   1001100e     libucrt:87tran.obj
 0002:00004018       _smallarg                  10011018     libucrt:87tran.obj
 0002:00004022       _half                      10011022     libucrt:87tran.obj
 0002:0000406e       One                        1001106e     libucrt:87disp.obj
 0002:00004076       Three                      10011076     libucrt:87disp.obj
 0002:0000407e       XAMtoTagTab                1001107e     libucrt:87disp.obj
 0002:00004090       One                        10011090     libucrt:common.obj
 0002:000040a4       DblMax                     100110a4     libucrt:common.obj
 0002:000040ac       DblMin                     100110ac     libucrt:common.obj
 0002:000040b4       IeeeAdjO                   100110b4     libucrt:common.obj
 0002:000040bc       IeeeAdjU                   100110bc     libucrt:common.obj
 0002:000040c4       _infinity                  100110c4     libucrt:common.obj
 0002:000040cc       _zero                      100110cc     libucrt:common.obj
 0002:00004108       _over                      10011108     libucrt:fpctrl.obj
 0002:00004114       _under                     10011114     libucrt:fpctrl.obj
 0002:00004948       ?_names@?1??_get_fname@@9@9 10011948     libucrt:fpexcept.obj
 0002:00005090       __sehtable$?dllmain_crt_process_attach@@YAHQAUHINSTANCE__@@QAX@Z 10012090     LIBCMT:dll_dllmain.obj
 0002:000050b0       __sehtable$?dllmain_crt_process_detach@@YAH_N@Z 100120b0     LIBCMT:dll_dllmain.obj
 0002:000050d0       __sehtable$?dllmain_dispatch@@YAHQAUHINSTANCE__@@KQAX@Z 100120d0     LIBCMT:dll_dllmain.obj
 0002:000050f0       __sehtable$___scrt_is_nonwritable_in_current_image 100120f0     LIBCMT:utility.obj
 0002:00005110       __sehtable$___DestructExceptionObject 10012110     libvcruntime:ehhelpers.obj
 0002:00005130       __sehtable$??R<lambda_6e4b09c48022b2350581041d5f6b0c4c>@@QBE@XZ 10012130     libucrt:exit.obj
 0002:00005150       __sehtable$??$?RV<lambda_03b1d95aef87969028cfba75ccab2455>@@AAV<lambda_6e4b09c48022b2350581041d5f6b0c4c>@@V<lambda_22bdf7517842c4b3e53723af5aa32b9e>@@@?$__crt_seh_guarded_call@X@@QAEX$$QAV<lambda_03b1d95aef87969028cfba75ccab2455>@@AAV<lambda_6e4b09c48022b2350581041d5f6b0c4c>@@$$QAV<lambda_22bdf7517842c4b3e53723af5aa32b9e>@@@Z 10012150     libucrt:exit.obj
 0002:00005170       __sehtable$??$?RV<lambda_69a2805e680e0e292e8ba93315fe43a8>@@AAV<lambda_f03950bc5685219e0bcd2087efbe011e>@@V<lambda_03fcd07e894ec930e3f35da366ca99d6>@@@?$__crt_seh_guarded_call@H@@QAEH$$QAV<lambda_69a2805e680e0e292e8ba93315fe43a8>@@AAV<lambda_f03950bc5685219e0bcd2087efbe011e>@@$$QAV<lambda_03fcd07e894ec930e3f35da366ca99d6>@@@Z 10012170     libucrt:onexit.obj
 0002:00005190       __sehtable$_terminate      10012190     libucrt:terminate.obj
 0002:000051b0       __sehtable$??$?RV<lambda_15ade71b0218206bbe3333a0c9b79046>@@AAV<lambda_da44e0f8b0f19ba52fefafb335991732>@@V<lambda_207f2d024fc103971653565357d6cd41>@@@?$__crt_seh_guarded_call@X@@QAEX$$QAV<lambda_15ade71b0218206bbe3333a0c9b79046>@@AAV<lambda_da44e0f8b0f19ba52fefafb335991732>@@$$QAV<lambda_207f2d024fc103971653565357d6cd41>@@@Z 100121b0     libucrt:per_thread_data.obj
 0002:000051d0       __sehtable$??$?RV<lambda_a7e850c220f1c8d1e6efeecdedd162c6>@@AAV<lambda_46720907175c18b6c9d2717bc0d2d362>@@V<lambda_9048902d66e8d99359bc9897bbb930a8>@@@?$__crt_seh_guarded_call@X@@QAEX$$QAV<lambda_a7e850c220f1c8d1e6efeecdedd162c6>@@AAV<lambda_46720907175c18b6c9d2717bc0d2d362>@@$$QAV<lambda_9048902d66e8d99359bc9897bbb930a8>@@@Z 100121d0     libucrt:per_thread_data.obj
 0002:000051f0       __sehtable$??$?RV<lambda_38edbb1296d33220d7e4dd0ed76b244a>@@AAV<lambda_5ce1d447e08cb34b2473517608e21441>@@V<lambda_fb385d3da700c9147fc39e65dd577a8c>@@@?$__crt_seh_guarded_call@X@@QAEX$$QAV<lambda_38edbb1296d33220d7e4dd0ed76b244a>@@AAV<lambda_5ce1d447e08cb34b2473517608e21441>@@$$QAV<lambda_fb385d3da700c9147fc39e65dd577a8c>@@@Z 100121f0     libucrt:per_thread_data.obj
 0002:00005210       __sehtable$??$?RV<lambda_6affb1475c98b40b75cdec977db92e3c>@@AAV<lambda_b8d4b9c228a6ecc3f80208dbb4b4a104>@@V<lambda_608742c3c92a14382c1684fc64f96c88>@@@?$__crt_seh_guarded_call@X@@QAEX$$QAV<lambda_6affb1475c98b40b75cdec977db92e3c>@@AAV<lambda_b8d4b9c228a6ecc3f80208dbb4b4a104>@@$$QAV<lambda_608742c3c92a14382c1684fc64f96c88>@@@Z 10012210     libucrt:per_thread_data.obj
 0002:00005230       __sehtable$??$?RV<lambda_e5124f882df8998aaf41531e079ba474>@@AAV<lambda_3e16ef9562a7dcce91392c22ab16ea36>@@V<lambda_e25ca0880e6ef98be67edffd8c599615>@@@?$__crt_seh_guarded_call@X@@QAEX$$QAV<lambda_e5124f882df8998aaf41531e079ba474>@@AAV<lambda_3e16ef9562a7dcce91392c22ab16ea36>@@$$QAV<lambda_e25ca0880e6ef98be67edffd8c599615>@@@Z 10012230     libucrt:wsetlocale.obj
 0002:00005250       __sehtable$?update_thread_multibyte_data_internal@@YAPAU__crt_multibyte_data@@QAU__acrt_ptd@@QAPAU1@@Z 10012250     libucrt:mbctype.obj
 0002:00005270       __sehtable$??$?RV<lambda_ceb1ee4838e85a9d631eb091e2fbe199>@@AAV<lambda_ae742caa10f662c28703da3d2ea5e57e>@@V<lambda_cd08b5d6af4937fe54fc07d0c9bf6b37>@@@?$__crt_seh_guarded_call@X@@QAEX$$QAV<lambda_ceb1ee4838e85a9d631eb091e2fbe199>@@AAV<lambda_ae742caa10f662c28703da3d2ea5e57e>@@$$QAV<lambda_cd08b5d6af4937fe54fc07d0c9bf6b37>@@@Z 10012270     libucrt:mbctype.obj
 0002:00005290       __sehtable$___acrt_initialize_lowio 10012290     libucrt:ioinit.obj
 0002:000052b0       __sehtable$__query_new_handler 100122b0     libucrt:new_handler.obj
 0002:000052d0       __sehtable$_raise          100122d0     libucrt:signal.obj
 0002:000052f0       __sehtable$??$?RV<lambda_cbab9ec6f41b0180b23cc171c22676b0>@@AAV<lambda_44731a7d0e6d81c3e6aa82d741081786>@@V<lambda_4b292cb8dd18144e164572427af410ab>@@@?$__crt_seh_guarded_call@P6AXH@Z@@QAEP6AXH@Z$$QAV<lambda_cbab9ec6f41b0180b23cc171c22676b0>@@AAV<lambda_44731a7d0e6d81c3e6aa82d741081786>@@$$QAV<lambda_4b292cb8dd18144e164572427af410ab>@@@Z 100122f0     libucrt:signal.obj
 0002:00005310       __sehtable$??$?RV<lambda_2866be3712abc81a800a822484c830d8>@@AAV<lambda_39ca0ed439415581b5b15c265174cece>@@V<lambda_2b24c74d71094a6cd0cb82e44167d71b>@@@?$__crt_seh_guarded_call@X@@QAEX$$QAV<lambda_2866be3712abc81a800a822484c830d8>@@AAV<lambda_39ca0ed439415581b5b15c265174cece>@@$$QAV<lambda_2b24c74d71094a6cd0cb82e44167d71b>@@@Z 10012310     libucrt:fflush.obj
 0002:00005330       __sehtable$??$?RV<lambda_2cc53f568c5a2bb6f192f930a45d44ea>@@AAV<lambda_ab61a845afdef5b7c387490eaf3616ee>@@V<lambda_c2ffc0b7726aa6be21d5f0026187e748>@@@?$__crt_seh_guarded_call@X@@QAEX$$QAV<lambda_2cc53f568c5a2bb6f192f930a45d44ea>@@AAV<lambda_ab61a845afdef5b7c387490eaf3616ee>@@$$QAV<lambda_c2ffc0b7726aa6be21d5f0026187e748>@@@Z 10012330     libucrt:fflush.obj
 0002:00005350       __sehtable$___acrt_update_thread_locale_data 10012350     libucrt:locale_refcounting.obj
 0002:00005370       __sehtable$___acrt_lowio_ensure_fh_exists 10012370     libucrt:osfinfo.obj
 0002:00005390       __sehtable$??$?RV<lambda_9e9de3de5fa147e2223d7db92bc10aa6>@@AAV<lambda_38ce7e780aa69e748d6df282ebc68efe>@@V<lambda_8ca6da459f0f6780f1cff60fdc3d00e5>@@@?$__crt_seh_guarded_call@H@@QAEH$$QAV<lambda_9e9de3de5fa147e2223d7db92bc10aa6>@@AAV<lambda_38ce7e780aa69e748d6df282ebc68efe>@@$$QAV<lambda_8ca6da459f0f6780f1cff60fdc3d00e5>@@@Z 10012390     libucrt:commit.obj
 0002:000053b0       __sehtable$__write         100123b0     libucrt:write.obj
 0002:000053d0       __sehtable$__fcloseall     100123d0     libucrt:closeall.obj
 0002:000053f0       __sehtable$_fclose         100123f0     libucrt:fclose.obj
 0002:00005410       __sehtable$??$?RV<lambda_218ce3db14220d0be481dae8ef3383b6>@@AAV<lambda_628dfdc04ba53c8bfc02c9951375f3f5>@@V<lambda_57dc472bd5c9d5f3b2cbca59b8a843ae>@@@?$__crt_seh_guarded_call@H@@QAEH$$QAV<lambda_218ce3db14220d0be481dae8ef3383b6>@@AAV<lambda_628dfdc04ba53c8bfc02c9951375f3f5>@@$$QAV<lambda_57dc472bd5c9d5f3b2cbca59b8a843ae>@@@Z 10012410     libucrt:close.obj
 0002:00005430       __sehtable$__IsNonwritableInCurrentImage 10012430     LIBCMT:pesect.obj
 0002:00005860       .edata                     10012860     asynckeystate.exp
 0002:00005888       rgpv                       10012888     asynckeystate.exp
 0002:0000588c       rgszName                   1001288c     asynckeystate.exp
 0002:00005890       rgwOrd                     10012890     asynckeystate.exp
 0002:00005892       szName                     10012892     asynckeystate.exp
 0002:000058a5       $N00001                    100128a5     asynckeystate.exp
 0002:00005a28       .idata$6                   10012a28     kernel32:KERNEL32.dll
 0002:00005a4a       .idata$6                   10012a4a     user32:USER32.dll
 0003:00000020       ?__vcrt_flsindex@@3KA      10013020     libvcruntime:per_thread_data.obj
 0003:00000044       ?errno_no_memory@@3HA      10013044     libucrt:errno.obj
 0003:00000048       ?doserrno_no_memory@@3KA   10013048     libucrt:errno.obj
 0003:0000004c       ?__acrt_flsindex@@3KA      1001304c     libucrt:per_thread_data.obj
 0003:00000338       __mbctypes                 10013338     libucrt:mbctype.obj
 0003:00000440       __mbcasemaps               10013440     libucrt:mbctype.obj
 0003:00000540       ?__rgctypeflag@@3PADA      10013540     libucrt:mbctype.obj
 0003:00000548       ?__rgcode_page_info@@3PAUcode_page_info@@A 10013548     libucrt:mbctype.obj
 0003:00000840       ?__dcrt_lowio_console_output_handle@@3PAXA 10013840     libucrt:initcon.obj
 0003:00000860       __module                   10013860     asynckeystate.obj
 0003:000008c4       ?__proc_attached@@3HA      100138c4     LIBCMT:dll_dllmain.obj
 0003:000008c8       _GS_ExceptionRecord        100138c8     LIBCMT:gs_report.obj
 0003:00000918       _GS_ContextRecord          10013918     LIBCMT:gs_report.obj
 0003:00000c08       ?is_initialized_as_dll@@3_NA 10013c08     LIBCMT:utility.obj
 0003:00000c09       ?module_local_atexit_table_initialized@@3_NA 10013c09     LIBCMT:utility.obj
 0003:00000c0c       ?module_local_atexit_table@@3U_onexit_table_t@@A 10013c0c     LIBCMT:utility.obj
 0003:00000c18       ?module_local_at_quick_exit_table@@3U_onexit_table_t@@A 10013c18     LIBCMT:utility.obj
 0003:00000c58       ?heap@@3V_HeapManager@@A   10013c58     libvcruntime:undname.obj
 0003:00000c6c       ?__vcrt_startup_thread_ptd@@3U__vcrt_ptd@@A 10013c6c     libvcruntime:per_thread_data.obj
 0003:00000c94       ___vcrt_lock_table         10013c94     libvcruntime:locks.obj
 0003:00000cac       ___vcrt_locks_initialized  10013cac     libvcruntime:locks.obj
 0003:00000cb0       ?module_handles@@3PAPAUHINSTANCE__@@A 10013cb0     libvcruntime:winapi_downlevel.obj
 0003:00000cbc       ?function_pointers@@3PAPAXA 10013cbc     libvcruntime:winapi_downlevel.obj
 0003:00000cd8       ?c_termination_complete@@3JA 10013cd8     libucrt:exit.obj
 0003:00000cdc       ?thread_local_exit_callback_func@@3P6GXPAXK0@ZA 10013cdc     libucrt:exit.obj
 0003:00000ce8       ?program_name@?1???$common_configure_argv@D@@YAHW4_crt_argv_mode@@@Z@4PADA 10013ce8     libucrt:argv_parsing.obj
 0003:00000e18       ?__acrt_invalid_parameter_handler@@3V?$dual_state_global@P6AXPB_W00II@Z@__crt_state_management@@A 10013e18     libucrt:invalid_parameter.obj
 0003:00000e28       ?__acrt_lock_table@@3PAU_RTL_CRITICAL_SECTION@@A 10013e28     libucrt:locks.obj
 0003:00000f78       ?__acrt_locks_initialized@@3IA 10013f78     libucrt:locks.obj
 0003:00000f88       ?fSystemSet@@3HA           10013f88     libucrt:mbctype.obj
 0003:00000f8c       ?initialized@?1??__acrt_initialize_multibyte@@9@4_NA 10013f8c     libucrt:mbctype.obj
 0003:000011b0       ?module_handles@@3PAPAUHINSTANCE__@@A 100141b0     libucrt:winapi_thunks.obj
 0003:00001200       ?encoded_function_pointers@@3PAPAXA 10014200     libucrt:winapi_thunks.obj
 0003:0000128c       ?__acrt_new_handler@@3V?$dual_state_global@P6AHI@Z@__crt_state_management@@A 1001428c     libucrt:new_handler.obj
 0003:00001290       ?ctrlc_action@@3V?$dual_state_global@P6AXH@Z@__crt_state_management@@A 10014290     libucrt:signal.obj
 0003:00001294       ?ctrlbreak_action@@3V?$dual_state_global@P6AXH@Z@__crt_state_management@@A 10014294     libucrt:signal.obj
 0003:00001298       ?abort_action@@3V?$dual_state_global@P6AXH@Z@__crt_state_management@@A 10014298     libucrt:signal.obj
 0003:0000129c       ?term_action@@3V?$dual_state_global@P6AXH@Z@__crt_state_management@@A 1001429c     libucrt:signal.obj
 0003:000012a0       ?user_matherr@@3V?$dual_state_global@P6AHPAU_exception@@@Z@__crt_state_management@@A 100142a0     libucrt:matherr.obj
 0003:000012b4       ?internal_state@?1??_mbtowc_l@@9@4U_Mbstatet@@A 100142b4     libucrt:mbtowc.obj
 0003:000012c4       ?__acrt_global_new_mode@@3V?$dual_state_global@J@__crt_state_management@@A 100142c4     libucrt:new_mode.obj
 0003:000012c8       ?__acrt_app_type@@3W4_crt_app_type@@A 100142c8     libucrt:report_runtime_error.obj
 0003:000012cc       ?internal_pst@?1??__mbrtoc32_utf8@__crt_mbstring@@YAIPA_UPBDIPAU_Mbstatet@@@Z@4U3@A 100142cc     libucrt:mbrtoc32.obj
 0003:000012d8       __pmatherr_set             100142d8     libucrt:libm_error.obj
 0004:00000060       $R000000                   10015060     * linker generated manifest res *

 Exports

  ordinal    name

        1    __register_addon_
               exported name: _register_addon_
